Archive member included to satisfy reference by file (symbol)

../../libs/cpu/libplatform.a(audio_mic.o)
                              client_output/obj/driver/driver_saradc.o (audio_mic_analog_init)
../../libs/cpu/libplatform.a(audio_mic_trim.o)
                              ../../libs/cpu/libplatform.a(audio_mic.o) (audio_mic_trim_sta_set)
../../libs/cpu/libplatform.a(cm.o)
                              client_output/obj/bsp/bsp_param.o (cm_sync)
../../libs/cpu/libplatform.a(os_flash.o)
                              ../../libs/cpu/libplatform.a(cm.o) (os_spiflash_program)
../../libs/cpu/libplatform.a(xcfg.o)
                              client_output/obj/bsp/bsp_sys.o (xcfg_init)
../../libs/cpu/libplatform.a(main.o)
                              client_output/obj/ble/ble_client.o (delay_ms)
../../libs/cpu/libplatform.a(interrupt.o)
                              client_output/obj/driver/driver_gpio.o (sys_irq_init)
../../libs/cpu/libplatform.a(startup.o)
                              client_output/obj/strong_symbol.o (thread_btstack_create)
../../libs/cpu/libplatform.a(sys_hook.o)
                              ../../libs/cpu/libplatform.a(startup.o) (sys_hook_init)
../../libs/cpu/libplatform.a(thread_driver.o)
                              ../../libs/cpu/libplatform.a(startup.o) (thread_driver_entry)
../../libs/cpu/libplatform.a(pll.o)
                              ../../libs/cpu/libplatform.a(main.o) (pll0_disable)
../../libs/cpu/libplatform.a(pmu.o)
                              client_output/obj/driver/driver_lowpwr.o (pmu_get_vddcore)
../../libs/cpu/libplatform.a(reset.o)
                              (_start)
../../libs/cpu/libplatform.a(context.o)
                              client_output/obj/driver/driver_lowpwr.o (lp_sleep)
../../libs/cpu/libplatform.a(spiflash.o)
                              ../../libs/cpu/libplatform.a(reset.o) (spiflash_erase_patch_do)
../../libs/cpu/libplatform.a(debug.o)
                              ../../libs/cpu/libplatform.a(reset.o) (exception_isr)
../../libs/cpu/libplatform.a(fot_pack.o)
                              ../../libs/cpu/libplatform.a(os_flash.o) (ota_pack_is_update_success)
../../libs/cpu/libplatform.a(lock.o)
                              ../../libs/cpu/libplatform.a(main.o) (lock_init)
../../libs/cpu/libplatform.a(patch.o)
                              ../../libs/cpu/libplatform.a(main.o) (patch_init)
../../libs/cpu/libplatform.a(s_sys.o)
                              ../../libs/cpu/libplatform.a(startup.o) (dummy_func)
../../libs/cpu/libplatform.a(sleep.o)
                              client_output/obj/driver/driver_lowpwr.o (lowpwr_sleep_sfr_save)
../../libs/cpu/libplatform.a(sys.o)
                              client_output/obj/main.o (sys_rst_init)
../../libs/cpu/libplatform.a(sys_clk.o)
                              ../../libs/cpu/libplatform.a(audio_mic.o) (sys_clk_get_cur)
../../libs/cpu/libplatform.a(voltage_trim.o)
                              client_output/obj/driver/driver_saradc.o (pmu_get_vbatdet)
../../libs/cpu/libplatform.a(weak_symbol.o)
                              ../../libs/cpu/libplatform.a(main.o) (xosc_24m_div_get)
../../libs/cpu/libplatform.a(bt.o)
                              ../../libs/cpu/libplatform.a(startup.o) (thread_btstack_entry)
../../libs/cpu/libplatform.a(freq_det.o)
                              ../../libs/cpu/libplatform.a(sys.o) (freq_det_init)
../../libs/ble/libbtstack_central.a(txpkt.o)
                              client_output/obj/ble/ble_init.o (txpkt_init)
../../libs/ble/libbtstack_central.a(hci.o)
                              client_output/obj/ble/ble_client.o (ble_get_scan_sta)
../../libs/ble/libbtstack_central.a(btstack_util.o)
                              ../../libs/ble/libbtstack_central.a(hci.o) (bd_addr_copy)
../../libs/ble/libbtstack_central.a(sm.o)
                              client_output/obj/ble/ble_init.o (ble_sm_init)
../../libs/ble/libbtstack_central.a(le_device_db_memory.o)
                              ../../libs/ble/libbtstack_central.a(sm.o) (le_device_db_count)
../../libs/ble/libbtstack_central.a(gatt_server.o)
                              client_output/obj/ble/ble_user_service.o (ble_notify_for_handle)
../../libs/ble/libbtstack_central.a(gatt_client.o)
                              client_output/obj/ble/ble_client.o (att_client_register_handler)
../../libs/ble/libbtstack_central.a(att_server.o)
                              client_output/obj/ble/ble_user_service.o (att_server_register_service_handler)
../../libs/ble/libbtstack_central.a(att_dispatch.o)
                              ../../libs/ble/libbtstack_central.a(gatt_client.o) (att_dispatch_register_client)
../../libs/ble/libbtstack_central.a(att_db.o)
                              ../../libs/ble/libbtstack_central.a(att_server.o) (att_set_db)
../../libs/ble/libbtstack_central.a(ad_parser.o)
                              client_output/obj/ble/ble_client.o (ble_adv_report_info_analyse)
../../libs/ble/libbtstack_central.a(hci_transport_h3_controller.o)
                              ../../libs/ble/libbtstack_central.a(hci.o) (p_hci_transport)
../../libs/ble/libbtstack_central.a(hci_transport_dummy.o)
                              ../../libs/ble/libbtstack_central.a(hci_transport_h3_controller.o) (hci_transport_setup)
../../libs/ble/libbtstack_central.a(btstack_hal.o)
                              ../../libs/ble/libbtstack_central.a(hci_transport_h3_controller.o) (hal_uart_dma_init)
../../libs/ble/libbtstack_central.a(btstack_api.o)
                              client_output/obj/ble/ble_init.o (btstack_init)
../../libs/ble/libbtstack_central.a(ble_api.o)
                              ../../libs/ble/libbtstack_central.a(btstack_api.o) (ble_msg_free_prepare)
../../libs/ble/libbtstack_central.a(txpkt.o)
                              ../../libs/ble/libbtstack_central.a(txpkt.o) (txpkt_mem_init)
../../libs/ble/libbtstack_central.a(platform.o)
                              ../../libs/ble/libbtstack_central.a(hci_transport_h3_controller.o) (dummy_void)
../../libs/ble/libbtstack_central.a(rf.o)
                              ../../libs/ble/libbtstack_central.a(btstack_api.o) (rf_single_tone_enter)
../../libs/ble/libbtstack_central.a(hct_proc.o)
                              ../../libs/ble/libbtstack_central.a(hci.o) (hct_register_handler_evt)
../../libs/ble/libbtstack_central.a(hct.o)
                              ../../libs/ble/libbtstack_central.a(hci.o) (hci_cmd_send_2_controller)
../../libs/ble/libbtstack_central.a(mgr_hci.o)
                              ../../libs/ble/libbtstack_central.a(hci.o) (hci_le_rd_buff_size)
../../libs/ble/libbtstack_central.a(mgr.o)
                              ../../libs/ble/libbtstack_central.a(mgr_hci.o) (mgr_cmd_cmp_send)
../../libs/ble/libbtstack_central.a(ll_scan.o)
                              ../../libs/ble/libbtstack_central.a(mgr_hci.o) (hci_le_set_scan_param_cmd_func)
../../libs/ble/libbtstack_central.a(ll.o)
                              ../../libs/ble/libbtstack_central.a(hct_proc.o) (ll_env)
../../libs/ble/libbtstack_central.a(ble_hal.o)
                              ../../libs/ble/libbtstack_central.a(mgr.o) (ble_ch_assess_data_get)
../../libs/ble/libbtstack_central.a(ble_con.o)
                              ../../libs/ble/libbtstack_central.a(ll.o) (ble_con_start)
../../libs/ble/libbtstack_central.a(ble_buf.o)
                              ../../libs/ble/libbtstack_central.a(hct.o) (ble_buf_acl_tx_alloc)
../../libs/ble/libbtstack_central.a(bb_utils.o)
                              ../../libs/ble/libbtstack_central.a(ll_scan.o) (bb_rate_to_phy)
../../libs/ble/libbtstack_central.a(bb_int.o)
                              ../../libs/ble/libbtstack_central.a(btstack_api.o) (bb_sleep_init)
../../libs/ble/libbtstack_central.a(bb.o)
                              ../../libs/ble/libbtstack_central.a(btstack_api.o) (bb_var_init)
../../libs/ble/libbtstack_central.a(periph.o)
                              ../../libs/ble/libbtstack_central.a(btstack_hal.o) (bt_uart_init)
../../libs/ble/libbtstack_central.a(extern_ble.o)
                              ../../libs/ble/libbtstack_central.a(le_device_db_memory.o) (ble_sync_link_info)
../../libs/ble/libbtstack_central.a(l2cap.o)
                              ../../libs/ble/libbtstack_central.a(sm.o) (l2cap_request_can_send_fix_channel_now_event)
../../libs/ble/libbtstack_central.a(hci_dump.o)
                              ../../libs/ble/libbtstack_central.a(btstack_api.o) (hci_dump_open)
../../libs/ble/libbtstack_central.a(hci_cmd.o)
                              ../../libs/ble/libbtstack_central.a(hci.o) (hci_cmd_create_from_template)
../../libs/ble/libbtstack_central.a(btstack_run_loop.o)
                              ../../libs/ble/libbtstack_central.a(sm.o) (btstack_run_loop_set_timer_handler)
../../libs/ble/libbtstack_central.a(btstack_memory.o)
                              ../../libs/ble/libbtstack_central.a(gatt_client.o) (btstack_memory_gatt_client_get)
../../libs/ble/libbtstack_central.a(btstack_main.o)
                              ../../libs/ble/libbtstack_central.a(ble_api.o) (btstack_ble_set_init_callback)
../../libs/ble/libbtstack_central.a(nanos.o)
                              ../../libs/ble/libbtstack_central.a(bb.o) (nanos_init)
../../libs/ble/libbtstack_central.a(bb_sche.o)
                              ../../libs/ble/libbtstack_central.a(bb.o) (bb_sche_init)
../../libs/ble/libbtstack_central.a(patch.o)
                              ../../libs/ble/libbtstack_central.a(bb.o) (bb_patch_dummy)
../../libs/ble/libbtstack_central.a(bb_dbg.o)
                              ../../libs/ble/libbtstack_central.a(bb.o) (bb_dbg_init)
../../libs/ble/libbtstack_central.a(bb_clk.o)
                              ../../libs/ble/libbtstack_central.a(bb.o) (bb_lpcycles_2_hus_hook)
../../libs/ble/libbtstack_central.a(aes.o)
                              ../../libs/ble/libbtstack_central.a(bb.o) (aes_init)
../../libs/ble/libbtstack_central.a(extern.o)
                              ../../libs/ble/libbtstack_central.a(bb_int.o) (sys_sleep_cb)
../../libs/ble/libbtstack_central.a(vs.o)
                              ../../libs/ble/libbtstack_central.a(bb.o) (vs_init)
../../libs/ble/libbtstack_central.a(rf_mate.o)
                              ../../libs/ble/libbtstack_central.a(rf.o) (rfphy_sw_ctrl)
../../libs/ble/libbtstack_central.a(scan_hook.o)
                              ../../libs/ble/libbtstack_central.a(ll_scan.o) (ble_scan_end_ind_hook)
../../libs/ble/libbtstack_central.a(ble_hook.o)
                              ../../libs/ble/libbtstack_central.a(ble_hal.o) (ble_hal_init_hook)
../../libs/ble/libbtstack_central.a(hct_tl.o)
                              ../../libs/ble/libbtstack_central.a(bb_int.o) (hct_queue_is_empty)
../../libs/ble/libbtstack_central.a(hct_msg.o)
                              ../../libs/ble/libbtstack_central.a(hct.o) (hci_look_for_cmd_desc)
../../libs/ble/libbtstack_central.a(mgr_test.o)
                              ../../libs/ble/libbtstack_central.a(mgr_hci.o) (hci_le_rx_test_v1_cmd_func)
../../libs/ble/libbtstack_central.a(mgr_proc.o)
                              ../../libs/ble/libbtstack_central.a(mgr.o) (mgr_msg_env)
../../libs/ble/libbtstack_central.a(mgr_init.o)
                              ../../libs/ble/libbtstack_central.a(mgr_hci.o) (hci_le_create_con_cmd_func)
../../libs/ble/libbtstack_central.a(ll_proc.o)
                              ../../libs/ble/libbtstack_central.a(ll.o) (ll_msg_env)
../../libs/ble/libbtstack_central.a(ll_phy_upd.o)
                              ../../libs/ble/libbtstack_central.a(ll_proc.o) (ll_op_phy_upd_ind_func)
../../libs/ble/libbtstack_central.a(ll_length.o)
                              ../../libs/ble/libbtstack_central.a(ll_proc.o) (ll_op_length_upd_ind_func)
../../libs/ble/libbtstack_central.a(ll_feature.o)
                              ../../libs/ble/libbtstack_central.a(ll_proc.o) (ll_op_feats_exch_ind_func)
../../libs/ble/libbtstack_central.a(ll_encrypt.o)
                              ../../libs/ble/libbtstack_central.a(ll_proc.o) (hci_le_en_enc_cmd_func)
../../libs/ble/libbtstack_central.a(ll_disconnect.o)
                              ../../libs/ble/libbtstack_central.a(ll_proc.o) (ll_stopped_ind_func)
../../libs/ble/libbtstack_central.a(ll_con_upd.o)
                              ../../libs/ble/libbtstack_central.a(ll_proc.o) (hci_le_con_upd_cmd_func)
../../libs/ble/libbtstack_central.a(ll_cntl.o)
                              ../../libs/ble/libbtstack_central.a(ll_phy_upd.o) (ll_cntl_send)
../../libs/ble/libbtstack_central.a(ll_clk_acc.o)
                              ../../libs/ble/libbtstack_central.a(ll_cntl.o) (ll_clk_acc_req_func)
../../libs/ble/libbtstack_central.a(ll_chmap_upd.o)
                              ../../libs/ble/libbtstack_central.a(ll_cntl.o) (ll_channel_map_ind_func)
../../libs/ble/libbtstack_central.a(ble_test.o)
                              ../../libs/ble/libbtstack_central.a(mgr_test.o) (ble_test_start)
../../libs/ble/libbtstack_central.a(ble_scan.o)
                              ../../libs/ble/libbtstack_central.a(ble_hal.o) (ble_scan_init)
../../libs/ble/libbtstack_central.a(ble_init.o)
                              ../../libs/ble/libbtstack_central.a(ble_hal.o) (ble_init_init)
../../libs/ble/libbtstack_central.a(ble.o)
                              ../../libs/ble/libbtstack_central.a(bb.o) (ble_var_init)
../../libs/ble/libbtstack_central.a(bb_sleep.o)
                              ../../libs/ble/libbtstack_central.a(bb_int.o) (bb_sleep_suspend)
../../libs/ble/libbtstack_central.a(bb_alarm.o)
                              ../../libs/ble/libbtstack_central.a(bb.o) (bb_timer_init)
../../libs/ble/libbtstack_central.a(l2cap_signaling.o)
                              ../../libs/ble/libbtstack_central.a(l2cap.o) (l2cap_create_signaling_le)
../../libs/ble/libbtstack_central.a(btstack_memory_pool.o)
                              ../../libs/ble/libbtstack_central.a(btstack_memory.o) (btstack_memory_pool_get)
../../libs/ble/libbtstack_central.a(patch_asm.o)
                              ../../libs/ble/libbtstack_central.a(patch.o) (bb_patch2)
../../libs/ble/libbtstack_central.a(vs_proc.o)
                              ../../libs/ble/libbtstack_central.a(vs.o) (vs_env)
../../libs/ble/libbtstack_central.a(vs_fcc.o)
                              ../../libs/ble/libbtstack_central.a(vs_proc.o) (vs_fcc_test_cmd)
../../libs/ble/libbtstack_central.a(ll_version.o)
                              ../../libs/ble/libbtstack_central.a(ll_cntl.o) (ll_version_ind_func)
../../libs/ble/libbtstack_central.a(ble_sync.o)
                              ../../libs/ble/libbtstack_central.a(ble.o) (ble_get_sync_var)

Allocating common symbols
Common symbol       size              file

tmr5ms_cnt          0x2               client_output/obj/bsp/bsp_sys.o
ble_user_cb         0x304             client_output/obj/ble/ble_user_service.o
server_info         0x2a8             client_output/obj/ble/ble_client.o
REPORT_TYPE         0x4               client_output/obj/ble/ble_client.o
xcfg_cb             0x33              client_output/obj/bsp/bsp_sys.o

Discarded input sections

 .text          0x0000000000000000        0x0 client_output/obj/driver/driver_clk.o
 .data          0x0000000000000000        0x0 client_output/obj/driver/driver_clk.o
 .bss           0x0000000000000000        0x0 client_output/obj/driver/driver_clk.o
 .text.clk_gate1_cmd
                0x0000000000000000       0x16 client_output/obj/driver/driver_clk.o
 .text.clk_gate2_cmd
                0x0000000000000000       0x16 client_output/obj/driver/driver_clk.o
 .text.clk_clkout_set
                0x0000000000000000       0x4e client_output/obj/driver/driver_clk.o
 .text.clk_clk32k_rtc_set
                0x0000000000000000       0x28 client_output/obj/driver/driver_clk.o
 .text.clk_clk32k_rtc_get
                0x0000000000000000       0x46 client_output/obj/driver/driver_clk.o
 .text.clk_hsut0_clk_set
                0x0000000000000000       0x18 client_output/obj/driver/driver_clk.o
 .text.clk_hsut0_clk_get
                0x0000000000000000       0x1e client_output/obj/driver/driver_clk.o
 .text.clk_saradc_clk_set
                0x0000000000000000       0x18 client_output/obj/driver/driver_clk.o
 .text.clk_saradc_clk_get
                0x0000000000000000       0x3e client_output/obj/driver/driver_clk.o
 .text.clk_clk2m_ks_set
                0x0000000000000000       0x2e client_output/obj/driver/driver_clk.o
 .text.clk_clk2m_ks_get
                0x0000000000000000       0x3e client_output/obj/driver/driver_clk.o
 .text.clk_ledc_clk_set
                0x0000000000000000       0x18 client_output/obj/driver/driver_clk.o
 .text.clk_ledc_clk_get
                0x0000000000000000       0x24 client_output/obj/driver/driver_clk.o
 .text.clk_irtx_mod_clk_set
                0x0000000000000000       0x16 client_output/obj/driver/driver_clk.o
 .text.clk_irtx_mod_clk_get
                0x0000000000000000       0x24 client_output/obj/driver/driver_clk.o
 .text.clk_irrx_clk_set
                0x0000000000000000       0x16 client_output/obj/driver/driver_clk.o
 .text.clk_irtx_clk_set
                0x0000000000000000        0x8 client_output/obj/driver/driver_clk.o
 .text.clk_irrx_clk_get
                0x0000000000000000       0x34 client_output/obj/driver/driver_clk.o
 .text.clk_irtx_clk_get
                0x0000000000000000        0x8 client_output/obj/driver/driver_clk.o
 .rodata        0x0000000000000000       0x20 client_output/obj/driver/driver_clk.o
 .text          0x0000000000000000        0x0 client_output/obj/driver/driver_gpio.o
 .data          0x0000000000000000        0x0 client_output/obj/driver/driver_gpio.o
 .bss           0x0000000000000000        0x0 client_output/obj/driver/driver_gpio.o
 .text.gpio_deinit
                0x0000000000000000       0x10 client_output/obj/driver/driver_gpio.o
 .com_periph.gpio.dir
                0x0000000000000000       0x12 client_output/obj/driver/driver_gpio.o
 .com_periph.gpio.set
                0x0000000000000000        0x4 client_output/obj/driver/driver_gpio.o
 .com_periph.gpio.reset
                0x0000000000000000        0x4 client_output/obj/driver/driver_gpio.o
 .com_periph.gpio.write
                0x0000000000000000        0x4 client_output/obj/driver/driver_gpio.o
 .com_periph.gpio.toggle
                0x0000000000000000        0x8 client_output/obj/driver/driver_gpio.o
 .com_periph.gpio.read_data
                0x0000000000000000        0x8 client_output/obj/driver/driver_gpio.o
 .com_periph.gpio.read_bit
                0x0000000000000000        0xa client_output/obj/driver/driver_gpio.o
 .text.gpio_func_mapping_clear
                0x0000000000000000       0x7e client_output/obj/driver/driver_gpio.o
 .com_periph.wk0.read_bit
                0x0000000000000000        0xa client_output/obj/driver/driver_gpio.o
 .text.gpio_edge_capture_config_custom
                0x0000000000000000      0x116 client_output/obj/driver/driver_gpio.o
 .text.gpio_set_reset_pin
                0x0000000000000000       0x4c client_output/obj/driver/driver_gpio.o
 .text.gpio_get_edge_pin
                0x0000000000000000        0x8 client_output/obj/driver/driver_gpio.o
 .com_periph.gpio.rise.src
                0x0000000000000000        0x8 client_output/obj/driver/driver_gpio.o
 .com_periph.gpio.fall.src
                0x0000000000000000        0xc client_output/obj/driver/driver_gpio.o
 .com_periph.gpio.pending_clr
                0x0000000000000000        0xc client_output/obj/driver/driver_gpio.o
 .com_periph.gpio.pending_is
                0x0000000000000000       0x12 client_output/obj/driver/driver_gpio.o
 .text.gpio_edge_pic_config
                0x0000000000000000       0x54 client_output/obj/driver/driver_gpio.o
 .text          0x0000000000000000        0x0 client_output/obj/driver/driver_hsuart.o
 .data          0x0000000000000000        0x0 client_output/obj/driver/driver_hsuart.o
 .bss           0x0000000000000000        0x0 client_output/obj/driver/driver_hsuart.o
 .text.hsuart_init
                0x0000000000000000       0xa0 client_output/obj/driver/driver_hsuart.o
 .text.hsuart_deinit
                0x0000000000000000       0x14 client_output/obj/driver/driver_hsuart.o
 .text.hsuart_cmd
                0x0000000000000000       0x16 client_output/obj/driver/driver_hsuart.o
 .com_periph.hsuart.send
                0x0000000000000000       0x1a client_output/obj/driver/driver_hsuart.o
 .com_periph.hsuart.recv
                0x0000000000000000        0xa client_output/obj/driver/driver_hsuart.o
 .com_periph.hsuart.receive_data
                0x0000000000000000       0x44 client_output/obj/driver/driver_hsuart.o
 .com_periph.hsuart.fifo_get
                0x0000000000000000        0xa client_output/obj/driver/driver_hsuart.o
 .text.hsuart_clear_fifo_counter
                0x0000000000000000        0xe client_output/obj/driver/driver_hsuart.o
 .text.hsuart_baud_config
                0x0000000000000000       0x2c client_output/obj/driver/driver_hsuart.o
 .text.hsuart_pic_config
                0x0000000000000000       0x92 client_output/obj/driver/driver_hsuart.o
 .com_periph.hsuart.get_flag
                0x0000000000000000       0x3e client_output/obj/driver/driver_hsuart.o
 .com_periph.hsuart.clear
                0x0000000000000000       0x38 client_output/obj/driver/driver_hsuart.o
 .text.hsuart_rx_idle_config
                0x0000000000000000       0x1e client_output/obj/driver/driver_hsuart.o
 .com_periph.hsuart.dma
                0x0000000000000000       0x20 client_output/obj/driver/driver_hsuart.o
 .com_periph.hsuart.stop
                0x0000000000000000       0x18 client_output/obj/driver/driver_hsuart.o
 .com_periph.hsuart.hfc
                0x0000000000000000       0x32 client_output/obj/driver/driver_hsuart.o
 .comment       0x0000000000000000       0x12 client_output/obj/driver/driver_hsuart.o
 .text          0x0000000000000000        0x0 client_output/obj/driver/driver_keyscan.o
 .data          0x0000000000000000        0x0 client_output/obj/driver/driver_keyscan.o
 .bss           0x0000000000000000        0x0 client_output/obj/driver/driver_keyscan.o
 .text.keyscan_init
                0x0000000000000000       0xde client_output/obj/driver/driver_keyscan.o
 .text.keyscan_deinit
                0x0000000000000000        0xc client_output/obj/driver/driver_keyscan.o
 .com_periph.keyscan.en_ctrl
                0x0000000000000000       0x16 client_output/obj/driver/driver_keyscan.o
 .text.keyscan_pic_config
                0x0000000000000000       0x3a client_output/obj/driver/driver_keyscan.o
 .com_periph.keyscan.flag
                0x0000000000000000       0x44 client_output/obj/driver/driver_keyscan.o
 .com_periph.keyscan.query
                0x0000000000000000       0xca client_output/obj/driver/driver_keyscan.o
 .com_periph.keyscan.lowpwr_mode
                0x0000000000000000        0xc client_output/obj/driver/driver_keyscan.o
 .comment       0x0000000000000000       0x12 client_output/obj/driver/driver_keyscan.o
 .text          0x0000000000000000        0x0 client_output/obj/driver/driver_ledc.o
 .data          0x0000000000000000        0x0 client_output/obj/driver/driver_ledc.o
 .bss           0x0000000000000000        0x0 client_output/obj/driver/driver_ledc.o
 .text.ledc_init
                0x0000000000000000       0x3c client_output/obj/driver/driver_ledc.o
 .text.ledc_timing_init
                0x0000000000000000       0x5c client_output/obj/driver/driver_ledc.o
 .text.ledc_deinit
                0x0000000000000000       0x20 client_output/obj/driver/driver_ledc.o
 .text.ledc_cmd
                0x0000000000000000       0x16 client_output/obj/driver/driver_ledc.o
 .com_periph.ledc.transport
                0x0000000000000000       0x20 client_output/obj/driver/driver_ledc.o
 .text.ledc_pic_config
                0x0000000000000000       0x44 client_output/obj/driver/driver_ledc.o
 .com_periph.ledc.flag
                0x0000000000000000       0x42 client_output/obj/driver/driver_ledc.o
 .text.ledc_set_frame_length
                0x0000000000000000        0xe client_output/obj/driver/driver_ledc.o
 .text.ledc_set_loop_number
                0x0000000000000000        0xc client_output/obj/driver/driver_ledc.o
 .text.ledc_get_frame_length
                0x0000000000000000       0x10 client_output/obj/driver/driver_ledc.o
 .text.ledc_get_loop_number
                0x0000000000000000        0xc client_output/obj/driver/driver_ledc.o
 .comment       0x0000000000000000       0x12 client_output/obj/driver/driver_ledc.o
 .text          0x0000000000000000        0x0 client_output/obj/driver/driver_lowpwr.o
 .data          0x0000000000000000        0x0 client_output/obj/driver/driver_lowpwr.o
 .bss           0x0000000000000000       0x5c client_output/obj/driver/driver_lowpwr.o
 .com_sleep.sys
                0x0000000000000000       0x8e client_output/obj/driver/driver_lowpwr.o
 .com_sleep.lp_proc
                0x0000000000000000       0xc6 client_output/obj/driver/driver_lowpwr.o
 .com_sleep.lp_wakeup
                0x0000000000000000      0x146 client_output/obj/driver/driver_lowpwr.o
 .text.lowpwr_clr_wakeup_pending
                0x0000000000000000       0x1c client_output/obj/driver/driver_lowpwr.o
 .text.lowpwr_gpio_wakeup_config_custom
                0x0000000000000000       0x4a client_output/obj/driver/driver_lowpwr.o
 .text.lowpwr_wakeup_source_enable
                0x0000000000000000       0x7c client_output/obj/driver/driver_lowpwr.o
 .text.lowpwr_wakeup_source_disable
                0x0000000000000000       0x92 client_output/obj/driver/driver_lowpwr.o
 .com_pwroff.mode1
                0x0000000000000000       0xba client_output/obj/driver/driver_lowpwr.o
 .com_sleep.sfr_save
                0x0000000000000000        0x2 client_output/obj/driver/driver_lowpwr.o
 .com_sleep.sfr_resume
                0x0000000000000000        0x2 client_output/obj/driver/driver_lowpwr.o
 .com_sleep.proc_do
                0x0000000000000000       0xb4 client_output/obj/driver/driver_lowpwr.o
 .com_sleep.sleep
                0x0000000000000000        0x8 client_output/obj/driver/driver_lowpwr.o
 .text          0x0000000000000000        0x0 client_output/obj/driver/driver_pwm.o
 .data          0x0000000000000000        0x0 client_output/obj/driver/driver_pwm.o
 .bss           0x0000000000000000        0x0 client_output/obj/driver/driver_pwm.o
 .text.tmrp_base_init
                0x0000000000000000      0x114 client_output/obj/driver/driver_pwm.o
 .text.tmrp_deinit
                0x0000000000000000       0x10 client_output/obj/driver/driver_pwm.o
 .text.tmrp_open_pwm
                0x0000000000000000       0x1a client_output/obj/driver/driver_pwm.o
 .text.tmrp_close_pwm
                0x0000000000000000       0x12 client_output/obj/driver/driver_pwm.o
 .text.tmrp_set_counter
                0x0000000000000000        0x4 client_output/obj/driver/driver_pwm.o
 .text.tmrp_set_duty
                0x0000000000000000       0x4c client_output/obj/driver/driver_pwm.o
 .text.tmrp_set_period
                0x0000000000000000        0x4 client_output/obj/driver/driver_pwm.o
 .text.tmrp_set_g2period
                0x0000000000000000        0x4 client_output/obj/driver/driver_pwm.o
 .text.tmrp_get_counter
                0x0000000000000000        0x4 client_output/obj/driver/driver_pwm.o
 .text.tmrp_get_period
                0x0000000000000000        0x4 client_output/obj/driver/driver_pwm.o
 .text.tmrp_get_g2period
                0x0000000000000000        0x4 client_output/obj/driver/driver_pwm.o
 .text.tmrp_cmd
                0x0000000000000000       0x10 client_output/obj/driver/driver_pwm.o
 .text.tmrp_pic_config
                0x0000000000000000       0x32 client_output/obj/driver/driver_pwm.o
 .com_periph.tmr.get
                0x0000000000000000       0x18 client_output/obj/driver/driver_pwm.o
 .com_periph.tmr.clear
                0x0000000000000000       0x16 client_output/obj/driver/driver_pwm.o
 .comment       0x0000000000000000       0x12 client_output/obj/driver/driver_pwm.o
 .text          0x0000000000000000        0x0 client_output/obj/driver/driver_rtc.o
 .data          0x0000000000000000        0x0 client_output/obj/driver/driver_rtc.o
 .bss           0x0000000000000000        0x0 client_output/obj/driver/driver_rtc.o
 .com_periph.rtc.cnt_set
                0x0000000000000000        0x8 client_output/obj/driver/driver_rtc.o
 .com_periph.rtc.cnt_get
                0x0000000000000000        0x8 client_output/obj/driver/driver_rtc.o
 .com_periph.rtc.alarm_set
                0x0000000000000000        0x8 client_output/obj/driver/driver_rtc.o
 .com_periph.rtc.alarm_get
                0x0000000000000000        0x8 client_output/obj/driver/driver_rtc.o
 .text.rtc_prescale_set
                0x0000000000000000       0x16 client_output/obj/driver/driver_rtc.o
 .text.rtc_prescale_get
                0x0000000000000000        0xc client_output/obj/driver/driver_rtc.o
 .text.rtc_pic_config
                0x0000000000000000       0x90 client_output/obj/driver/driver_rtc.o
 .com_periph.rct.get
                0x0000000000000000       0x36 client_output/obj/driver/driver_rtc.o
 .com_periph.rct.clear
                0x0000000000000000       0x1a client_output/obj/driver/driver_rtc.o
 .comment       0x0000000000000000       0x12 client_output/obj/driver/driver_rtc.o
 .text          0x0000000000000000        0x0 client_output/obj/driver/driver_saradc.o
 .data          0x0000000000000000        0x0 client_output/obj/driver/driver_saradc.o
 .bss           0x0000000000000000        0x0 client_output/obj/driver/driver_saradc.o
 .text.saradc_mic_init
                0x0000000000000000       0x64 client_output/obj/driver/driver_saradc.o
 .text.saradc_mic_cmd
                0x0000000000000000       0x1a client_output/obj/driver/driver_saradc.o
 .text.saradc_mic_dma_cmd
                0x0000000000000000       0x38 client_output/obj/driver/driver_saradc.o
 .text.saradc_init
                0x0000000000000000       0x88 client_output/obj/driver/driver_saradc.o
 .text.saradc_add_channel
                0x0000000000000000      0x12a client_output/obj/driver/driver_saradc.o
 .text.saradc_remove_channel
                0x0000000000000000       0xac client_output/obj/driver/driver_saradc.o
 .text.saradc_cmd
                0x0000000000000000       0x16 client_output/obj/driver/driver_saradc.o
 .com_periph.saradc.kick
                0x0000000000000000       0x2e client_output/obj/driver/driver_saradc.o
 .text.saradc_set_baud
                0x0000000000000000       0x2e client_output/obj/driver/driver_saradc.o
 .text.saradc_pic_config
                0x0000000000000000       0x70 client_output/obj/driver/driver_saradc.o
 .com_periph.saradc.get
                0x0000000000000000       0x3a client_output/obj/driver/driver_saradc.o
 .com_periph.saradc.clear
                0x0000000000000000       0x2e client_output/obj/driver/driver_saradc.o
 .com_text.saradc.done
                0x0000000000000000       0x34 client_output/obj/driver/driver_saradc.o
 .com_periph.saradc.get_data
                0x0000000000000000       0xa0 client_output/obj/driver/driver_saradc.o
 .text          0x0000000000000000        0x0 client_output/obj/driver/driver_spi.o
 .data          0x0000000000000000        0x0 client_output/obj/driver/driver_spi.o
 .bss           0x0000000000000000        0x0 client_output/obj/driver/driver_spi.o
 .text.spi_init
                0x0000000000000000       0x50 client_output/obj/driver/driver_spi.o
 .text.spi_deinit
                0x0000000000000000       0x1c client_output/obj/driver/driver_spi.o
 .text.spi_cmd  0x0000000000000000       0x10 client_output/obj/driver/driver_spi.o
 .text.spi_dir_sel
                0x0000000000000000       0x16 client_output/obj/driver/driver_spi.o
 .text.spi_it_cmd
                0x0000000000000000       0x12 client_output/obj/driver/driver_spi.o
 .text.spi_lfsr_cmd
                0x0000000000000000       0x12 client_output/obj/driver/driver_spi.o
 .text.spi_multi_bit_bus_cmd
                0x0000000000000000       0x12 client_output/obj/driver/driver_spi.o
 .text.spi_hold_rx_cmd
                0x0000000000000000       0x12 client_output/obj/driver/driver_spi.o
 .text.spi_hold_tx_cmd
                0x0000000000000000       0x12 client_output/obj/driver/driver_spi.o
 .text.spi_soft_hold_cmd
                0x0000000000000000       0x12 client_output/obj/driver/driver_spi.o
 .com_periph.spi.get
                0x0000000000000000        0xa client_output/obj/driver/driver_spi.o
 .com_periph.spi.clear
                0x0000000000000000        0x8 client_output/obj/driver/driver_spi.o
 .text.spi_set_dma_cnt
                0x0000000000000000        0x4 client_output/obj/driver/driver_spi.o
 .text.spi_set_dma_addr
                0x0000000000000000        0x4 client_output/obj/driver/driver_spi.o
 .text.spi_receive_data
                0x0000000000000000        0x8 client_output/obj/driver/driver_spi.o
 .text.spi_send_data
                0x0000000000000000        0x4 client_output/obj/driver/driver_spi.o
 .comment       0x0000000000000000       0x12 client_output/obj/driver/driver_spi.o
 .text          0x0000000000000000        0x0 client_output/obj/driver/driver_tmr.o
 .data          0x0000000000000000        0x0 client_output/obj/driver/driver_tmr.o
 .bss           0x0000000000000000        0x0 client_output/obj/driver/driver_tmr.o
 .text.tmr_base_init
                0x0000000000000000       0x50 client_output/obj/driver/driver_tmr.o
 .text.tmr_deinit
                0x0000000000000000       0x54 client_output/obj/driver/driver_tmr.o
 .text.tmr_set_counter
                0x0000000000000000        0x4 client_output/obj/driver/driver_tmr.o
 .text.tmr_set_period
                0x0000000000000000        0x4 client_output/obj/driver/driver_tmr.o
 .text.tmr_get_counter
                0x0000000000000000        0x4 client_output/obj/driver/driver_tmr.o
 .text.tmr_get_period
                0x0000000000000000        0x4 client_output/obj/driver/driver_tmr.o
 .text.tmr_cmd  0x0000000000000000       0x10 client_output/obj/driver/driver_tmr.o
 .text.tmr_get_capture
                0x0000000000000000       0x1c client_output/obj/driver/driver_tmr.o
 .text.tmr_pic_config
                0x0000000000000000       0x78 client_output/obj/driver/driver_tmr.o
 .com_periph.tmr.get
                0x0000000000000000       0x52 client_output/obj/driver/driver_tmr.o
 .com_periph.tmr.clear
                0x0000000000000000       0x3a client_output/obj/driver/driver_tmr.o
 .comment       0x0000000000000000       0x12 client_output/obj/driver/driver_tmr.o
 .text          0x0000000000000000        0x0 client_output/obj/driver/driver_uart.o
 .data          0x0000000000000000        0x0 client_output/obj/driver/driver_uart.o
 .bss           0x0000000000000000        0x0 client_output/obj/driver/driver_uart.o
 .text.uart_deinit
                0x0000000000000000        0xe client_output/obj/driver/driver_uart.o
 .com_periph.uart.send
                0x0000000000000000        0x8 client_output/obj/driver/driver_uart.o
 .com_periph.uart.recv
                0x0000000000000000       0x14 client_output/obj/driver/driver_uart.o
 .text.uart_pic_config
                0x0000000000000000       0x5c client_output/obj/driver/driver_uart.o
 .com_periph.uart.get_flag
                0x0000000000000000       0x18 client_output/obj/driver/driver_uart.o
 .com_periph.uart.clear_flag
                0x0000000000000000       0x2a client_output/obj/driver/driver_uart.o
 .text          0x0000000000000000        0x0 client_output/obj/driver/driver_wdt.o
 .data          0x0000000000000000        0x0 client_output/obj/driver/driver_wdt.o
 .bss           0x0000000000000000        0x0 client_output/obj/driver/driver_wdt.o
 .text.wdt_cmd  0x0000000000000000       0x18 client_output/obj/driver/driver_wdt.o
 .text.wdt_reset_cmd
                0x0000000000000000       0x1e client_output/obj/driver/driver_wdt.o
 .text.wdt_it_cmd
                0x0000000000000000       0x16 client_output/obj/driver/driver_wdt.o
 .text.wdt_clk_select
                0x0000000000000000       0x1a client_output/obj/driver/driver_wdt.o
 .text.wdt_time_select
                0x0000000000000000       0x1a client_output/obj/driver/driver_wdt.o
 .text.wdt_get_flag
                0x0000000000000000        0x8 client_output/obj/driver/driver_wdt.o
 .text.wdt_clear
                0x0000000000000000        0xe client_output/obj/driver/driver_wdt.o
 .comment       0x0000000000000000       0x12 client_output/obj/driver/driver_wdt.o
 .text          0x0000000000000000        0x0 client_output/obj/app/func.o
 .data          0x0000000000000000        0x0 client_output/obj/app/func.o
 .bss           0x0000000000000000        0x0 client_output/obj/app/func.o
 .text          0x0000000000000000        0x0 client_output/obj/app/func_bt.o
 .data          0x0000000000000000        0x0 client_output/obj/app/func_bt.o
 .bss           0x0000000000000000        0x0 client_output/obj/app/func_bt.o
 .text          0x0000000000000000        0x0 client_output/obj/app/func_idle.o
 .data          0x0000000000000000        0x0 client_output/obj/app/func_idle.o
 .bss           0x0000000000000000        0x0 client_output/obj/app/func_idle.o
 .text          0x0000000000000000        0x0 client_output/obj/app/func_iodm.o
 .data          0x0000000000000000        0x0 client_output/obj/app/func_iodm.o
 .bss           0x0000000000000000        0x0 client_output/obj/app/func_iodm.o
 .comment       0x0000000000000000       0x12 client_output/obj/app/func_iodm.o
 .text          0x0000000000000000        0x0 client_output/obj/app/func_le_bqb_rf.o
 .data          0x0000000000000000        0x0 client_output/obj/app/func_le_bqb_rf.o
 .bss           0x0000000000000000        0x0 client_output/obj/app/func_le_bqb_rf.o
 .comment       0x0000000000000000       0x12 client_output/obj/app/func_le_bqb_rf.o
 .text          0x0000000000000000        0x0 client_output/obj/app/func_le_fcc.o
 .data          0x0000000000000000        0x0 client_output/obj/app/func_le_fcc.o
 .bss           0x0000000000000000        0x0 client_output/obj/app/func_le_fcc.o
 .comment       0x0000000000000000       0x12 client_output/obj/app/func_le_fcc.o
 .text          0x0000000000000000        0x0 client_output/obj/app/func_lowpwr.o
 .data          0x0000000000000000        0x0 client_output/obj/app/func_lowpwr.o
 .bss           0x0000000000000000        0x0 client_output/obj/app/func_lowpwr.o
 .com_text.sleep_tick
                0x0000000000000000        0x2 client_output/obj/app/func_lowpwr.o
 .text          0x0000000000000000        0x0 client_output/obj/app/func_tbox.o
 .data          0x0000000000000000        0x0 client_output/obj/app/func_tbox.o
 .bss           0x0000000000000000        0x0 client_output/obj/app/func_tbox.o
 .comment       0x0000000000000000       0x12 client_output/obj/app/func_tbox.o
 .text          0x0000000000000000        0x0 client_output/obj/ble/ble_adv.o
 .data          0x0000000000000000        0x0 client_output/obj/ble/ble_adv.o
 .bss           0x0000000000000000        0x0 client_output/obj/ble/ble_adv.o
 .text.ble_get_scan_data
                0x0000000000000000       0x72 client_output/obj/ble/ble_adv.o
 .text.ble_get_adv_data
                0x0000000000000000       0xa2 client_output/obj/ble/ble_adv.o
 .text.ble_adv_param_init
                0x0000000000000000       0x6e client_output/obj/ble/ble_adv.o
 .rodata.adv    0x0000000000000000        0x7 client_output/obj/ble/ble_adv.o
 .rodata.scan   0x0000000000000000        0x0 client_output/obj/ble/ble_adv.o
 .rodata.str1.4
                0x0000000000000000       0x2c client_output/obj/ble/ble_adv.o
 .comment       0x0000000000000000       0x12 client_output/obj/ble/ble_adv.o
 .text          0x0000000000000000        0x0 client_output/obj/ble/ble_alarm.o
 .data          0x0000000000000000        0x0 client_output/obj/ble/ble_alarm.o
 .bss           0x0000000000000000        0x0 client_output/obj/ble/ble_alarm.o
 .comment       0x0000000000000000       0x12 client_output/obj/ble/ble_alarm.o
 .text          0x0000000000000000        0x0 client_output/obj/ble/ble_client.o
 .data          0x0000000000000000        0x0 client_output/obj/ble/ble_client.o
 .text.ble_scan_en_test
                0x0000000000000000       0x42 client_output/obj/ble/ble_client.o
 .text.ble_write_test
                0x0000000000000000       0x86 client_output/obj/ble/ble_client.o
 .text.ble_write_to_server
                0x0000000000000000       0x80 client_output/obj/ble/ble_client.o
 .text.ble_read_test
                0x0000000000000000       0x76 client_output/obj/ble/ble_client.o
 .rodata        0x0000000000000000       0x14 client_output/obj/ble/ble_client.o
 .sdata         0x0000000000000000        0x5 client_output/obj/ble/ble_client.o
 .text          0x0000000000000000        0x0 client_output/obj/ble/ble_fota_service.o
 .data          0x0000000000000000        0x0 client_output/obj/ble/ble_fota_service.o
 .bss           0x0000000000000000        0x0 client_output/obj/ble/ble_fota_service.o
 .comment       0x0000000000000000       0x12 client_output/obj/ble/ble_fota_service.o
 .text          0x0000000000000000        0x0 client_output/obj/ble/ble_init.o
 .data          0x0000000000000000        0x0 client_output/obj/ble/ble_init.o
 .bss           0x0000000000000000        0x0 client_output/obj/ble/ble_init.o
 .text.ble_get_work_mode
                0x0000000000000000        0xa client_output/obj/ble/ble_init.o
 .text.ble_sm_param_init
                0x0000000000000000        0xe client_output/obj/ble/ble_init.o
 .text.ble_periph_init
                0x0000000000000000       0x42 client_output/obj/ble/ble_init.o
 .text          0x0000000000000000        0x0 client_output/obj/ble/ble_proc.o
 .data          0x0000000000000000        0x0 client_output/obj/ble/ble_proc.o
 .bss           0x0000000000000000        0x0 client_output/obj/ble/ble_proc.o
 .text.ble_enter_sleep_proc
                0x0000000000000000       0x6a client_output/obj/ble/ble_proc.o
 .text.ble_exit_sleep_proc
                0x0000000000000000       0x2e client_output/obj/ble/ble_proc.o
 .com_sleep.ble.sleep
                0x0000000000000000        0x4 client_output/obj/ble/ble_proc.o
 .sbss          0x0000000000000000        0x8 client_output/obj/ble/ble_proc.o
 .text          0x0000000000000000        0x0 client_output/obj/ble/ble_profile.o
 .data          0x0000000000000000        0x0 client_output/obj/ble/ble_profile.o
 .bss           0x0000000000000000        0x0 client_output/obj/ble/ble_profile.o
 .text.ble_get_profile_data
                0x0000000000000000        0xa client_output/obj/ble/ble_profile.o
 .rodata        0x0000000000000000       0x40 client_output/obj/ble/ble_profile.o
 .comment       0x0000000000000000       0x12 client_output/obj/ble/ble_profile.o
 .text          0x0000000000000000        0x0 client_output/obj/ble/ble_service.o
 .data          0x0000000000000000        0x0 client_output/obj/ble/ble_service.o
 .bss           0x0000000000000000        0x0 client_output/obj/ble/ble_service.o
 .text.ble_service_init
                0x0000000000000000       0x28 client_output/obj/ble/ble_service.o
 .rodata.str1.4
                0x0000000000000000       0x12 client_output/obj/ble/ble_service.o
 .comment       0x0000000000000000       0x12 client_output/obj/ble/ble_service.o
 .text          0x0000000000000000        0x0 client_output/obj/ble/ble_user_service.o
 .data          0x0000000000000000        0x0 client_output/obj/ble/ble_user_service.o
 .bss           0x0000000000000000       0x14 client_output/obj/ble/ble_user_service.o
 .text.ble_event_callback
                0x0000000000000000       0xf0 client_output/obj/ble/ble_user_service.o
 .text.service_read_callback
                0x0000000000000000       0x72 client_output/obj/ble/ble_user_service.o
 .text.service_write_callback
                0x0000000000000000       0x66 client_output/obj/ble/ble_user_service.o
 .com_sleep.ble.sleep
                0x0000000000000000        0xa client_output/obj/ble/ble_user_service.o
 .text.service_notify_event
                0x0000000000000000       0x50 client_output/obj/ble/ble_user_service.o
 .text.ble_user_service_init
                0x0000000000000000       0x66 client_output/obj/ble/ble_user_service.o
 .text.app.proc.ble
                0x0000000000000000       0x86 client_output/obj/ble/ble_user_service.o
 .rodata.str1.4
                0x0000000000000000       0xeb client_output/obj/ble/ble_user_service.o
 .sbss          0x0000000000000000        0x2 client_output/obj/ble/ble_user_service.o
 .comment       0x0000000000000000       0x12 client_output/obj/ble/ble_user_service.o
 COMMON         0x0000000000000000      0x304 client_output/obj/ble/ble_user_service.o
 .text          0x0000000000000000        0x0 client_output/obj/bsp/bsp_huart.o
 .data          0x0000000000000000        0x0 client_output/obj/bsp/bsp_huart.o
 .bss           0x0000000000000000        0x0 client_output/obj/bsp/bsp_huart.o
 .comment       0x0000000000000000       0x12 client_output/obj/bsp/bsp_huart.o
 .text          0x0000000000000000        0x0 client_output/obj/bsp/bsp_huart_iodm.o
 .data          0x0000000000000000        0x0 client_output/obj/bsp/bsp_huart_iodm.o
 .bss           0x0000000000000000        0x0 client_output/obj/bsp/bsp_huart_iodm.o
 .comment       0x0000000000000000       0x12 client_output/obj/bsp/bsp_huart_iodm.o
 .text          0x0000000000000000        0x0 client_output/obj/bsp/bsp_io_key.o
 .data          0x0000000000000000        0x0 client_output/obj/bsp/bsp_io_key.o
 .bss           0x0000000000000000        0x0 client_output/obj/bsp/bsp_io_key.o
 .comment       0x0000000000000000       0x12 client_output/obj/bsp/bsp_io_key.o
 .text          0x0000000000000000        0x0 client_output/obj/bsp/bsp_key.o
 .data          0x0000000000000000        0x0 client_output/obj/bsp/bsp_key.o
 .bss           0x0000000000000000        0x0 client_output/obj/bsp/bsp_key.o
 .comment       0x0000000000000000       0x12 client_output/obj/bsp/bsp_key.o
 .text          0x0000000000000000        0x0 client_output/obj/bsp/bsp_param.o
 .data          0x0000000000000000        0x0 client_output/obj/bsp/bsp_param.o
 .bss           0x0000000000000000        0x0 client_output/obj/bsp/bsp_param.o
 .text.bsp.param.fota
                0x0000000000000000       0xa8 client_output/obj/bsp/bsp_param.o
 .text          0x0000000000000000        0x0 client_output/obj/bsp/bsp_saradc.o
 .data          0x0000000000000000        0x0 client_output/obj/bsp/bsp_saradc.o
 .bss           0x0000000000000000        0x0 client_output/obj/bsp/bsp_saradc.o
 .comment       0x0000000000000000       0x12 client_output/obj/bsp/bsp_saradc.o
 .text          0x0000000000000000        0x0 client_output/obj/bsp/bsp_saradc_key.o
 .data          0x0000000000000000        0x0 client_output/obj/bsp/bsp_saradc_key.o
 .bss           0x0000000000000000        0x0 client_output/obj/bsp/bsp_saradc_key.o
 .comment       0x0000000000000000       0x12 client_output/obj/bsp/bsp_saradc_key.o
 .text          0x0000000000000000        0x0 client_output/obj/bsp/bsp_saradc_tsen.o
 .data          0x0000000000000000        0x0 client_output/obj/bsp/bsp_saradc_tsen.o
 .bss           0x0000000000000000        0x0 client_output/obj/bsp/bsp_saradc_tsen.o
 .comment       0x0000000000000000       0x12 client_output/obj/bsp/bsp_saradc_tsen.o
 .text          0x0000000000000000        0x0 client_output/obj/bsp/bsp_saradc_vbat.o
 .data          0x0000000000000000        0x0 client_output/obj/bsp/bsp_saradc_vbat.o
 .bss           0x0000000000000000        0x0 client_output/obj/bsp/bsp_saradc_vbat.o
 .comment       0x0000000000000000       0x12 client_output/obj/bsp/bsp_saradc_vbat.o
 .text          0x0000000000000000        0x0 client_output/obj/bsp/bsp_sys.o
 .data          0x0000000000000000        0x0 client_output/obj/bsp/bsp_sys.o
 .bss           0x0000000000000000        0x0 client_output/obj/bsp/bsp_sys.o
 .com_text.timer
                0x0000000000000000       0x6a client_output/obj/bsp/bsp_sys.o
 .text.power_on_check
                0x0000000000000000        0x2 client_output/obj/bsp/bsp_sys.o
 .text.bsp_periph_init
                0x0000000000000000        0x8 client_output/obj/bsp/bsp_sys.o
 .text          0x0000000000000000        0x0 client_output/obj/bsp/bsp_uart_debug.o
 .data          0x0000000000000000        0x0 client_output/obj/bsp/bsp_uart_debug.o
 .bss           0x0000000000000000        0x0 client_output/obj/bsp/bsp_uart_debug.o
 .text          0x0000000000000000        0x0 client_output/obj/bsp/bsp_uart_transfer.o
 .data          0x0000000000000000        0x0 client_output/obj/bsp/bsp_uart_transfer.o
 .bss           0x0000000000000000        0x0 client_output/obj/bsp/bsp_uart_transfer.o
 .comment       0x0000000000000000       0x12 client_output/obj/bsp/bsp_uart_transfer.o
 .text          0x0000000000000000        0x0 client_output/obj/prod_test/prod_test.o
 .data          0x0000000000000000        0x0 client_output/obj/prod_test/prod_test.o
 .bss           0x0000000000000000        0x0 client_output/obj/prod_test/prod_test.o
 .text          0x0000000000000000        0x0 client_output/obj/prod_test/iodm/prod_test_iodm.o
 .data          0x0000000000000000        0x0 client_output/obj/prod_test/iodm/prod_test_iodm.o
 .bss           0x0000000000000000        0x0 client_output/obj/prod_test/iodm/prod_test_iodm.o
 .comment       0x0000000000000000       0x12 client_output/obj/prod_test/iodm/prod_test_iodm.o
 .text          0x0000000000000000        0x0 client_output/obj/prod_test/tbox/prod_test_tbox.o
 .data          0x0000000000000000        0x0 client_output/obj/prod_test/tbox/prod_test_tbox.o
 .bss           0x0000000000000000        0x0 client_output/obj/prod_test/tbox/prod_test_tbox.o
 .comment       0x0000000000000000       0x12 client_output/obj/prod_test/tbox/prod_test_tbox.o
 .text          0x0000000000000000        0x0 client_output/obj/prod_test/tbox/tbox_key.o
 .data          0x0000000000000000        0x0 client_output/obj/prod_test/tbox/tbox_key.o
 .bss           0x0000000000000000        0x0 client_output/obj/prod_test/tbox/tbox_key.o
 .comment       0x0000000000000000       0x12 client_output/obj/prod_test/tbox/tbox_key.o
 .text          0x0000000000000000        0x0 client_output/obj/main.o
 .data          0x0000000000000000        0x0 client_output/obj/main.o
 .bss           0x0000000000000000        0x0 client_output/obj/main.o
 .text          0x0000000000000000        0x0 client_output/obj/strong_ble.o
 .data          0x0000000000000000        0x0 client_output/obj/strong_ble.o
 .bss           0x0000000000000000        0x0 client_output/obj/strong_ble.o
 .text.ble_sm_server_event_do
                0x0000000000000000        0x2 client_output/obj/strong_ble.o
 .text.ble_sm_send_security_req_time_get
                0x0000000000000000        0x6 client_output/obj/strong_ble.o
 .text.ble_sm_always_accept_ltk_req
                0x0000000000000000        0x4 client_output/obj/strong_ble.o
 .text.ble_disconnected_restart_adv
                0x0000000000000000        0x4 client_output/obj/strong_ble.o
 .text          0x0000000000000000        0x0 client_output/obj/strong_symbol.o
 .data          0x0000000000000000        0x0 client_output/obj/strong_symbol.o
 .bss           0x0000000000000000        0x0 client_output/obj/strong_symbol.o
 .text.param_xosc_write
                0x0000000000000000       0x24 client_output/obj/strong_symbol.o
 .com_text.timer
                0x0000000000000000        0x8 client_output/obj/strong_symbol.o
 .text          0x0000000000000000        0x0 ../../libs/cpu/libplatform.a(audio_mic.o)
 .data          0x0000000000000000        0x0 ../../libs/cpu/libplatform.a(audio_mic.o)
 .bss           0x0000000000000000        0x0 ../../libs/cpu/libplatform.a(audio_mic.o)
 .text.audio_mic_get_mic_type
                0x0000000000000000        0xa ../../libs/cpu/libplatform.a(audio_mic.o)
 .text.audio_mic_get_mic_gain
                0x0000000000000000        0xa ../../libs/cpu/libplatform.a(audio_mic.o)
 .text.audio_mic_get_mic_trim
                0x0000000000000000        0xa ../../libs/cpu/libplatform.a(audio_mic.o)
 .text.audio_mic_pb10_pdpu
                0x0000000000000000       0x2e ../../libs/cpu/libplatform.a(audio_mic.o)
 .text.audio_mic_power
                0x0000000000000000      0x102 ../../libs/cpu/libplatform.a(audio_mic.o)
 .text.audio_mic_analog_init
                0x0000000000000000      0x2cc ../../libs/cpu/libplatform.a(audio_mic.o)
 .bss.audio_mic_param
                0x0000000000000000       0x18 ../../libs/cpu/libplatform.a(audio_mic.o)
 .comment       0x0000000000000000       0x13 ../../libs/cpu/libplatform.a(audio_mic.o)
 .riscv.attributes
                0x0000000000000000       0x32 ../../libs/cpu/libplatform.a(audio_mic.o)
 .text          0x0000000000000000        0x0 ../../libs/cpu/libplatform.a(audio_mic_trim.o)
 .data          0x0000000000000000        0x0 ../../libs/cpu/libplatform.a(audio_mic_trim.o)
 .bss           0x0000000000000000        0x0 ../../libs/cpu/libplatform.a(audio_mic_trim.o)
 .text.audio_mic_trim_sta_set
                0x0000000000000000        0xa ../../libs/cpu/libplatform.a(audio_mic_trim.o)
 .text.audio_mic_trim_sta_get
                0x0000000000000000        0xa ../../libs/cpu/libplatform.a(audio_mic_trim.o)
 .text.audio_mic_dbg
                0x0000000000000000       0x9e ../../libs/cpu/libplatform.a(audio_mic_trim.o)
 .text.audio_micdc_trim_step0_init
                0x0000000000000000       0x42 ../../libs/cpu/libplatform.a(audio_mic_trim.o)
 .text.audio_micdc_trim_step0_waiting
                0x0000000000000000       0x14 ../../libs/cpu/libplatform.a(audio_mic_trim.o)
 .rodata.audio_micdc_trim_step0_run.str1.4
                0x0000000000000000       0x20 ../../libs/cpu/libplatform.a(audio_mic_trim.o)
 .text.audio_micdc_trim_step0_run
                0x0000000000000000      0x146 ../../libs/cpu/libplatform.a(audio_mic_trim.o)
 .text.audio_micdc_trim_step1_init
                0x0000000000000000       0x20 ../../libs/cpu/libplatform.a(audio_mic_trim.o)
 .text.audio_micdc_trim_step1_waiting
                0x0000000000000000       0x12 ../../libs/cpu/libplatform.a(audio_mic_trim.o)
 .text.audio_micdc_trim_step1_run
                0x0000000000000000       0x26 ../../libs/cpu/libplatform.a(audio_mic_trim.o)
 .text.audio_micdc_trim_step2_init
                0x0000000000000000        0x8 ../../libs/cpu/libplatform.a(audio_mic_trim.o)
 .text.audio_micdc_trim_step2_waiting
                0x0000000000000000        0x8 ../../libs/cpu/libplatform.a(audio_mic_trim.o)
 .text.audio_micdc_trim_step2_run
                0x0000000000000000        0xe ../../libs/cpu/libplatform.a(audio_mic_trim.o)
 .rodata.micin_config.str1.4
                0x0000000000000000       0x20 ../../libs/cpu/libplatform.a(audio_mic_trim.o)
 .text.micin_config
                0x0000000000000000       0x6e ../../libs/cpu/libplatform.a(audio_mic_trim.o)
 .text.audio_micin_trim_step0_init
                0x0000000000000000       0x3a ../../libs/cpu/libplatform.a(audio_mic_trim.o)
 .text.audio_micin_trim_step0_waiting
                0x0000000000000000       0x14 ../../libs/cpu/libplatform.a(audio_mic_trim.o)
 .text.audio_micin_trim_step0_run
                0x0000000000000000       0x60 ../../libs/cpu/libplatform.a(audio_mic_trim.o)
 .text.audio_micin_trim_step1_init
                0x0000000000000000       0x2e ../../libs/cpu/libplatform.a(audio_mic_trim.o)
 .text.audio_micin_trim_step1_waiting
                0x0000000000000000        0x8 ../../libs/cpu/libplatform.a(audio_mic_trim.o)
 .text.audio_micin_trim_step1_run
                0x0000000000000000       0x4c ../../libs/cpu/libplatform.a(audio_mic_trim.o)
 .text.audio_micin_trim_step2_run
                0x0000000000000000       0x64 ../../libs/cpu/libplatform.a(audio_mic_trim.o)
 .text.audio_mic_trim_proc
                0x0000000000000000      0x180 ../../libs/cpu/libplatform.a(audio_mic_trim.o)
 .text.audio_mic_trim_is_finish
                0x0000000000000000       0x10 ../../libs/cpu/libplatform.a(audio_mic_trim.o)
 .bss.audio_mic_trim
                0x0000000000000000       0x18 ../../libs/cpu/libplatform.a(audio_mic_trim.o)
 .rodata.CSWTCH.14
                0x0000000000000000       0x4c ../../libs/cpu/libplatform.a(audio_mic_trim.o)
 .rodata.CSWTCH.15
                0x0000000000000000       0x4c ../../libs/cpu/libplatform.a(audio_mic_trim.o)
 .comment       0x0000000000000000       0x13 ../../libs/cpu/libplatform.a(audio_mic_trim.o)
 .riscv.attributes
                0x0000000000000000       0x32 ../../libs/cpu/libplatform.a(audio_mic_trim.o)
 .text          0x0000000000000000        0x0 ../../libs/cpu/libplatform.a(cm.o)
 .data          0x0000000000000000        0x0 ../../libs/cpu/libplatform.a(cm.o)
 .bss           0x0000000000000000        0x0 ../../libs/cpu/libplatform.a(cm.o)
 .rodata.cm_move_allpages.str1.4
                0x0000000000000000       0x3a ../../libs/cpu/libplatform.a(cm.o)
 .text.cm_move_allpages
                0x0000000000000000      0x13e ../../libs/cpu/libplatform.a(cm.o)
 .text.cm_get_startaddr
                0x0000000000000000        0xa ../../libs/cpu/libplatform.a(cm.o)
 .text.cm_get_area
                0x0000000000000000       0x14 ../../libs/cpu/libplatform.a(cm.o)
 .text.cm_release_all
                0x0000000000000000       0x8c ../../libs/cpu/libplatform.a(cm.o)
 .text.cm_read8
                0x0000000000000000       0x28 ../../libs/cpu/libplatform.a(cm.o)
 .text.cm_read16
                0x0000000000000000       0x28 ../../libs/cpu/libplatform.a(cm.o)
 .text.cm_read32
                0x0000000000000000       0x24 ../../libs/cpu/libplatform.a(cm.o)
 .text.cm_write8
                0x0000000000000000       0x28 ../../libs/cpu/libplatform.a(cm.o)
 .text.cm_write16
                0x0000000000000000       0x28 ../../libs/cpu/libplatform.a(cm.o)
 .text.cm_write32
                0x0000000000000000       0x24 ../../libs/cpu/libplatform.a(cm.o)
 .text.cm_clear
                0x0000000000000000       0x60 ../../libs/cpu/libplatform.a(cm.o)
 .text          0x0000000000000000        0x0 ../../libs/cpu/libplatform.a(os_flash.o)
 .data          0x0000000000000000        0x0 ../../libs/cpu/libplatform.a(os_flash.o)
 .bss           0x0000000000000000        0x0 ../../libs/cpu/libplatform.a(os_flash.o)
 .com_text.spiflash.id
                0x0000000000000000        0x8 ../../libs/cpu/libplatform.a(os_flash.o)
 .text          0x0000000000000000        0x0 ../../libs/cpu/libplatform.a(xcfg.o)
 .data          0x0000000000000000        0x0 ../../libs/cpu/libplatform.a(xcfg.o)
 .bss           0x0000000000000000        0x0 ../../libs/cpu/libplatform.a(xcfg.o)
 .text          0x0000000000000000        0x0 ../../libs/cpu/libplatform.a(main.o)
 .data          0x0000000000000000        0x0 ../../libs/cpu/libplatform.a(main.o)
 .bss           0x0000000000000000        0x0 ../../libs/cpu/libplatform.a(main.o)
 .text          0x0000000000000000        0x0 ../../libs/cpu/libplatform.a(interrupt.o)
 .data          0x0000000000000000        0x0 ../../libs/cpu/libplatform.a(interrupt.o)
 .bss           0x0000000000000000        0x0 ../../libs/cpu/libplatform.a(interrupt.o)
 .com_text.irq.wpt
                0x0000000000000000       0x3e ../../libs/cpu/libplatform.a(interrupt.o)
 .text.sys_irq_init
                0x0000000000000000       0x96 ../../libs/cpu/libplatform.a(interrupt.o)
 .rodata.watch_point_set.str1.4
                0x0000000000000000       0x28 ../../libs/cpu/libplatform.a(interrupt.o)
 .text.watch_point_set
                0x0000000000000000       0x5c ../../libs/cpu/libplatform.a(interrupt.o)
 .text.wdt_init
                0x0000000000000000       0x3a ../../libs/cpu/libplatform.a(interrupt.o)
 .text.usb_irq_init
                0x0000000000000000       0x2e ../../libs/cpu/libplatform.a(interrupt.o)
 .com_rodata.irq.wpt
                0x0000000000000000       0x1b ../../libs/cpu/libplatform.a(interrupt.o)
 .text          0x0000000000000000        0x0 ../../libs/cpu/libplatform.a(startup.o)
 .data          0x0000000000000000        0x0 ../../libs/cpu/libplatform.a(startup.o)
 .bss           0x0000000000000000        0x0 ../../libs/cpu/libplatform.a(startup.o)
 .com_text.timer
                0x0000000000000000       0x16 ../../libs/cpu/libplatform.a(startup.o)
 .text.mem_heap_size_get
                0x0000000000000000        0x6 ../../libs/cpu/libplatform.a(startup.o)
 .text.thread_cfg_get
                0x0000000000000000        0x4 ../../libs/cpu/libplatform.a(startup.o)
 .rodata.thread_timer_create.str1.4
                0x0000000000000000        0x4 ../../libs/cpu/libplatform.a(startup.o)
 .text.thread_timer_create
                0x0000000000000000       0x76 ../../libs/cpu/libplatform.a(startup.o)
 .rodata.thread_driver_create.str1.4
                0x0000000000000000        0x4 ../../libs/cpu/libplatform.a(startup.o)
 .text.thread_driver_create
                0x0000000000000000       0x70 ../../libs/cpu/libplatform.a(startup.o)
 .text.thread_create_callback
                0x0000000000000000       0x28 ../../libs/cpu/libplatform.a(startup.o)
 .bss.driver    0x0000000000000000        0x4 ../../libs/cpu/libplatform.a(startup.o)
 .bss.timer     0x0000000000000000       0x28 ../../libs/cpu/libplatform.a(startup.o)
 .osmem         0x0000000000000000      0x600 ../../libs/cpu/libplatform.a(startup.o)
 .text          0x0000000000000000        0x0 ../../libs/cpu/libplatform.a(sys_hook.o)
 .data          0x0000000000000000        0x0 ../../libs/cpu/libplatform.a(sys_hook.o)
 .bss           0x0000000000000000        0x0 ../../libs/cpu/libplatform.a(sys_hook.o)
 .text          0x0000000000000000        0x0 ../../libs/cpu/libplatform.a(thread_driver.o)
 .data          0x0000000000000000        0x0 ../../libs/cpu/libplatform.a(thread_driver.o)
 .bss           0x0000000000000000        0x0 ../../libs/cpu/libplatform.a(thread_driver.o)
 .com_text.thread.driver.usb
                0x0000000000000000       0x4e ../../libs/cpu/libplatform.a(thread_driver.o)
 .com_text.thread.driver.vs
                0x0000000000000000       0x4e ../../libs/cpu/libplatform.a(thread_driver.o)
 .text.thread.driver.usb
                0x0000000000000000       0x1a ../../libs/cpu/libplatform.a(thread_driver.o)
 .text.thread.driver.vs
                0x0000000000000000       0x1a ../../libs/cpu/libplatform.a(thread_driver.o)
 .com_text.thread.driver.enter
                0x0000000000000000       0x5c ../../libs/cpu/libplatform.a(thread_driver.o)
 .sbss.thread_driver_usb_enter_func
                0x0000000000000000        0x4 ../../libs/cpu/libplatform.a(thread_driver.o)
 .sbss.thread_driver_vs_enter_func
                0x0000000000000000        0x4 ../../libs/cpu/libplatform.a(thread_driver.o)
 .comment       0x0000000000000000       0x13 ../../libs/cpu/libplatform.a(thread_driver.o)
 .riscv.attributes
                0x0000000000000000       0x32 ../../libs/cpu/libplatform.a(thread_driver.o)
 .text          0x0000000000000000        0x0 ../../libs/cpu/libplatform.a(pll.o)
 .data          0x0000000000000000        0x0 ../../libs/cpu/libplatform.a(pll.o)
 .bss           0x0000000000000000        0x0 ../../libs/cpu/libplatform.a(pll.o)
 .text.pll_clk_nhz_get
                0x0000000000000000        0xa ../../libs/cpu/libplatform.a(pll.o)
 .text.pll_ext_init
                0x0000000000000000      0x204 ../../libs/cpu/libplatform.a(pll.o)
 .text          0x0000000000000000        0x0 ../../libs/cpu/libplatform.a(pmu.o)
 .data          0x0000000000000000        0x0 ../../libs/cpu/libplatform.a(pmu.o)
 .bss           0x0000000000000000        0x0 ../../libs/cpu/libplatform.a(pmu.o)
 .com_text.trim.vddio_get
                0x0000000000000000        0xa ../../libs/cpu/libplatform.a(pmu.o)
 .com_text.trim.vddio_set
                0x0000000000000000       0x2c ../../libs/cpu/libplatform.a(pmu.o)
 .com_text.trim.core_get
                0x0000000000000000        0xa ../../libs/cpu/libplatform.a(pmu.o)
 .com_text.trim.core_set
                0x0000000000000000       0x16 ../../libs/cpu/libplatform.a(pmu.o)
 .com_text.trim.lvd_get
                0x0000000000000000        0xa ../../libs/cpu/libplatform.a(pmu.o)
 .com_text.pmu.vddbt_set
                0x0000000000000000        0xe ../../libs/cpu/libplatform.a(pmu.o)
 .com_text.pmu.vddbt_get
                0x0000000000000000        0x8 ../../libs/cpu/libplatform.a(pmu.o)
 .text          0x0000000000000000        0x0 ../../libs/cpu/libplatform.a(reset.o)
 .data          0x0000000000000000        0x0 ../../libs/cpu/libplatform.a(reset.o)
 .bss           0x0000000000000000        0x0 ../../libs/cpu/libplatform.a(reset.o)
 .com_text.irq  0x0000000000000000        0xe ../../libs/cpu/libplatform.a(reset.o)
 .text          0x0000000000000000        0x0 ../../libs/cpu/libplatform.a(context.o)
 .data          0x0000000000000000        0x0 ../../libs/cpu/libplatform.a(context.o)
 .bss           0x0000000000000000        0x0 ../../libs/cpu/libplatform.a(context.o)
 .riscv.attributes
                0x0000000000000000       0x30 ../../libs/cpu/libplatform.a(context.o)
 .text          0x0000000000000000        0x0 ../../libs/cpu/libplatform.a(spiflash.o)
 .data          0x0000000000000000        0x0 ../../libs/cpu/libplatform.a(spiflash.o)
 .bss           0x0000000000000000        0x0 ../../libs/cpu/libplatform.a(spiflash.o)
 .text          0x0000000000000000        0x0 ../../libs/cpu/libplatform.a(debug.o)
 .data          0x0000000000000000        0x0 ../../libs/cpu/libplatform.a(debug.o)
 .bss           0x0000000000000000        0x0 ../../libs/cpu/libplatform.a(debug.o)
 .text.debug_dump_info_nanos_schedule
                0x0000000000000000        0x2 ../../libs/cpu/libplatform.a(debug.o)
 .text.debug_dump_info_nanos_timer
                0x0000000000000000        0x2 ../../libs/cpu/libplatform.a(debug.o)
 .text          0x0000000000000000        0x0 ../../libs/cpu/libplatform.a(fot_pack.o)
 .data          0x0000000000000000        0x0 ../../libs/cpu/libplatform.a(fot_pack.o)
 .bss           0x0000000000000000        0x0 ../../libs/cpu/libplatform.a(fot_pack.o)
 .text.ota_pack
                0x0000000000000000      0x4ea ../../libs/cpu/libplatform.a(fot_pack.o)
 .text.ota_pack_get_curaddr
                0x0000000000000000        0xa ../../libs/cpu/libplatform.a(fot_pack.o)
 .text.ota_pack_get_err
                0x0000000000000000       0x14 ../../libs/cpu/libplatform.a(fot_pack.o)
 .text.ota_pack_get_dst_start
                0x0000000000000000        0xa ../../libs/cpu/libplatform.a(fot_pack.o)
 .text.ota_pack_done
                0x0000000000000000       0x58 ../../libs/cpu/libplatform.a(fot_pack.o)
 .text.fot.cache
                0x0000000000000000      0x156 ../../libs/cpu/libplatform.a(fot_pack.o)
 .text.ota_pack_breakpoint_info_read
                0x0000000000000000       0xbc ../../libs/cpu/libplatform.a(fot_pack.o)
 .fot_data.com.pack
                0x0000000000000000       0x44 ../../libs/cpu/libplatform.a(fot_pack.o)
 .sbss.fot_update_init
                0x0000000000000000        0x1 ../../libs/cpu/libplatform.a(fot_pack.o)
 .text          0x0000000000000000        0x0 ../../libs/cpu/libplatform.a(lock.o)
 .data          0x0000000000000000        0x0 ../../libs/cpu/libplatform.a(lock.o)
 .bss           0x0000000000000000        0x0 ../../libs/cpu/libplatform.a(lock.o)
 .rodata.lock_code_usbdev.str1.4
                0x0000000000000000       0x16 ../../libs/cpu/libplatform.a(lock.o)
 .text.lock_code_usbdev
                0x0000000000000000       0x54 ../../libs/cpu/libplatform.a(lock.o)
 .text.unlock_code_usbdev
                0x0000000000000000       0x28 ../../libs/cpu/libplatform.a(lock.o)
 .text          0x0000000000000000        0x0 ../../libs/cpu/libplatform.a(patch.o)
 .data          0x0000000000000000        0x0 ../../libs/cpu/libplatform.a(patch.o)
 .bss           0x0000000000000000        0x0 ../../libs/cpu/libplatform.a(patch.o)
 .text          0x0000000000000000        0x0 ../../libs/cpu/libplatform.a(s_sys.o)
 .data          0x0000000000000000        0x0 ../../libs/cpu/libplatform.a(s_sys.o)
 .bss           0x0000000000000000        0x0 ../../libs/cpu/libplatform.a(s_sys.o)
 .com_text.sys.alu
                0x0000000000000000       0x66 ../../libs/cpu/libplatform.a(s_sys.o)
 .text          0x0000000000000000        0x0 ../../libs/cpu/libplatform.a(sleep.o)
 .data          0x0000000000000000        0x0 ../../libs/cpu/libplatform.a(sleep.o)
 .bss           0x0000000000000000        0x0 ../../libs/cpu/libplatform.a(sleep.o)
 .com_sleep.lp.sleep
                0x0000000000000000       0x76 ../../libs/cpu/libplatform.a(sleep.o)
 .comment       0x0000000000000000       0x13 ../../libs/cpu/libplatform.a(sleep.o)
 .riscv.attributes
                0x0000000000000000       0x32 ../../libs/cpu/libplatform.a(sleep.o)
 .text          0x0000000000000000        0x0 ../../libs/cpu/libplatform.a(sys.o)
 .data          0x0000000000000000        0x0 ../../libs/cpu/libplatform.a(sys.o)
 .bss           0x0000000000000000        0x0 ../../libs/cpu/libplatform.a(sys.o)
 .text.dbg_clk_out
                0x0000000000000000       0x46 ../../libs/cpu/libplatform.a(sys.o)
 .text.rc2m_clk_nhz_get
                0x0000000000000000       0x30 ../../libs/cpu/libplatform.a(sys.o)
 .com_text.sys  0x0000000000000000       0x1e ../../libs/cpu/libplatform.a(sys.o)
 .text.sw_reset_source_get
                0x0000000000000000       0x2a ../../libs/cpu/libplatform.a(sys.o)
 .text.random_init
                0x0000000000000000        0xa ../../libs/cpu/libplatform.a(sys.o)
 .text.sys_get_rand_key
                0x0000000000000000       0x6c ../../libs/cpu/libplatform.a(sys.o)
 .text.get_random
                0x0000000000000000       0x26 ../../libs/cpu/libplatform.a(sys.o)
 .text.bsp.param
                0x0000000000000000       0x32 ../../libs/cpu/libplatform.a(sys.o)
 .text.bt_restore_xosc_cap
                0x0000000000000000        0x8 ../../libs/cpu/libplatform.a(sys.o)
 .text.bt_get_xosc_cap
                0x0000000000000000        0xc ../../libs/cpu/libplatform.a(sys.o)
 .text.bt_set_xosc_cap
                0x0000000000000000       0x18 ../../libs/cpu/libplatform.a(sys.o)
 .text.bt_adj_xosc_cap
                0x0000000000000000       0x72 ../../libs/cpu/libplatform.a(sys.o)
 .text.__divdi3
                0x0000000000000000       0x5c ../../libs/cpu/libplatform.a(sys.o)
 .text.__umoddi3
                0x0000000000000000       0x30 ../../libs/cpu/libplatform.a(sys.o)
 .text          0x0000000000000000        0x0 ../../libs/cpu/libplatform.a(sys_clk.o)
 .data          0x0000000000000000        0x0 ../../libs/cpu/libplatform.a(sys_clk.o)
 .bss           0x0000000000000000        0x0 ../../libs/cpu/libplatform.a(sys_clk.o)
 .text.periph_cacl_clkdiv
                0x0000000000000000        0x2 ../../libs/cpu/libplatform.a(sys_clk.o)
 .text.sys_clk_nhz_get
                0x0000000000000000       0x5e ../../libs/cpu/libplatform.a(sys_clk.o)
 .text.sys_clk_get
                0x0000000000000000        0xa ../../libs/cpu/libplatform.a(sys_clk.o)
 .text.sys_clk_lower_limit_lock
                0x0000000000000000       0x84 ../../libs/cpu/libplatform.a(sys_clk.o)
 .text.sys_clk_lower_limit_unlock
                0x0000000000000000       0x6c ../../libs/cpu/libplatform.a(sys_clk.o)
 .text.sys_clk_lower_limit_all_unlock
                0x0000000000000000       0x50 ../../libs/cpu/libplatform.a(sys_clk.o)
 .sbss.cfg_spiflash_speed_up_en
                0x0000000000000000        0x1 ../../libs/cpu/libplatform.a(sys_clk.o)
 .srodata.rtc_clk_div_coef
                0x0000000000000000        0x4 ../../libs/cpu/libplatform.a(sys_clk.o)
 .text          0x0000000000000000        0x0 ../../libs/cpu/libplatform.a(voltage_trim.o)
 .data          0x0000000000000000        0x0 ../../libs/cpu/libplatform.a(voltage_trim.o)
 .bss           0x0000000000000000        0x0 ../../libs/cpu/libplatform.a(voltage_trim.o)
 .text.pmu_get_vbg_mv
                0x0000000000000000        0xe ../../libs/cpu/libplatform.a(voltage_trim.o)
 .text.pmu_get_vbatdet
                0x0000000000000000       0x46 ../../libs/cpu/libplatform.a(voltage_trim.o)
 .rodata.voltage_trim_value_dump.str1.4
                0x0000000000000000       0x63 ../../libs/cpu/libplatform.a(voltage_trim.o)
 .text.voltage_trim_value_dump
                0x0000000000000000       0x8c ../../libs/cpu/libplatform.a(voltage_trim.o)
 .text          0x0000000000000000        0x0 ../../libs/cpu/libplatform.a(weak_symbol.o)
 .data          0x0000000000000000        0x0 ../../libs/cpu/libplatform.a(weak_symbol.o)
 .bss           0x0000000000000000        0x0 ../../libs/cpu/libplatform.a(weak_symbol.o)
 .text.xosc_get_xcfg
                0x0000000000000000        0x2 ../../libs/cpu/libplatform.a(weak_symbol.o)
 .text.param_xosc_read
                0x0000000000000000        0x2 ../../libs/cpu/libplatform.a(weak_symbol.o)
 .text.param_xosc_write
                0x0000000000000000        0x2 ../../libs/cpu/libplatform.a(weak_symbol.o)
 .text.sys_clk_change_callback
                0x0000000000000000        0x2 ../../libs/cpu/libplatform.a(weak_symbol.o)
 .text.uart_debug_init_callback
                0x0000000000000000        0x2 ../../libs/cpu/libplatform.a(weak_symbol.o)
 .text.nanos_var_init
                0x0000000000000000       0x1c ../../libs/cpu/libplatform.a(weak_symbol.o)
 .text.btstack_message
                0x0000000000000000        0x4 ../../libs/cpu/libplatform.a(weak_symbol.o)
 .com_text.stack.api
                0x0000000000000000        0x4 ../../libs/cpu/libplatform.a(weak_symbol.o)
 .com_text.ret.stack.thread
                0x0000000000000000        0x2 ../../libs/cpu/libplatform.a(weak_symbol.o)
 .com_text.bb.isr
                0x0000000000000000        0x6 ../../libs/cpu/libplatform.a(weak_symbol.o)
 .com_text.isr  0x0000000000000000        0x2 ../../libs/cpu/libplatform.a(weak_symbol.o)
 .text.btstack_var_init
                0x0000000000000000        0x2 ../../libs/cpu/libplatform.a(weak_symbol.o)
 .text.bb_patch_init
                0x0000000000000000        0x4 ../../libs/cpu/libplatform.a(weak_symbol.o)
 .text.bb_nanos_mem_init
                0x0000000000000000        0x2 ../../libs/cpu/libplatform.a(weak_symbol.o)
 .bss.heap_buf  0x0000000000000000       0x14 ../../libs/cpu/libplatform.a(weak_symbol.o)
 .bss.heap_size_buf
                0x0000000000000000        0xa ../../libs/cpu/libplatform.a(weak_symbol.o)
 .text          0x0000000000000000        0x0 ../../libs/cpu/libplatform.a(bt.o)
 .data          0x0000000000000000        0x0 ../../libs/cpu/libplatform.a(bt.o)
 .bss           0x0000000000000000        0x0 ../../libs/cpu/libplatform.a(bt.o)
 .text          0x0000000000000000        0x0 ../../libs/cpu/libplatform.a(freq_det.o)
 .data          0x0000000000000000        0x0 ../../libs/cpu/libplatform.a(freq_det.o)
 .bss           0x0000000000000000        0x0 ../../libs/cpu/libplatform.a(freq_det.o)
 .com_sleep.sleep.rc
                0x0000000000000000       0x50 ../../libs/cpu/libplatform.a(freq_det.o)
 .data          0x0000000000000000        0x0 ../../libs/ble/libbtstack_central.a(txpkt.o)
 .bss           0x0000000000000000        0x0 ../../libs/ble/libbtstack_central.a(txpkt.o)
 .data          0x0000000000000000        0x0 ../../libs/ble/libbtstack_central.a(hci.o)
 .bss           0x0000000000000000        0x0 ../../libs/ble/libbtstack_central.a(hci.o)
 .com_text.stack.linked_list
                0x0000000000000000       0x12 ../../libs/ble/libbtstack_central.a(hci.o)
 .text.stack.hci.le.adv
                0x0000000000000000        0x2 ../../libs/ble/libbtstack_central.a(hci.o)
 .text.hci.adv.is_enable
                0x0000000000000000        0x4 ../../libs/ble/libbtstack_central.a(hci.o)
 .com_text.stack.hci_recv
                0x0000000000000000       0x10 ../../libs/ble/libbtstack_central.a(hci.o)
 .data          0x0000000000000000        0x0 ../../libs/ble/libbtstack_central.a(btstack_util.o)
 .bss           0x0000000000000000        0x0 ../../libs/ble/libbtstack_central.a(btstack_util.o)
 .text          0x0000000000000000      0x980 ../../libs/ble/libbtstack_central.a(sm.o)
 .data          0x0000000000000000        0x0 ../../libs/ble/libbtstack_central.a(sm.o)
 .rodata.str1.4
                0x0000000000000000       0x50 ../../libs/ble/libbtstack_central.a(sm.o)
 .text.sm.er.get
                0x0000000000000000       0x4a ../../libs/ble/libbtstack_central.a(sm.o)
 .text.sm.ir    0x0000000000000000       0x4a ../../libs/ble/libbtstack_central.a(sm.o)
 .text.sm.cmac  0x0000000000000000       0x82 ../../libs/ble/libbtstack_central.a(sm.o)
 .text.sm.irk.set
                0x0000000000000000       0x2e ../../libs/ble/libbtstack_central.a(sm.o)
 .text.stack.ble.sm
                0x0000000000000000      0x112 ../../libs/ble/libbtstack_central.a(sm.o)
 .text.sm.auth.sta
                0x0000000000000000       0x30 ../../libs/ble/libbtstack_central.a(sm.o)
 .text.sm.request
                0x0000000000000000       0xb2 ../../libs/ble/libbtstack_central.a(sm.o)
 .text.sm.pairing
                0x0000000000000000       0x8a ../../libs/ble/libbtstack_central.a(sm.o)
 .text.sm.auth_decline
                0x0000000000000000       0x38 ../../libs/ble/libbtstack_central.a(sm.o)
 .text.sm.auth_grant
                0x0000000000000000       0x38 ../../libs/ble/libbtstack_central.a(sm.o)
 .text.sm.bonding_decline
                0x0000000000000000       0x60 ../../libs/ble/libbtstack_central.a(sm.o)
 .text.sm.confirm
                0x0000000000000000       0x38 ../../libs/ble/libbtstack_central.a(sm.o)
 .text.sm.passkey.set
                0x0000000000000000       0x3e ../../libs/ble/libbtstack_central.a(sm.o)
 .text.sm.passkey.get
                0x0000000000000000       0x2e ../../libs/ble/libbtstack_central.a(sm.o)
 .text.sm.passkey.input
                0x0000000000000000       0x58 ../../libs/ble/libbtstack_central.a(sm.o)
 .text.sm.identity_resolving_state
                0x0000000000000000       0x20 ../../libs/ble/libbtstack_central.a(sm.o)
 .text.sm.index
                0x0000000000000000       0x20 ../../libs/ble/libbtstack_central.a(sm.o)
 .text.gap.addr
                0x0000000000000000        0xa ../../libs/ble/libbtstack_central.a(sm.o)
 .text.sm.run   0x0000000000000000      0xa1c ../../libs/ble/libbtstack_central.a(sm.o)
 .text.sm.pdu   0x0000000000000000      0x350 ../../libs/ble/libbtstack_central.a(sm.o)
 .text.sm.event
                0x0000000000000000      0xa48 ../../libs/ble/libbtstack_central.a(sm.o)
 .text.gap.adv  0x0000000000000000        0x2 ../../libs/ble/libbtstack_central.a(sm.o)
 .text.sm.irk_get
                0x0000000000000000        0xa ../../libs/ble/libbtstack_central.a(sm.o)
 .text.sm.delete_bonding
                0x0000000000000000       0x6e ../../libs/ble/libbtstack_central.a(sm.o)
 .rodata        0x0000000000000000       0x64 ../../libs/ble/libbtstack_central.a(sm.o)
 .ble_cache.sm  0x0000000000000000        0x8 ../../libs/ble/libbtstack_central.a(sm.o)
 .ble_cache.sm.auth
                0x0000000000000000        0x1 ../../libs/ble/libbtstack_central.a(sm.o)
 .ble_cache.sm.cmac
                0x0000000000000000       0x45 ../../libs/ble/libbtstack_central.a(sm.o)
 .ble_cache.sm.dhk
                0x0000000000000000       0x10 ../../libs/ble/libbtstack_central.a(sm.o)
 .ble_cache.sm.io
                0x0000000000000000        0x1 ../../libs/ble/libbtstack_central.a(sm.o)
 .ble_cache.sm.req
                0x0000000000000000        0x1 ../../libs/ble/libbtstack_central.a(sm.o)
 .ble_cache.sm.resolution
                0x0000000000000000       0x18 ../../libs/ble/libbtstack_central.a(sm.o)
 .ble_cache.sm.setup
                0x0000000000000000      0x100 ../../libs/ble/libbtstack_central.a(sm.o)
 .sdata         0x0000000000000000        0x2 ../../libs/ble/libbtstack_central.a(sm.o)
 .data          0x0000000000000000        0x0 ../../libs/ble/libbtstack_central.a(le_device_db_memory.o)
 .bss           0x0000000000000000        0x0 ../../libs/ble/libbtstack_central.a(le_device_db_memory.o)
 .text.le.db.get
                0x0000000000000000       0x3e ../../libs/ble/libbtstack_central.a(le_device_db_memory.o)
 .text.le.db.remove
                0x0000000000000000       0x9e ../../libs/ble/libbtstack_central.a(le_device_db_memory.o)
 .text.le.db.remove_all
                0x0000000000000000       0x60 ../../libs/ble/libbtstack_central.a(le_device_db_memory.o)
 .rodata.str1.4
                0x0000000000000000        0x4 ../../libs/ble/libbtstack_central.a(le_device_db_memory.o)
 .text.le.db.add
                0x0000000000000000       0xe4 ../../libs/ble/libbtstack_central.a(le_device_db_memory.o)
 .text.le.db.dump
                0x0000000000000000       0x6a ../../libs/ble/libbtstack_central.a(le_device_db_memory.o)
 .text.le.db.get_index
                0x0000000000000000       0x1c ../../libs/ble/libbtstack_central.a(le_device_db_memory.o)
 .data          0x0000000000000000        0x0 ../../libs/ble/libbtstack_central.a(gatt_server.o)
 .bss           0x0000000000000000        0x0 ../../libs/ble/libbtstack_central.a(gatt_server.o)
 .text.stack.send.ntf_kick
                0x0000000000000000        0x8 ../../libs/ble/libbtstack_central.a(gatt_server.o)
 .data          0x0000000000000000        0x0 ../../libs/ble/libbtstack_central.a(gatt_client.o)
 .bss           0x0000000000000000        0x0 ../../libs/ble/libbtstack_central.a(gatt_client.o)
 .text.client.set.sm_level
                0x0000000000000000        0xa ../../libs/ble/libbtstack_central.a(gatt_client.o)
 .text.client.stop_listening
                0x0000000000000000       0x14 ../../libs/ble/libbtstack_central.a(gatt_client.o)
 .text.sm.client
                0x0000000000000000      0x1a4 ../../libs/ble/libbtstack_central.a(gatt_client.o)
 .text.client.deserialize_characteristic_descriptor
                0x0000000000000000       0x4e ../../libs/ble/libbtstack_central.a(gatt_client.o)
 .text.client.get_character_uuid16
                0x0000000000000000       0x22 ../../libs/ble/libbtstack_central.a(gatt_client.o)
 .text.client.get_character_uuid128
                0x0000000000000000       0x42 ../../libs/ble/libbtstack_central.a(gatt_client.o)
 .text.client.write_cmd
                0x0000000000000000       0x24 ../../libs/ble/libbtstack_central.a(gatt_client.o)
 .text.client.read_req
                0x0000000000000000       0x44 ../../libs/ble/libbtstack_central.a(gatt_client.o)
 .text.client.read_blob
                0x0000000000000000       0x22 ../../libs/ble/libbtstack_central.a(gatt_client.o)
 .text.client.discover_secondary_services
                0x0000000000000000       0x4c ../../libs/ble/libbtstack_central.a(gatt_client.o)
 .text.client.find_services_uuid16
                0x0000000000000000       0x6a ../../libs/ble/libbtstack_central.a(gatt_client.o)
 .text.client.find_services_uuid128
                0x0000000000000000       0x6e ../../libs/ble/libbtstack_central.a(gatt_client.o)
 .text.client.find_included_services
                0x0000000000000000       0x4e ../../libs/ble/libbtstack_central.a(gatt_client.o)
 .text.client.find_character_uuid16
                0x0000000000000000       0x90 ../../libs/ble/libbtstack_central.a(gatt_client.o)
 .text.client.find_character_uuid128
                0x0000000000000000       0x92 ../../libs/ble/libbtstack_central.a(gatt_client.o)
 .text.client.discover_characteristic_descriptors
                0x0000000000000000       0x5e ../../libs/ble/libbtstack_central.a(gatt_client.o)
 .text.client.read_value
                0x0000000000000000        0xc ../../libs/ble/libbtstack_central.a(gatt_client.o)
 .text.client.read_value_uuid16
                0x0000000000000000       0x66 ../../libs/ble/libbtstack_central.a(gatt_client.o)
 .text.client.read_value_uuid128
                0x0000000000000000       0x68 ../../libs/ble/libbtstack_central.a(gatt_client.o)
 .text.client.read_long_value
                0x0000000000000000       0x16 ../../libs/ble/libbtstack_central.a(gatt_client.o)
 .text.client.read_multiple
                0x0000000000000000       0x48 ../../libs/ble/libbtstack_central.a(gatt_client.o)
 .text.client.write_long_value
                0x0000000000000000       0x62 ../../libs/ble/libbtstack_central.a(gatt_client.o)
 .text.client.reliable_write_long
                0x0000000000000000       0x52 ../../libs/ble/libbtstack_central.a(gatt_client.o)
 .text.client.read_characteristic
                0x0000000000000000       0x50 ../../libs/ble/libbtstack_central.a(gatt_client.o)
 .text.client.read_long_characteristic_descriptor
                0x0000000000000000       0x62 ../../libs/ble/libbtstack_central.a(gatt_client.o)
 .text.client.write_character_desc
                0x0000000000000000       0x60 ../../libs/ble/libbtstack_central.a(gatt_client.o)
 .text.client.write_long_character_desc
                0x0000000000000000       0x70 ../../libs/ble/libbtstack_central.a(gatt_client.o)
 .text.client.prepare_write
                0x0000000000000000       0x56 ../../libs/ble/libbtstack_central.a(gatt_client.o)
 .text.client.execute_write
                0x0000000000000000       0x3c ../../libs/ble/libbtstack_central.a(gatt_client.o)
 .text.client.cancel_write
                0x0000000000000000       0x3c ../../libs/ble/libbtstack_central.a(gatt_client.o)
 .ble_buf.read  0x0000000000000000        0x6 ../../libs/ble/libbtstack_central.a(gatt_client.o)
 .data          0x0000000000000000        0x0 ../../libs/ble/libbtstack_central.a(att_server.o)
 .bss           0x0000000000000000        0x0 ../../libs/ble/libbtstack_central.a(att_server.o)
 .text.sm.server
                0x0000000000000000      0x210 ../../libs/ble/libbtstack_central.a(att_server.o)
 .text.server.register_service
                0x0000000000000000       0x42 ../../libs/ble/libbtstack_central.a(att_server.o)
 .text.server.init
                0x0000000000000000       0x84 ../../libs/ble/libbtstack_central.a(att_server.o)
 .text.server.packet_handler
                0x0000000000000000      0x1dc ../../libs/ble/libbtstack_central.a(att_server.o)
 .text.att.event_handler
                0x0000000000000000      0x1aa ../../libs/ble/libbtstack_central.a(att_server.o)
 .com_text.att.event_handler
                0x0000000000000000       0x26 ../../libs/ble/libbtstack_central.a(att_server.o)
 .ble_buf.att   0x0000000000000000       0x10 ../../libs/ble/libbtstack_central.a(att_server.o)
 .data          0x0000000000000000        0x0 ../../libs/ble/libbtstack_central.a(att_dispatch.o)
 .bss           0x0000000000000000        0x0 ../../libs/ble/libbtstack_central.a(att_dispatch.o)
 .text.att.is_register_client
                0x0000000000000000        0xe ../../libs/ble/libbtstack_central.a(att_dispatch.o)
 .text.att.register_server
                0x0000000000000000       0x1a ../../libs/ble/libbtstack_central.a(att_dispatch.o)
 .text.att.server_mtu
                0x0000000000000000       0x14 ../../libs/ble/libbtstack_central.a(att_dispatch.o)
 .data          0x0000000000000000        0x0 ../../libs/ble/libbtstack_central.a(att_db.o)
 .bss           0x0000000000000000        0x0 ../../libs/ble/libbtstack_central.a(att_db.o)
 .text.att.dump
                0x0000000000000000       0x5c ../../libs/ble/libbtstack_central.a(att_db.o)
 .text.gatt.get_client_config
                0x0000000000000000      0x122 ../../libs/ble/libbtstack_central.a(att_db.o)
 .data          0x0000000000000000        0x0 ../../libs/ble/libbtstack_central.a(ad_parser.o)
 .bss           0x0000000000000000        0x0 ../../libs/ble/libbtstack_central.a(ad_parser.o)
 .data          0x0000000000000000        0x0 ../../libs/ble/libbtstack_central.a(hci_transport_h3_controller.o)
 .bss           0x0000000000000000       0x20 ../../libs/ble/libbtstack_central.a(hci_transport_h3_controller.o)
 .text.stack.h3c
                0x0000000000000000      0x1dc ../../libs/ble/libbtstack_central.a(hci_transport_h3_controller.o)
 .rodata.str1.4
                0x0000000000000000       0x16 ../../libs/ble/libbtstack_central.a(hci_transport_h3_controller.o)
 .com_text.stack.h3c
                0x0000000000000000       0x48 ../../libs/ble/libbtstack_central.a(hci_transport_h3_controller.o)
 .com_text.stack.util
                0x0000000000000000      0x136 ../../libs/ble/libbtstack_central.a(hci_transport_h3_controller.o)
 .text.btstack.hci.h3c.init
                0x0000000000000000       0x12 ../../libs/ble/libbtstack_central.a(hci_transport_h3_controller.o)
 .rodata        0x0000000000000000       0x20 ../../libs/ble/libbtstack_central.a(hci_transport_h3_controller.o)
 .com_rodata.stack.h3
                0x0000000000000000        0x2 ../../libs/ble/libbtstack_central.a(hci_transport_h3_controller.o)
 .hci.h3.huart  0x0000000000000000      0x10c ../../libs/ble/libbtstack_central.a(hci_transport_h3_controller.o)
 .sbss          0x0000000000000000       0x1c ../../libs/ble/libbtstack_central.a(hci_transport_h3_controller.o)
 .data          0x0000000000000000        0x0 ../../libs/ble/libbtstack_central.a(hci_transport_dummy.o)
 .bss           0x0000000000000000        0x0 ../../libs/ble/libbtstack_central.a(hci_transport_dummy.o)
 .data          0x0000000000000000        0x0 ../../libs/ble/libbtstack_central.a(btstack_hal.o)
 .bss           0x0000000000000000        0x0 ../../libs/ble/libbtstack_central.a(btstack_hal.o)
 .com_text.stack.uart_isr
                0x0000000000000000       0x6c ../../libs/ble/libbtstack_central.a(btstack_hal.o)
 .text.stack.hal
                0x0000000000000000       0xa4 ../../libs/ble/libbtstack_central.a(btstack_hal.o)
 .com_text.stack.util
                0x0000000000000000       0x12 ../../libs/ble/libbtstack_central.a(btstack_hal.o)
 .sbss          0x0000000000000000        0x8 ../../libs/ble/libbtstack_central.a(btstack_hal.o)
 .data          0x0000000000000000        0x0 ../../libs/ble/libbtstack_central.a(btstack_api.o)
 .bss           0x0000000000000000        0x0 ../../libs/ble/libbtstack_central.a(btstack_api.o)
 .com_text.ret.bb.sleep
                0x0000000000000000       0x1e ../../libs/ble/libbtstack_central.a(btstack_api.o)
 .com_sleep.sleep
                0x0000000000000000        0x8 ../../libs/ble/libbtstack_central.a(btstack_api.o)
 .data          0x0000000000000000        0x0 ../../libs/ble/libbtstack_central.a(ble_api.o)
 .bss           0x0000000000000000        0x0 ../../libs/ble/libbtstack_central.a(ble_api.o)
 .text.ble.api.conn.update
                0x0000000000000000       0xb8 ../../libs/ble/libbtstack_central.a(ble_api.o)
 .text.stack.sleep
                0x0000000000000000       0xac ../../libs/ble/libbtstack_central.a(ble_api.o)
 .text.ble.api.max_mtu
                0x0000000000000000        0x8 ../../libs/ble/libbtstack_central.a(ble_api.o)
 .text.ble.api.adv_dis
                0x0000000000000000        0x2 ../../libs/ble/libbtstack_central.a(ble_api.o)
 .text.ble.api.adv_en
                0x0000000000000000        0x2 ../../libs/ble/libbtstack_central.a(ble_api.o)
 .text.ble.api.adv_is_en
                0x0000000000000000        0x8 ../../libs/ble/libbtstack_central.a(ble_api.o)
 .text.ble.api.discon
                0x0000000000000000        0xe ../../libs/ble/libbtstack_central.a(ble_api.o)
 .text.ble.api.adv_data.set
                0x0000000000000000        0x4 ../../libs/ble/libbtstack_central.a(ble_api.o)
 .text.ble.api.scan
                0x0000000000000000        0x4 ../../libs/ble/libbtstack_central.a(ble_api.o)
 .text.ble.api.adv_interval.set
                0x0000000000000000        0x4 ../../libs/ble/libbtstack_central.a(ble_api.o)
 .text.ble.api.adv.adv_interval.get
                0x0000000000000000        0x4 ../../libs/ble/libbtstack_central.a(ble_api.o)
 .text.ble.api.conn.ll_update
                0x0000000000000000        0xa ../../libs/ble/libbtstack_central.a(ble_api.o)
 .text.ble.api.conn_param.get
                0x0000000000000000        0x8 ../../libs/ble/libbtstack_central.a(ble_api.o)
 .text.ble.api.latency.dis
                0x0000000000000000        0x4 ../../libs/ble/libbtstack_central.a(ble_api.o)
 .text.ble.api.latency.en
                0x0000000000000000        0x4 ../../libs/ble/libbtstack_central.a(ble_api.o)
 .text.ble.api.adv_param.set
                0x0000000000000000        0x4 ../../libs/ble/libbtstack_central.a(ble_api.o)
 .text.ble.api.adv
                0x0000000000000000        0x4 ../../libs/ble/libbtstack_central.a(ble_api.o)
 .text.ble.api.rpa
                0x0000000000000000        0x2 ../../libs/ble/libbtstack_central.a(ble_api.o)
 .text.ble.api.rpa_en
                0x0000000000000000        0x2 ../../libs/ble/libbtstack_central.a(ble_api.o)
 .text.ble.api.rpa_add
                0x0000000000000000        0x2 ../../libs/ble/libbtstack_central.a(ble_api.o)
 .text.ble.api.rpa_dev
                0x0000000000000000        0x2 ../../libs/ble/libbtstack_central.a(ble_api.o)
 .text.ble.api.wlist_add
                0x0000000000000000        0x2 ../../libs/ble/libbtstack_central.a(ble_api.o)
 .text.ble.api.wlist_dev
                0x0000000000000000        0x2 ../../libs/ble/libbtstack_central.a(ble_api.o)
 .text.ble.api.wlist
                0x0000000000000000        0x4 ../../libs/ble/libbtstack_central.a(ble_api.o)
 .text.ble.api.sm.passkey
                0x0000000000000000       0x2c ../../libs/ble/libbtstack_central.a(ble_api.o)
 .text.ble.api.sm_req
                0x0000000000000000        0xe ../../libs/ble/libbtstack_central.a(ble_api.o)
 .text.ble.bond.delete_addr
                0x0000000000000000        0x8 ../../libs/ble/libbtstack_central.a(ble_api.o)
 .text.ble.bond.delete_index
                0x0000000000000000        0x8 ../../libs/ble/libbtstack_central.a(ble_api.o)
 .text.ble.bond.delete_all
                0x0000000000000000        0x8 ../../libs/ble/libbtstack_central.a(ble_api.o)
 .text.ble.bond.get_cnt
                0x0000000000000000       0x1c ../../libs/ble/libbtstack_central.a(ble_api.o)
 .text.ble.bond.get_info
                0x0000000000000000        0x8 ../../libs/ble/libbtstack_central.a(ble_api.o)
 .text.ble.bond.get_index
                0x0000000000000000        0x8 ../../libs/ble/libbtstack_central.a(ble_api.o)
 .text.ble.api.get_rssi
                0x0000000000000000        0x8 ../../libs/ble/libbtstack_central.a(ble_api.o)
 .text.ble.set_static_addr
                0x0000000000000000       0x48 ../../libs/ble/libbtstack_central.a(ble_api.o)
 .text.ble.single_mode
                0x0000000000000000       0x48 ../../libs/ble/libbtstack_central.a(ble_api.o)
 .data          0x0000000000000000        0x0 ../../libs/ble/libbtstack_central.a(txpkt.o)
 .bss           0x0000000000000000        0x0 ../../libs/ble/libbtstack_central.a(txpkt.o)
 .text          0x0000000000000000        0x0 ../../libs/ble/libbtstack_central.a(platform.o)
 .data          0x0000000000000000        0x0 ../../libs/ble/libbtstack_central.a(platform.o)
 .bss           0x0000000000000000        0x0 ../../libs/ble/libbtstack_central.a(platform.o)
 .com_text.bb.dbg.bt21
                0x0000000000000000        0x4 ../../libs/ble/libbtstack_central.a(platform.o)
 .data          0x0000000000000000        0x0 ../../libs/ble/libbtstack_central.a(rf.o)
 .bss           0x0000000000000000        0x0 ../../libs/ble/libbtstack_central.a(rf.o)
 .com_text.bb.isr.lv
                0x0000000000000000       0x3e ../../libs/ble/libbtstack_central.a(rf.o)
 .com_text.bb.isr.dbm
                0x0000000000000000       0x12 ../../libs/ble/libbtstack_central.a(rf.o)
 .com_sleep.bb  0x0000000000000000       0xae ../../libs/ble/libbtstack_central.a(rf.o)
 .btmem.rf.dc   0x0000000000000000       0x48 ../../libs/ble/libbtstack_central.a(rf.o)
 .com_rodata.bb.tbl
                0x0000000000000000        0x8 ../../libs/ble/libbtstack_central.a(rf.o)
 .sbss          0x0000000000000000        0x1 ../../libs/ble/libbtstack_central.a(rf.o)
 .data          0x0000000000000000        0x0 ../../libs/ble/libbtstack_central.a(hct_proc.o)
 .bss           0x0000000000000000        0x0 ../../libs/ble/libbtstack_central.a(hct_proc.o)
 .data          0x0000000000000000        0x0 ../../libs/ble/libbtstack_central.a(hct.o)
 .bss           0x0000000000000000        0x0 ../../libs/ble/libbtstack_central.a(hct.o)
 .data          0x0000000000000000        0x0 ../../libs/ble/libbtstack_central.a(mgr_hci.o)
 .bss           0x0000000000000000        0x0 ../../libs/ble/libbtstack_central.a(mgr_hci.o)
 .data          0x0000000000000000        0x0 ../../libs/ble/libbtstack_central.a(mgr.o)
 .bss           0x0000000000000000        0x0 ../../libs/ble/libbtstack_central.a(mgr.o)
 .data          0x0000000000000000        0x0 ../../libs/ble/libbtstack_central.a(ll_scan.o)
 .bss           0x0000000000000000        0x0 ../../libs/ble/libbtstack_central.a(ll_scan.o)
 .text          0x0000000000000000        0x0 ../../libs/ble/libbtstack_central.a(ll.o)
 .data          0x0000000000000000        0x0 ../../libs/ble/libbtstack_central.a(ll.o)
 .bss           0x0000000000000000        0x0 ../../libs/ble/libbtstack_central.a(ll.o)
 .data          0x0000000000000000        0x0 ../../libs/ble/libbtstack_central.a(ble_hal.o)
 .bss           0x0000000000000000        0x0 ../../libs/ble/libbtstack_central.a(ble_hal.o)
 .data          0x0000000000000000        0x0 ../../libs/ble/libbtstack_central.a(ble_con.o)
 .bss           0x0000000000000000        0x0 ../../libs/ble/libbtstack_central.a(ble_con.o)
 .com_rodata.bb.tbl
                0x0000000000000000       0x10 ../../libs/ble/libbtstack_central.a(ble_con.o)
 .data          0x0000000000000000        0x0 ../../libs/ble/libbtstack_central.a(ble_buf.o)
 .text          0x0000000000000000       0x3e ../../libs/ble/libbtstack_central.a(bb_utils.o)
 .data          0x0000000000000000        0x0 ../../libs/ble/libbtstack_central.a(bb_utils.o)
 .bss           0x0000000000000000        0x0 ../../libs/ble/libbtstack_central.a(bb_utils.o)
 .com_rodata.bb.tbl.r2m
                0x0000000000000000        0x4 ../../libs/ble/libbtstack_central.a(bb_utils.o)
 .com_rodata.bb.tbl.rate.dur
                0x0000000000000000        0x5 ../../libs/ble/libbtstack_central.a(bb_utils.o)
 .srodata       0x0000000000000000        0x5 ../../libs/ble/libbtstack_central.a(bb_utils.o)
 .data          0x0000000000000000        0x0 ../../libs/ble/libbtstack_central.a(bb_int.o)
 .bss           0x0000000000000000        0x0 ../../libs/ble/libbtstack_central.a(bb_int.o)
 .com_text.bb.hs_get
                0x0000000000000000       0x22 ../../libs/ble/libbtstack_central.a(bb_int.o)
 .com_sleep.bb  0x0000000000000000      0x1d2 ../../libs/ble/libbtstack_central.a(bb_int.o)
 .data          0x0000000000000000        0x0 ../../libs/ble/libbtstack_central.a(bb.o)
 .bss           0x0000000000000000        0x0 ../../libs/ble/libbtstack_central.a(bb.o)
 .text          0x0000000000000000        0x0 ../../libs/ble/libbtstack_central.a(periph.o)
 .data          0x0000000000000000        0x0 ../../libs/ble/libbtstack_central.a(periph.o)
 .bss           0x0000000000000000        0x0 ../../libs/ble/libbtstack_central.a(periph.o)
 .text.huart    0x0000000000000000        0x4 ../../libs/ble/libbtstack_central.a(periph.o)
 .com_text.huart
                0x0000000000000000       0x10 ../../libs/ble/libbtstack_central.a(periph.o)
 .comment       0x0000000000000000       0x13 ../../libs/ble/libbtstack_central.a(periph.o)
 .riscv.attributes
                0x0000000000000000       0x32 ../../libs/ble/libbtstack_central.a(periph.o)
 .data          0x0000000000000000        0x0 ../../libs/ble/libbtstack_central.a(extern_ble.o)
 .bss           0x0000000000000000        0x0 ../../libs/ble/libbtstack_central.a(extern_ble.o)
 .sbss          0x0000000000000000        0x1 ../../libs/ble/libbtstack_central.a(extern_ble.o)
 .data          0x0000000000000000        0x0 ../../libs/ble/libbtstack_central.a(l2cap.o)
 .bss           0x0000000000000000        0x0 ../../libs/ble/libbtstack_central.a(l2cap.o)
 .text.stack.l2cap.connectionless
                0x0000000000000000       0x58 ../../libs/ble/libbtstack_central.a(l2cap.o)
 .text.l2cap.mtu_max
                0x0000000000000000        0x6 ../../libs/ble/libbtstack_central.a(l2cap.o)
 .text.l2cap.mtu_set
                0x0000000000000000       0x18 ../../libs/ble/libbtstack_central.a(l2cap.o)
 .text          0x0000000000000000       0x18 ../../libs/ble/libbtstack_central.a(hci_dump.o)
 .data          0x0000000000000000        0xc ../../libs/ble/libbtstack_central.a(hci_dump.o)
 .bss           0x0000000000000000        0x0 ../../libs/ble/libbtstack_central.a(hci_dump.o)
 .rodata.str1.4
                0x0000000000000000       0x12 ../../libs/ble/libbtstack_central.a(hci_dump.o)
 .text.stack.util
                0x0000000000000000       0x82 ../../libs/ble/libbtstack_central.a(hci_dump.o)
 .text          0x0000000000000000        0x0 ../../libs/ble/libbtstack_central.a(hci_cmd.o)
 .data          0x0000000000000000        0x0 ../../libs/ble/libbtstack_central.a(hci_cmd.o)
 .bss           0x0000000000000000        0x0 ../../libs/ble/libbtstack_central.a(hci_cmd.o)
 .rodata.stack.hci_send.ch
                0x0000000000000000        0x8 ../../libs/ble/libbtstack_central.a(hci_cmd.o)
 .rodata.stack.hci_send.chm
                0x0000000000000000        0x8 ../../libs/ble/libbtstack_central.a(hci_cmd.o)
 .rodata.stack.hci_send.featrue
                0x0000000000000000        0x8 ../../libs/ble/libbtstack_central.a(hci_cmd.o)
 .rodata.stack.hci_send.read_sugg_len
                0x0000000000000000        0x8 ../../libs/ble/libbtstack_central.a(hci_cmd.o)
 .rodata.stack.hci_send.rx_test
                0x0000000000000000        0x8 ../../libs/ble/libbtstack_central.a(hci_cmd.o)
 .rodata.stack.hci_send.set_len
                0x0000000000000000        0x8 ../../libs/ble/libbtstack_central.a(hci_cmd.o)
 .rodata.stack.hci_send.sup_sta
                0x0000000000000000        0x8 ../../libs/ble/libbtstack_central.a(hci_cmd.o)
 .rodata.stack.hci_send.test_end
                0x0000000000000000        0x8 ../../libs/ble/libbtstack_central.a(hci_cmd.o)
 .rodata.stack.hci_send.tx_test
                0x0000000000000000        0x8 ../../libs/ble/libbtstack_central.a(hci_cmd.o)
 .srodata       0x0000000000000000        0x8 ../../libs/ble/libbtstack_central.a(hci_cmd.o)
 .data          0x0000000000000000        0x0 ../../libs/ble/libbtstack_central.a(btstack_run_loop.o)
 .bss           0x0000000000000000        0x0 ../../libs/ble/libbtstack_central.a(btstack_run_loop.o)
 .com_text.stack.api
                0x0000000000000000        0xc ../../libs/ble/libbtstack_central.a(btstack_run_loop.o)
 .data          0x0000000000000000        0x0 ../../libs/ble/libbtstack_central.a(btstack_memory.o)
 .text.stack.memory
                0x0000000000000000       0x12 ../../libs/ble/libbtstack_central.a(btstack_memory.o)
 .text.stack.setup
                0x0000000000000000        0x2 ../../libs/ble/libbtstack_central.a(btstack_memory.o)
 .data          0x0000000000000000        0x0 ../../libs/ble/libbtstack_central.a(btstack_main.o)
 .bss           0x0000000000000000        0x0 ../../libs/ble/libbtstack_central.a(btstack_main.o)
 .data          0x0000000000000000        0x0 ../../libs/ble/libbtstack_central.a(nanos.o)
 .bss           0x0000000000000000        0x0 ../../libs/ble/libbtstack_central.a(nanos.o)
 .com_text.ret.bb
                0x0000000000000000        0x2 ../../libs/ble/libbtstack_central.a(nanos.o)
 .data          0x0000000000000000        0x0 ../../libs/ble/libbtstack_central.a(bb_sche.o)
 .com_sleep.bb  0x0000000000000000        0xa ../../libs/ble/libbtstack_central.a(bb_sche.o)
 .data          0x0000000000000000        0x0 ../../libs/ble/libbtstack_central.a(patch.o)
 .bss           0x0000000000000000        0x0 ../../libs/ble/libbtstack_central.a(patch.o)
 .text          0x0000000000000000        0x0 ../../libs/ble/libbtstack_central.a(bb_dbg.o)
 .data          0x0000000000000000        0x0 ../../libs/ble/libbtstack_central.a(bb_dbg.o)
 .bss           0x0000000000000000        0x0 ../../libs/ble/libbtstack_central.a(bb_dbg.o)
 .com_text.spi_init
                0x0000000000000000       0x60 ../../libs/ble/libbtstack_central.a(bb_dbg.o)
 .com_text.bb.putc
                0x0000000000000000       0x60 ../../libs/ble/libbtstack_central.a(bb_dbg.o)
 .text          0x0000000000000000        0x0 ../../libs/ble/libbtstack_central.a(bb_clk.o)
 .data          0x0000000000000000        0x0 ../../libs/ble/libbtstack_central.a(bb_clk.o)
 .bss           0x0000000000000000        0x0 ../../libs/ble/libbtstack_central.a(bb_clk.o)
 .text          0x0000000000000000        0x0 ../../libs/ble/libbtstack_central.a(aes.o)
 .data          0x0000000000000000        0x0 ../../libs/ble/libbtstack_central.a(aes.o)
 .com_text.bb.isr
                0x0000000000000000       0x28 ../../libs/ble/libbtstack_central.a(aes.o)
 .text.bb.aes.ecpy
                0x0000000000000000       0xe8 ../../libs/ble/libbtstack_central.a(aes.o)
 .data          0x0000000000000000        0x0 ../../libs/ble/libbtstack_central.a(extern.o)
 .bss           0x0000000000000000        0x0 ../../libs/ble/libbtstack_central.a(extern.o)
 .text.bsp.param
                0x0000000000000000        0x2 ../../libs/ble/libbtstack_central.a(extern.o)
 .com_sleep.sleep
                0x0000000000000000        0x2 ../../libs/ble/libbtstack_central.a(extern.o)
 .com_sleep.bb  0x0000000000000000        0x8 ../../libs/ble/libbtstack_central.a(extern.o)
 .com_text.ble.phy
                0x0000000000000000        0x4 ../../libs/ble/libbtstack_central.a(extern.o)
 .data          0x0000000000000000        0x0 ../../libs/ble/libbtstack_central.a(vs.o)
 .bss           0x0000000000000000        0x0 ../../libs/ble/libbtstack_central.a(vs.o)
 .bss           0x0000000000000000        0x0 ../../libs/ble/libbtstack_central.a(rf_mate.o)
 .text.rf.vddvco.set
                0x0000000000000000       0x18 ../../libs/ble/libbtstack_central.a(rf_mate.o)
 .text.rf.vddvco.get
                0x0000000000000000        0xa ../../libs/ble/libbtstack_central.a(rf_mate.o)
 .text.rf.pll.set
                0x0000000000000000       0x12 ../../libs/ble/libbtstack_central.a(rf_mate.o)
 .text.rf.tx_pwr.set
                0x0000000000000000      0x10a ../../libs/ble/libbtstack_central.a(rf_mate.o)
 .data          0x0000000000000000        0x0 ../../libs/ble/libbtstack_central.a(scan_hook.o)
 .bss           0x0000000000000000        0x0 ../../libs/ble/libbtstack_central.a(scan_hook.o)
 .data          0x0000000000000000        0x0 ../../libs/ble/libbtstack_central.a(ble_hook.o)
 .bss           0x0000000000000000        0x0 ../../libs/ble/libbtstack_central.a(ble_hook.o)
 .text          0x0000000000000000        0x0 ../../libs/ble/libbtstack_central.a(hct_tl.o)
 .data          0x0000000000000000        0x0 ../../libs/ble/libbtstack_central.a(hct_tl.o)
 .bss           0x0000000000000000        0x0 ../../libs/ble/libbtstack_central.a(hct_tl.o)
 .com_text.bb.sleep
                0x0000000000000000        0x4 ../../libs/ble/libbtstack_central.a(hct_tl.o)
 .comment       0x0000000000000000       0x13 ../../libs/ble/libbtstack_central.a(hct_tl.o)
 .riscv.attributes
                0x0000000000000000       0x32 ../../libs/ble/libbtstack_central.a(hct_tl.o)
 .data          0x0000000000000000        0x0 ../../libs/ble/libbtstack_central.a(hct_msg.o)
 .bss           0x0000000000000000        0x0 ../../libs/ble/libbtstack_central.a(hct_msg.o)
 .data          0x0000000000000000        0x0 ../../libs/ble/libbtstack_central.a(mgr_test.o)
 .bss           0x0000000000000000        0x0 ../../libs/ble/libbtstack_central.a(mgr_test.o)
 .data          0x0000000000000000        0x0 ../../libs/ble/libbtstack_central.a(mgr_proc.o)
 .bss           0x0000000000000000        0x0 ../../libs/ble/libbtstack_central.a(mgr_proc.o)
 .data          0x0000000000000000        0x0 ../../libs/ble/libbtstack_central.a(mgr_init.o)
 .bss           0x0000000000000000        0x0 ../../libs/ble/libbtstack_central.a(mgr_init.o)
 .data          0x0000000000000000        0x0 ../../libs/ble/libbtstack_central.a(ll_proc.o)
 .bss           0x0000000000000000        0x0 ../../libs/ble/libbtstack_central.a(ll_proc.o)
 .data          0x0000000000000000        0x0 ../../libs/ble/libbtstack_central.a(ll_phy_upd.o)
 .bss           0x0000000000000000        0x0 ../../libs/ble/libbtstack_central.a(ll_phy_upd.o)
 .data          0x0000000000000000        0x0 ../../libs/ble/libbtstack_central.a(ll_length.o)
 .bss           0x0000000000000000        0x0 ../../libs/ble/libbtstack_central.a(ll_length.o)
 .data          0x0000000000000000        0x0 ../../libs/ble/libbtstack_central.a(ll_feature.o)
 .bss           0x0000000000000000        0x0 ../../libs/ble/libbtstack_central.a(ll_feature.o)
 .data          0x0000000000000000        0x0 ../../libs/ble/libbtstack_central.a(ll_encrypt.o)
 .bss           0x0000000000000000        0x0 ../../libs/ble/libbtstack_central.a(ll_encrypt.o)
 .data          0x0000000000000000        0x0 ../../libs/ble/libbtstack_central.a(ll_disconnect.o)
 .bss           0x0000000000000000        0x0 ../../libs/ble/libbtstack_central.a(ll_disconnect.o)
 .data          0x0000000000000000        0x0 ../../libs/ble/libbtstack_central.a(ll_con_upd.o)
 .bss           0x0000000000000000        0x0 ../../libs/ble/libbtstack_central.a(ll_con_upd.o)
 .data          0x0000000000000000        0x0 ../../libs/ble/libbtstack_central.a(ll_cntl.o)
 .bss           0x0000000000000000        0x0 ../../libs/ble/libbtstack_central.a(ll_cntl.o)
 .text          0x0000000000000000        0x0 ../../libs/ble/libbtstack_central.a(ll_clk_acc.o)
 .data          0x0000000000000000        0x0 ../../libs/ble/libbtstack_central.a(ll_clk_acc.o)
 .bss           0x0000000000000000        0x0 ../../libs/ble/libbtstack_central.a(ll_clk_acc.o)
 .data          0x0000000000000000        0x0 ../../libs/ble/libbtstack_central.a(ll_chmap_upd.o)
 .bss           0x0000000000000000        0x0 ../../libs/ble/libbtstack_central.a(ll_chmap_upd.o)
 .data          0x0000000000000000        0x0 ../../libs/ble/libbtstack_central.a(ble_test.o)
 .bss           0x0000000000000000        0x0 ../../libs/ble/libbtstack_central.a(ble_test.o)
 .data          0x0000000000000000        0x0 ../../libs/ble/libbtstack_central.a(ble_scan.o)
 .bss           0x0000000000000000        0x0 ../../libs/ble/libbtstack_central.a(ble_scan.o)
 .com_rodata.bb.tbl
                0x0000000000000000        0x7 ../../libs/ble/libbtstack_central.a(ble_scan.o)
 .data          0x0000000000000000        0x0 ../../libs/ble/libbtstack_central.a(ble_init.o)
 .bss           0x0000000000000000        0x0 ../../libs/ble/libbtstack_central.a(ble_init.o)
 .com_rodata.bb.tbl
                0x0000000000000000        0x8 ../../libs/ble/libbtstack_central.a(ble_init.o)
 .data          0x0000000000000000        0x0 ../../libs/ble/libbtstack_central.a(ble.o)
 .bss           0x0000000000000000        0x0 ../../libs/ble/libbtstack_central.a(ble.o)
 .text          0x0000000000000000        0x0 ../../libs/ble/libbtstack_central.a(bb_sleep.o)
 .data          0x0000000000000000        0x0 ../../libs/ble/libbtstack_central.a(bb_sleep.o)
 .bss           0x0000000000000000        0x0 ../../libs/ble/libbtstack_central.a(bb_sleep.o)
 .com_sleep.bb  0x0000000000000000       0xa2 ../../libs/ble/libbtstack_central.a(bb_sleep.o)
 .comment       0x0000000000000000       0x13 ../../libs/ble/libbtstack_central.a(bb_sleep.o)
 .riscv.attributes
                0x0000000000000000       0x32 ../../libs/ble/libbtstack_central.a(bb_sleep.o)
 .text          0x0000000000000000        0x0 ../../libs/ble/libbtstack_central.a(bb_alarm.o)
 .data          0x0000000000000000        0x0 ../../libs/ble/libbtstack_central.a(bb_alarm.o)
 .bss           0x0000000000000000        0x0 ../../libs/ble/libbtstack_central.a(bb_alarm.o)
 .com_text.bb.isr.nest
                0x0000000000000000        0xa ../../libs/ble/libbtstack_central.a(bb_alarm.o)
 .com_text.bb.timer.check
                0x0000000000000000       0x20 ../../libs/ble/libbtstack_central.a(bb_alarm.o)
 .com_text.bb.timer.push
                0x0000000000000000       0x78 ../../libs/ble/libbtstack_central.a(bb_alarm.o)
 .text          0x0000000000000000        0x0 ../../libs/ble/libbtstack_central.a(l2cap_signaling.o)
 .data          0x0000000000000000        0x0 ../../libs/ble/libbtstack_central.a(l2cap_signaling.o)
 .bss           0x0000000000000000        0x0 ../../libs/ble/libbtstack_central.a(l2cap_signaling.o)
 .text          0x0000000000000000        0x0 ../../libs/ble/libbtstack_central.a(btstack_memory_pool.o)
 .data          0x0000000000000000        0x0 ../../libs/ble/libbtstack_central.a(btstack_memory_pool.o)
 .bss           0x0000000000000000        0x0 ../../libs/ble/libbtstack_central.a(btstack_memory_pool.o)
 .text          0x0000000000000000        0x0 ../../libs/ble/libbtstack_central.a(patch_asm.o)
 .data          0x0000000000000000        0x0 ../../libs/ble/libbtstack_central.a(patch_asm.o)
 .bss           0x0000000000000000        0x0 ../../libs/ble/libbtstack_central.a(patch_asm.o)
 .data          0x0000000000000000        0x0 ../../libs/ble/libbtstack_central.a(vs_proc.o)
 .bss           0x0000000000000000        0x0 ../../libs/ble/libbtstack_central.a(vs_proc.o)
 .text          0x0000000000000000        0x0 ../../libs/ble/libbtstack_central.a(vs_fcc.o)
 .data          0x0000000000000000        0x0 ../../libs/ble/libbtstack_central.a(vs_fcc.o)
 .bss           0x0000000000000000        0x0 ../../libs/ble/libbtstack_central.a(vs_fcc.o)
 .data          0x0000000000000000        0x0 ../../libs/ble/libbtstack_central.a(ll_version.o)
 .bss           0x0000000000000000        0x0 ../../libs/ble/libbtstack_central.a(ll_version.o)
 .data          0x0000000000000000        0x0 ../../libs/ble/libbtstack_central.a(ble_sync.o)
 .bss           0x0000000000000000        0x0 ../../libs/ble/libbtstack_central.a(ble_sync.o)

Memory Configuration

Name             Origin             Length             Attributes
init             0x0000000010000000 0x0000000000000200
flash            0x0000000010000200 0x000000000003e000 xr
stack            0x0000000000010800 0x0000000000000400
sram             0x0000000000010c00 0x0000000000005400
pdn_comm         0x0000000000010c00 0x0000000000000400
*default*        0x0000000000000000 0xffffffffffffffff

Linker script and memory map

LOAD client_output/obj/driver/driver_clk.o
LOAD client_output/obj/driver/driver_gpio.o
LOAD client_output/obj/driver/driver_hsuart.o
LOAD client_output/obj/driver/driver_keyscan.o
LOAD client_output/obj/driver/driver_ledc.o
LOAD client_output/obj/driver/driver_lowpwr.o
LOAD client_output/obj/driver/driver_pwm.o
LOAD client_output/obj/driver/driver_rtc.o
LOAD client_output/obj/driver/driver_saradc.o
LOAD client_output/obj/driver/driver_spi.o
LOAD client_output/obj/driver/driver_tmr.o
LOAD client_output/obj/driver/driver_uart.o
LOAD client_output/obj/driver/driver_wdt.o
LOAD client_output/obj/app/func.o
LOAD client_output/obj/app/func_bt.o
LOAD client_output/obj/app/func_idle.o
LOAD client_output/obj/app/func_iodm.o
LOAD client_output/obj/app/func_le_bqb_rf.o
LOAD client_output/obj/app/func_le_fcc.o
LOAD client_output/obj/app/func_lowpwr.o
LOAD client_output/obj/app/func_tbox.o
LOAD client_output/obj/ble/ble_adv.o
LOAD client_output/obj/ble/ble_alarm.o
LOAD client_output/obj/ble/ble_client.o
LOAD client_output/obj/ble/ble_fota_service.o
LOAD client_output/obj/ble/ble_init.o
LOAD client_output/obj/ble/ble_proc.o
LOAD client_output/obj/ble/ble_profile.o
LOAD client_output/obj/ble/ble_service.o
LOAD client_output/obj/ble/ble_user_service.o
LOAD client_output/obj/bsp/bsp_huart.o
LOAD client_output/obj/bsp/bsp_huart_iodm.o
LOAD client_output/obj/bsp/bsp_io_key.o
LOAD client_output/obj/bsp/bsp_key.o
LOAD client_output/obj/bsp/bsp_param.o
LOAD client_output/obj/bsp/bsp_saradc.o
LOAD client_output/obj/bsp/bsp_saradc_key.o
LOAD client_output/obj/bsp/bsp_saradc_tsen.o
LOAD client_output/obj/bsp/bsp_saradc_vbat.o
LOAD client_output/obj/bsp/bsp_sys.o
LOAD client_output/obj/bsp/bsp_uart_debug.o
LOAD client_output/obj/bsp/bsp_uart_transfer.o
LOAD client_output/obj/prod_test/prod_test.o
LOAD client_output/obj/prod_test/iodm/prod_test_iodm.o
LOAD client_output/obj/prod_test/tbox/prod_test_tbox.o
LOAD client_output/obj/prod_test/tbox/tbox_key.o
LOAD client_output/obj/main.o
LOAD client_output/obj/strong_ble.o
LOAD client_output/obj/strong_symbol.o
                0x000000000003e000                __max_flash_size = 0x3e000
                0x0000000010000000                __base = 0x10000000
                0x0000000000010600                __cache_stack_vma = 0x10600
                0x0000000000000200                __cache_stack_size = 0x200
                0x0000000000010800                __stack_vma = 0x10800
                0x0000000000000400                __stack_ram_size = 0x400
                0x0000000000010c00                __sram_vma = 0x10c00
                0x0000000000005400                __sram_ram_size = 0x5400
                0x0000000000013a00                __comm_vma = __comm_start
                0x0000000000000400                __pdn_comm_ram_size = 0x400
                0x0000000000010c00                __pdn_comm_vma = __sram_vma

.init           0x0000000010000000       0x4e
 *(.reset)
 .reset         0x0000000010000000       0x4e ../../libs/cpu/libplatform.a(reset.o)
                0x0000000010000000                _start

.bss            0x0000000000010c00     0x2e00
                0x0000000000010c00                __bss_start = .
 *(.btmem.bthw)
 .btmem.bthw    0x0000000000010c00      0x780 ../../libs/ble/libbtstack_central.a(bb.o)
                0x0000000000010c00                bthw_mem
 *(.btmem*)
 .btmem.cache.stack.hci
                0x0000000000011380      0x10b ../../libs/ble/libbtstack_central.a(hci.o)
 *fill*         0x000000000001148b        0x1 
 .btmem.stack.hci_buf
                0x000000000001148c      0x1e4 ../../libs/ble/libbtstack_central.a(hci.o)
 .btmem.stack.util
                0x0000000000011670       0x12 ../../libs/ble/libbtstack_central.a(btstack_util.o)
 *fill*         0x0000000000011682        0x2 
 .btmem.hci.transport.h3
                0x0000000000011684        0x4 ../../libs/ble/libbtstack_central.a(hci_transport_h3_controller.o)
                0x0000000000011684                p_hci_transport
 .btmem.hct.env
                0x0000000000011688       0x40 ../../libs/ble/libbtstack_central.a(hct_proc.o)
 .btmem.bb.hci  0x00000000000116c8        0x2 ../../libs/ble/libbtstack_central.a(hct.o)
                0x00000000000116c8                hci_env
 *fill*         0x00000000000116ca        0x2 
 .btmem.ble.lm  0x00000000000116cc      0x154 ../../libs/ble/libbtstack_central.a(mgr.o)
                0x00000000000116cc                mgr_env
 .btmem.ble.lc  0x0000000000011820        0x8 ../../libs/ble/libbtstack_central.a(ll.o)
                0x0000000000011820                ll_env
 .btmem.ble.hal
                0x0000000000011828      0x127 ../../libs/ble/libbtstack_central.a(ble_hal.o)
                0x0000000000011828                ble_env
                0x0000000000011944                ble_exp_sync_pos_tab
 *fill*         0x000000000001194f        0x1 
 .btmem.ble.con
                0x0000000000011950        0x8 ../../libs/ble/libbtstack_central.a(ble_con.o)
                0x0000000000011950                ble_con_env
 .btmem.ble.buf
                0x0000000000011958       0x30 ../../libs/ble/libbtstack_central.a(ble_buf.o)
 .btmem.bb.env  0x0000000000011988       0x60 ../../libs/ble/libbtstack_central.a(bb_int.o)
                0x0000000000011988                bb_env
 .btmem.alloc.bb.buf
                0x00000000000119e8      0x51c ../../libs/ble/libbtstack_central.a(bb.o)
 .btmem.bb.buf  0x0000000000011f04      0x454 ../../libs/ble/libbtstack_central.a(bb.o)
 .btmem.bb.rf   0x0000000000012358        0x3 ../../libs/ble/libbtstack_central.a(bb.o)
                0x0000000000012358                rf_api
 *fill*         0x000000000001235b        0x1 
 .btmem.stack   0x000000000001235c       0x14 ../../libs/ble/libbtstack_central.a(btstack_run_loop.o)
 .btmem.bb.buf  0x0000000000012370       0x34 ../../libs/ble/libbtstack_central.a(nanos.o)
 .btmem.ble.test
                0x00000000000123a4        0x4 ../../libs/ble/libbtstack_central.a(ble_test.o)
 .btmem.ble.scan
                0x00000000000123a8        0x8 ../../libs/ble/libbtstack_central.a(ble_scan.o)
 .btmem.ble.init
                0x00000000000123b0        0x4 ../../libs/ble/libbtstack_central.a(ble_init.o)
 .btmem.bb.ble.tbl
                0x00000000000123b4       0x10 ../../libs/ble/libbtstack_central.a(ble.o)
 .btmem.bb.timer
                0x00000000000123c4        0x8 ../../libs/ble/libbtstack_central.a(bb_alarm.o)
 .btmem.bb.vs   0x00000000000123cc        0xd ../../libs/ble/libbtstack_central.a(vs_proc.o)
                0x00000000000123cc                vs_env
 *(.osmem*)
 *fill*         0x00000000000123d9        0x3 
 .osmem         0x00000000000123dc      0xc48 client_output/obj/strong_symbol.o
                0x00000000000123dc                mem_heap
 *(COMMON)
 COMMON         0x0000000000013024      0x2ac client_output/obj/ble/ble_client.o
                0x0000000000013024                server_info
                0x00000000000132cc                REPORT_TYPE
 COMMON         0x00000000000132d0       0x37 client_output/obj/bsp/bsp_sys.o
                0x00000000000132d0                tmr5ms_cnt
                0x00000000000132d4                xcfg_cb
 *(.bss*)
 *fill*         0x0000000000013307        0x1 
 .bss.periph.saradc
                0x0000000000013308       0x24 client_output/obj/driver/driver_saradc.o
 .bss           0x000000000001332c       0x10 client_output/obj/ble/ble_client.o
 .bss.cm        0x000000000001333c      0x14c ../../libs/cpu/libplatform.a(cm.o)
                0x000000000001333c                cm
 .bss.sys       0x0000000000013488       0x18 ../../libs/cpu/libplatform.a(main.o)
                0x0000000000013488                sys
 .bss.irq_tbl   0x00000000000134a0       0x88 ../../libs/cpu/libplatform.a(interrupt.o)
 .bss.sys.timer
                0x0000000000013528        0x8 ../../libs/cpu/libplatform.a(interrupt.o)
 .bss.btstack   0x0000000000013530        0x4 ../../libs/cpu/libplatform.a(startup.o)
                0x0000000000013530                pmq_btstack
 .bss           0x0000000000013534       0x30 ../../libs/ble/libbtstack_central.a(sm.o)
 .bss.hct.env   0x0000000000013564       0x18 ../../libs/ble/libbtstack_central.a(hct_proc.o)
 .bss           0x000000000001357c       0x50 ../../libs/ble/libbtstack_central.a(ble_buf.o)
 .bss.stack.l2cap
                0x00000000000135cc       0x3c ../../libs/ble/libbtstack_central.a(l2cap.o)
 .bss           0x0000000000013608       0x6c ../../libs/ble/libbtstack_central.a(btstack_memory.o)
 .bss           0x0000000000013674      0x128 ../../libs/ble/libbtstack_central.a(bb_sche.o)
 .bss           0x000000000001379c        0xc ../../libs/ble/libbtstack_central.a(aes.o)
                0x000000000001379c                aes_env
 .bss.bb.timer  0x00000000000137a8        0x1 ../../libs/ble/libbtstack_central.a(bb_alarm.o)
 *(.sbss*)
 *fill*         0x00000000000137a9        0x3 
 .sbss          0x00000000000137ac        0x4 client_output/obj/ble/ble_client.o
 .sbss          0x00000000000137b0        0x4 client_output/obj/ble/ble_init.o
                0x00000000000137b0                cfg_bt_work_mode
 .sbss.spi_baud_r
                0x00000000000137b4        0x4 ../../libs/cpu/libplatform.a(os_flash.o)
                0x00000000000137b4                spi_baud_r
 .sbss.spi_baud_w
                0x00000000000137b8        0x4 ../../libs/cpu/libplatform.a(os_flash.o)
                0x00000000000137b8                spi_baud_w
 .sbss.pmutex_clk
                0x00000000000137bc        0x4 ../../libs/cpu/libplatform.a(startup.o)
                0x00000000000137bc                pmutex_clk
 .sbss.pmutex_cm
                0x00000000000137c0        0x4 ../../libs/cpu/libplatform.a(startup.o)
                0x00000000000137c0                pmutex_cm
 .sbss.psem_btstack
                0x00000000000137c4        0x4 ../../libs/cpu/libplatform.a(startup.o)
                0x00000000000137c4                psem_btstack
 .sbss.soft_timer_isr_en
                0x00000000000137c8        0x4 ../../libs/cpu/libplatform.a(startup.o)
                0x00000000000137c8                soft_timer_isr_en
 .sbss.fot_update_success
                0x00000000000137cc        0x1 ../../libs/cpu/libplatform.a(fot_pack.o)
 *fill*         0x00000000000137cd        0x3 
 .sbss.lock_cb  0x00000000000137d0        0x8 ../../libs/cpu/libplatform.a(lock.o)
 .sbss.sys_trim
                0x00000000000137d8        0x8 ../../libs/cpu/libplatform.a(voltage_trim.o)
                0x00000000000137d8                sys_trim
 .sbss          0x00000000000137e0       0x11 ../../libs/ble/libbtstack_central.a(sm.o)
 *fill*         0x00000000000137f1        0x3 
 .sbss          0x00000000000137f4        0x4 ../../libs/ble/libbtstack_central.a(gatt_client.o)
 .sbss          0x00000000000137f8        0x4 ../../libs/ble/libbtstack_central.a(att_server.o)
 .sbss          0x00000000000137fc        0xc ../../libs/ble/libbtstack_central.a(att_dispatch.o)
 .sbss          0x0000000000013808       0x10 ../../libs/ble/libbtstack_central.a(att_db.o)
 .sbss          0x0000000000013818        0x2 ../../libs/ble/libbtstack_central.a(btstack_api.o)
                0x0000000000013818                btstack_cb
 .sbss          0x000000000001381a        0x1 ../../libs/ble/libbtstack_central.a(ble_api.o)
 *fill*         0x000000000001381b        0x1 
 .sbss          0x000000000001381c        0x2 ../../libs/ble/libbtstack_central.a(hct_proc.o)
 *fill*         0x000000000001381e        0x2 
 .sbss          0x0000000000013820        0x8 ../../libs/ble/libbtstack_central.a(ble_buf.o)
 .sbss          0x0000000000013828        0x1 ../../libs/ble/libbtstack_central.a(bb.o)
 *fill*         0x0000000000013829        0x1 
 .sbss          0x000000000001382a        0x2 ../../libs/ble/libbtstack_central.a(l2cap.o)
 .sbss          0x000000000001382c        0x4 ../../libs/ble/libbtstack_central.a(btstack_memory.o)
 .sbss          0x0000000000013830        0xc ../../libs/ble/libbtstack_central.a(btstack_main.o)
 .sbss          0x000000000001383c        0x8 ../../libs/ble/libbtstack_central.a(bb_sche.o)
                0x000000000001383c                ss_params
 .sbss          0x0000000000013844        0x1 ../../libs/ble/libbtstack_central.a(mgr_proc.o)
 *fill*         0x0000000000013845        0x3 
 .sbss          0x0000000000013848        0x2 ../../libs/ble/libbtstack_central.a(ll_proc.o)
 *(.buf*)
 *fill*         0x000000000001384a        0x2 
 .buf.func_cb   0x000000000001384c        0x2 client_output/obj/app/func.o
                0x000000000001384c                func_cb
 *fill*         0x000000000001384e        0x2 
 .buf.bsp.sys_cb
                0x0000000000013850        0x8 client_output/obj/bsp/bsp_sys.o
                0x0000000000013850                sys_cb
 *(.ble_cache*)
 .ble_cache.att
                0x0000000000013858       0x8c client_output/obj/ble/ble_init.o
                0x0000000000013858                ble_tx_pool
 .ble_cache.att
                0x00000000000138e4       0x10 ../../libs/ble/libbtstack_central.a(txpkt.o)
                0x00000000000138e4                txpkt_cb
 .ble_cache.sm.addr
                0x00000000000138f4        0x6 ../../libs/ble/libbtstack_central.a(sm.o)
 *fill*         0x00000000000138fa        0x2 
 .ble_cache.sm.aes
                0x00000000000138fc        0x8 ../../libs/ble/libbtstack_central.a(sm.o)
 .ble_cache.sm.irk
                0x0000000000013904       0x10 ../../libs/ble/libbtstack_central.a(sm.o)
 .ble_cache.sm.rand
                0x0000000000013914        0x4 ../../libs/ble/libbtstack_central.a(sm.o)
 .ble_cache.sm.sta
                0x0000000000013918        0x8 ../../libs/ble/libbtstack_central.a(sm.o)
 *(.ble_buf*)
 .ble_buf.var   0x0000000000013920        0x2 client_output/obj/ble/ble_init.o
                0x0000000000013920                ble_cb
 *fill*         0x0000000000013922        0x2 
 .ble_buf.att   0x0000000000013924       0x28 ../../libs/ble/libbtstack_central.a(gatt_client.o)
 *(.fot_data.*)
 *(.tbox.*)
 *(.notch_iir*)
 *(.prod_test*)
 *(.fcc.huart_buf)
 *(.hci.h3*)
                0x0000000000013a00                . = ALIGN (0x100)
 *fill*         0x000000000001394c       0xb4 
                0x0000000000013a00                __bss_end = .
                0x0000000000002e00                __bss_size = (__bss_end - __bss_start)

.comm           0x0000000000013a00      0xc00 load address 0x0000000010000200
                0x0000000000013a00                __comm_start = .
 *(.vector)
 .vector        0x0000000000013a00       0xc8 ../../libs/cpu/libplatform.a(reset.o)
                0x0000000000013aa0                _exception_isr
                0x0000000000013aa2                nop_isr
 *(.com_text*)
 .com_text.ble.phy
                0x0000000000013ac8        0x4 client_output/obj/strong_ble.o
                0x0000000000013ac8                ble_phy_2M_enable
 .com_text.spiflash
                0x0000000000013acc       0x34 client_output/obj/strong_symbol.o
                0x0000000000013acc                os_spiflash_addr_check
 .com_text.spiflash
                0x0000000000013b00       0x90 ../../libs/cpu/libplatform.a(os_flash.o)
                0x0000000000013b04                os_spiflash_addr_check_2
                0x0000000000013b3a                os_spiflash_program
                0x0000000000013b6c                os_spiflash_erase
 .com_text.delay
                0x0000000000013b90       0x54 ../../libs/cpu/libplatform.a(main.o)
                0x0000000000013b90                delay_5ms
                0x0000000000013baa                delay_ms
                0x0000000000013bc2                delay_us
                0x0000000000013bda                delay
 .com_text.irq  0x0000000000013be4       0x70 ../../libs/cpu/libplatform.a(interrupt.o)
                0x0000000000013be4                tick0_isr
                0x0000000000013c3a                tick_get
                0x0000000000013c42                tick_check_expire
 .com_text.trim.lvd_set
                0x0000000000013c54       0x3e ../../libs/cpu/libplatform.a(pmu.o)
                0x0000000000013c54                pmu_set_lvd
                0x0000000000013c80                pmu_set_vbg
 .com_text.patch
                0x0000000000013c92        0xa ../../libs/cpu/libplatform.a(reset.o)
                0x0000000000013c92                spiflash_erase_patch
 .com_text.spiflash.erase
                0x0000000000013c9c       0x34 ../../libs/cpu/libplatform.a(spiflash.o)
                0x0000000000013c9c                spiflash_erase_patch_do
 .com_text.exception
                0x0000000000013cd0        0xa ../../libs/cpu/libplatform.a(debug.o)
                0x0000000000013cd0                exception_isr
 .com_text.exception.hook
                0x0000000000013cda        0x4 ../../libs/cpu/libplatform.a(debug.o)
                0x0000000000013cda                sys_error_hook
 .com_text.sys  0x0000000000013cde        0x2 ../../libs/cpu/libplatform.a(s_sys.o)
                0x0000000000013cde                dummy_func
 .com_text.timer
                0x0000000000013ce0        0x4 ../../libs/cpu/libplatform.a(weak_symbol.o)
                0x0000000000013ce2                usr_tmr1ms_isr_callback
 .com_text.stack.run_loop
                0x0000000000013ce4        0x4 ../../libs/cpu/libplatform.a(weak_symbol.o)
                0x0000000000013ce6                thread_nanos_task_execute
 .com_text.stack.api
                0x0000000000013ce8       0x24 ../../libs/cpu/libplatform.a(bt.o)
                0x0000000000013ce8                ble_send_msg_do
 .com_text.stack.thread
                0x0000000000013d0c       0x32 ../../libs/cpu/libplatform.a(bt.o)
                0x0000000000013d0c                thread_btstack_pend
                0x0000000000013d2e                thread_btstack_post
 .com_text.stack.run_loop
                0x0000000000013d3e       0x3a ../../libs/cpu/libplatform.a(bt.o)
                0x0000000000013d3e                thread_btstack_entry
 .com_text.stack.hci.conn
                0x0000000000013d78        0x8 ../../libs/ble/libbtstack_central.a(hci.o)
                0x0000000000013d78                hci_get_connections
 .com_text.stack.hci
                0x0000000000013d80       0x3a ../../libs/ble/libbtstack_central.a(hci.o)
                0x0000000000013d80                hci_connection_for_handle
                0x0000000000013da2                hci_att_connection_for_handle
                0x0000000000013db2                hci_get_outgoing_packet_buffer
 .com_text.hci  0x0000000000013dba        0x4 ../../libs/ble/libbtstack_central.a(hci_transport_h3_controller.o)
                0x0000000000013dba                hci_is_sleep
 .com_text.stack.ticks
                0x0000000000013dbe        0xa ../../libs/ble/libbtstack_central.a(btstack_hal.o)
                0x0000000000013dc0                sys_tick_handler
 .com_text.isr  0x0000000000013dc8       0x24 ../../libs/ble/libbtstack_central.a(btstack_hal.o)
                0x0000000000013dc8                bt_timer_isr
 .com_text.stack.api
                0x0000000000013dec       0x62 ../../libs/ble/libbtstack_central.a(btstack_api.o)
                0x0000000000013dec                ble_get_status
                0x0000000000013df8                btstack_message
 .com_text.txpkt.list.push_back
                0x0000000000013e4e        0xa ../../libs/ble/libbtstack_central.a(txpkt.o)
                0x0000000000013e4e                txpkt_list_push_back
 .com_text.bb.dbg.ble
                0x0000000000013e58        0x4 ../../libs/ble/libbtstack_central.a(platform.o)
                0x0000000000013e58                bb_ll_tx_cb
                0x0000000000013e5a                bb_ll_rx_cb
 .com_text.bb.utils.dummy
                0x0000000000013e5c        0x6 ../../libs/ble/libbtstack_central.a(platform.o)
                0x0000000000013e5c                dummy_void
                0x0000000000013e5e                dummy_false
 .com_text.bb.isr.rssi
                0x0000000000013e62        0xa ../../libs/ble/libbtstack_central.a(rf.o)
                0x0000000000013e62                rf_rssi_calc_dbm
 .com_text.bb.rf
                0x0000000000013e6c       0x26 ../../libs/ble/libbtstack_central.a(rf.o)
                0x0000000000013e6c                rf_hal_init
 .com_text.bb.buf
                0x0000000000013e92       0x24 ../../libs/ble/libbtstack_central.a(hct_proc.o)
                0x0000000000013e92                hct_block_is_reserved
 .com_text.ble.isr.con.end
                0x0000000000013eb6       0x9a ../../libs/ble/libbtstack_central.a(ble_con.o)
                0x0000000000013eb6                ble_con_rx_end
 .com_text.ble.isr.con.rx_desc
                0x0000000000013f50        0x2 ../../libs/ble/libbtstack_central.a(ble_con.o)
                0x0000000000013f50                ble_con_rx_desc
 .com_text.bb.buf
                0x0000000000013f52       0xbc ../../libs/ble/libbtstack_central.a(ble_buf.o)
                0x0000000000013f52                ble_buf_acl_tx_alloc
                0x0000000000013f9c                ble_buf_acl_tx_free_do
                0x0000000000013fae                ble_buf_acl_tx_free
 .com_text.bb.patch
                0x000000000001400e       0x24 ../../libs/ble/libbtstack_central.a(ble_buf.o)
                0x000000000001400e                bb_patch1
                0x0000000000014010                bb_patch3
 .com_text.bb.isr
                0x0000000000014032       0x7c ../../libs/ble/libbtstack_central.a(bb_int.o)
                0x0000000000014064                bb_isr
                0x00000000000140a2                bb_hal_isr
 .com_text.bb.run_loop
                0x00000000000140ae       0x30 ../../libs/ble/libbtstack_central.a(bb.o)
                0x00000000000140ae                bb_run_loop
 .com_text.stack.run_loop
                0x00000000000140de       0x74 ../../libs/ble/libbtstack_central.a(btstack_run_loop.o)
                0x00000000000140de                btstack_cmp_abs_tick
                0x00000000000140e4                btstack_run_loop_execute_once
 .com_text.ret.stack.thread
                0x0000000000014152        0xa ../../libs/ble/libbtstack_central.a(btstack_run_loop.o)
                0x0000000000014152                btstack_run_loop_embedded_trigger
 .com_text.stack.ticks
                0x000000000001415c       0x1e ../../libs/ble/libbtstack_central.a(btstack_run_loop.o)
 .com_text.bb.nanos.trigger
                0x000000000001417a        0x2 ../../libs/ble/libbtstack_central.a(btstack_run_loop.o)
                0x000000000001417a                thread_nanos_task_trigger
 .com_text.stack.handler
                0x000000000001417c       0x1e ../../libs/ble/libbtstack_central.a(btstack_main.o)
 .com_text.md.nanos
                0x000000000001419a       0x14 ../../libs/ble/libbtstack_central.a(nanos.o)
                0x000000000001419a                nanos_event_set
 .com_text.nanos.malloc
                0x00000000000141ae        0xc ../../libs/ble/libbtstack_central.a(nanos.o)
                0x00000000000141ae                nanos_sys_malloc
 .com_text.nanos.free
                0x00000000000141ba        0xa ../../libs/ble/libbtstack_central.a(nanos.o)
                0x00000000000141ba                nanos_sys_free
 .com_text.bb.frag
                0x00000000000141c4       0x2a ../../libs/ble/libbtstack_central.a(bb_sche.o)
 .com_text.bb.prog
                0x00000000000141ee       0x30 ../../libs/ble/libbtstack_central.a(bb_sche.o)
 .com_text.ble.isr.con.end
                0x000000000001421e       0x18 ../../libs/ble/libbtstack_central.a(patch.o)
                0x000000000001421e                bb_patch2_do
 .com_text.bb.isr
                0x0000000000014236        0xe ../../libs/ble/libbtstack_central.a(bb_clk.o)
                0x0000000000014236                bb_lpcycles_2_hus_hook
 .com_text.ble.isr
                0x0000000000014244       0xac ../../libs/ble/libbtstack_central.a(ble_hook.o)
                0x0000000000014244                ble_isr_hook
 .com_text.bb.isr
                0x00000000000142f0       0x34 ../../libs/ble/libbtstack_central.a(ble.o)
                0x00000000000142f0                ble_isr
 .com_text.bb.isr.timer
                0x0000000000014324       0x50 ../../libs/ble/libbtstack_central.a(bb_alarm.o)
 .com_text.bb.patch
                0x0000000000014374       0x1a ../../libs/ble/libbtstack_central.a(patch_asm.o)
                0x0000000000014374                bb_patch2
 .com_text.bb.patch.trc
                0x000000000001438e       0x1e ../../libs/ble/libbtstack_central.a(patch_asm.o)
                0x000000000001438e                ll_cntl_tx_check_fix_cb
 *(.com_rodata*)
 *fill*         0x00000000000143ac        0x0 
 .com_rodata.bb.tbl
                0x00000000000143ac        0xc ../../libs/ble/libbtstack_central.a(hct_proc.o)
 .com_rodata.bb.tbl
                0x00000000000143b8       0x18 ../../libs/ble/libbtstack_central.a(ble_buf.o)
 .com_rodata.bb.tbl
                0x00000000000143d0       0x10 ../../libs/ble/libbtstack_central.a(bb_utils.o)
                0x00000000000143d0                bb_sca2ppm
 .com_rodata.bb.tbl.bits
                0x00000000000143e0       0x10 ../../libs/ble/libbtstack_central.a(bb_utils.o)
                0x00000000000143e0                one_bits
 .com_rodata.bb.tbl.i2m
                0x00000000000143f0        0x4 ../../libs/ble/libbtstack_central.a(bb_utils.o)
                0x00000000000143f0                bb_phy_value_to_mask
 .com_rodata.bb.tbl.phy.i2r
                0x00000000000143f4        0x4 ../../libs/ble/libbtstack_central.a(bb_utils.o)
                0x00000000000143f4                bb_phy_to_rate
 .com_rodata.bb.tbl.phy.m2i
                0x00000000000143f8        0x5 ../../libs/ble/libbtstack_central.a(bb_utils.o)
                0x00000000000143f8                bb_phy_mask_to_value
 *fill*         0x00000000000143fd        0x3 
 .com_rodata.bb.tbl.phy.r2i
                0x0000000000014400        0x5 ../../libs/ble/libbtstack_central.a(bb_utils.o)
                0x0000000000014400                bb_rate_to_phy
 *fill*         0x0000000000014405        0x3 
 .com_rodata.bb.err
                0x0000000000014408        0xd ../../libs/ble/libbtstack_central.a(bb_int.o)
                0x0000000000014408                str_bb_err
 *fill*         0x0000000000014415        0x3 
 .com_rodata.bb.tbl
                0x0000000000014418       0x16 ../../libs/ble/libbtstack_central.a(bb.o)
                0x0000000000014418                bb_priority
 *fill*         0x000000000001442e        0x2 
 .com_rodata.bb.tbl
                0x0000000000014430        0xc ../../libs/ble/libbtstack_central.a(mgr_proc.o)
                0x0000000000014430                mgr_msg_env
 .com_rodata.bb.tbl
                0x000000000001443c        0xc ../../libs/ble/libbtstack_central.a(ll_proc.o)
                0x000000000001443c                ll_msg_env
 .com_rodata.bb.err
                0x0000000000014448        0xf ../../libs/ble/libbtstack_central.a(ble.o)
                0x0000000000014448                str_ble_err
 *fill*         0x0000000000014457        0x1 
 .com_rodata.bb.tbl
                0x0000000000014458        0xc ../../libs/ble/libbtstack_central.a(vs_proc.o)
                0x0000000000014458                vs_msg_env
 *debug.o(.rodata*)
 *(.com_periph.*)
 *(.data*)
 .data          0x0000000000014464       0x28 ../../libs/ble/libbtstack_central.a(rf_mate.o)
                0x0000000000014470                rf_init_cb
 *(.sdata*)
 .sdata         0x000000000001448c        0x8 client_output/obj/app/func_bt.o
 .sdata         0x0000000000014494        0x1 client_output/obj/strong_symbol.o
                0x0000000000014494                cfg_spiflash_speed_up_en
 *fill*         0x0000000000014495        0x3 
 .sdata.cpu_gprs
                0x0000000000014498        0x4 ../../libs/cpu/libplatform.a(debug.o)
                0x0000000000014498                cpu_gprs
 .sdata         0x000000000001449c        0xc ../../libs/ble/libbtstack_central.a(btstack_hal.o)
 .sdata         0x00000000000144a8        0x1 ../../libs/ble/libbtstack_central.a(rf_mate.o)
 *(.notch_iir_text*)
                0x0000000000014600                . = ALIGN (0x200)
 *fill*         0x00000000000144a9      0x157 
                0x0000000000014600                __comm_end = .
                0x0000000000000c00                __comm_size = (__comm_end - __comm_start)

.pdn_comm       0x0000000000010c00      0x200 load address 0x0000000010000e00
 *(.com_pwroff*)
 .com_pwroff.mode2
                0x0000000000010c00      0x188 client_output/obj/driver/driver_lowpwr.o
                0x0000000000010c00                pwroff_mode2_final
                0x0000000000010c9a                lowpwr_pwroff_mode2_do
                0x0000000000010e00                . = ALIGN (0x200)
 *fill*         0x0000000000010d88       0x78 

.flash          0x0000000010001000    0x12c00
                0x0000000010001000                __code_start_app_proc = .
 *(.text.app.proc.*)
 .text.app.proc.func
                0x0000000010001000        0x8 client_output/obj/app/func.o
                0x0000000010001000                func_process
 .text.app.proc.msg
                0x0000000010001008        0x8 client_output/obj/app/func_bt.o
                0x0000000010001008                func_bt_message
 .text.app.proc.bt
                0x0000000010001010        0xe client_output/obj/app/func_bt.o
                0x0000000010001010                func_bt_sub_process
                0x0000000010001012                func_bt_process
 .text.app.proc.ble
                0x000000001000101e        0x2 client_output/obj/ble/ble_proc.o
                0x000000001000101e                ble_app_proc
 .text.app.proc.test
                0x0000000010001020        0x2 client_output/obj/prod_test/prod_test.o
                0x0000000010001020                prod_test_process
                0x0000000010001200                . = ALIGN (0x200)
 *fill*         0x0000000010001022      0x1de 
                0x0000000010001200                __code_end_app_proc = .
                0x0000000010001200                __code_start_stack_send = .
 *(.text.stack.send.*)
 .text.stack.send.txpkt
                0x0000000010001200      0x1de ../../libs/ble/libbtstack_central.a(txpkt.o)
                0x0000000010001200                txpkt_send
                0x00000000100012c2                txpkt_event_send
                0x00000000100012f6                txpkt_server_send_tick
                0x0000000010001304                txpkt_client_send_tick
 .text.stack.send.hci
                0x00000000100013de       0xe6 ../../libs/ble/libbtstack_central.a(hci.o)
                0x0000000010001480                hci_send_acl_packet_buffer
 .text.stack.send.ntf_do
                0x00000000100014c4       0x4e ../../libs/ble/libbtstack_central.a(gatt_server.o)
 .text.stack.send.ntf
                0x0000000010001512       0x16 ../../libs/ble/libbtstack_central.a(gatt_server.o)
                0x0000000010001512                ble_send_notify_packet
                0x0000000010001524                ble_notify_for_handle
 .text.stack.send.server
                0x0000000010001528       0x8c ../../libs/ble/libbtstack_central.a(gatt_server.o)
                0x0000000010001528                att_event_server_txpkt_send
                0x000000001000159c                btstack_ble_server_send_req
 .text.stack.send.client
                0x00000000100015b4       0x6e ../../libs/ble/libbtstack_central.a(gatt_client.o)
                0x00000000100015b4                att_event_client_txpkt_send
 .text.stack.send.server
                0x0000000010001622       0x1e ../../libs/ble/libbtstack_central.a(att_server.o)
                0x0000000010001622                att_server_request_can_send_now_event
 .text.stack.send.ntf
                0x0000000010001640       0x52 ../../libs/ble/libbtstack_central.a(att_server.o)
                0x0000000010001640                att_server_notify
 .text.stack.send.dispatch_server
                0x0000000010001692        0xc ../../libs/ble/libbtstack_central.a(att_dispatch.o)
                0x0000000010001692                att_dispatch_server_request_can_send_now_event
 .text.stack.send.ntf
                0x000000001000169e       0x3e ../../libs/ble/libbtstack_central.a(att_db.o)
                0x000000001000169e                att_prepare_handle_value_notification
 .text.stack.send.kick
                0x00000000100016dc       0x1a ../../libs/ble/libbtstack_central.a(ble_api.o)
                0x00000000100016dc                ble_send_kick
 .text.stack.send.l2cap
                0x00000000100016f6       0x6e ../../libs/ble/libbtstack_central.a(l2cap.o)
                0x00000000100016f6                l2cap_request_can_send_fix_channel_now_event
                0x000000001000171c                l2cap_send_prepared_connectionless
 .text.stack.send.acl
                0x0000000010001764       0xe0 ../../libs/ble/libbtstack_central.a(ll_proc.o)
                0x0000000010001764                hci_acl_data_func
                0x0000000010001a00                . = ALIGN (0x200)
 *fill*         0x0000000010001844      0x1bc 
                0x0000000010001a00                __code_end_stack_send = .
                0x0000000010001a00                __code_start_sleep_send = .
 *(.com_sleep*)
 .com_sleep.rf.txpwr
                0x0000000010001a00        0x8 client_output/obj/strong_ble.o
                0x0000000010001a00                bt_rf_get_tx_pwr
 .com_sleep.bb.putc
                0x0000000010001a08        0x2 ../../libs/ble/libbtstack_central.a(bb_dbg.o)
                0x0000000010001a08                bb_dbg_init
 .com_sleep.rfphy
                0x0000000010001a0a        0x4 ../../libs/ble/libbtstack_central.a(extern.o)
                0x0000000010001a0a                ble_rf_fix_poor_tx_mod_enable
 .com_sleep.rfphy
                0x0000000010001a0e      0x102 ../../libs/ble/libbtstack_central.a(rf_mate.o)
                0x0000000010001a8a                rfphy_txrx_init
 .com_sleep.rfphy.init
                0x0000000010001b10       0x6a ../../libs/ble/libbtstack_central.a(rf_mate.o)
                0x0000000010001b10                rfphy_init
 .com_sleep.rf  0x0000000010001b7a       0x36 ../../libs/ble/libbtstack_central.a(rf_mate.o)
                0x0000000010001b7a                modem_init
                0x0000000010001c00                . = ALIGN (0x200)
 *fill*         0x0000000010001bb0       0x50 
                0x0000000010001c00                __code_end_sleep_send = .
 *(.text*)
 .text.clk_gate0_cmd
                0x0000000010001c00       0x16 client_output/obj/driver/driver_clk.o
                0x0000000010001c00                clk_gate0_cmd
 .text.clk_uart_clk_set
                0x0000000010001c16       0x16 client_output/obj/driver/driver_clk.o
                0x0000000010001c16                clk_uart_clk_set
 .text.clk_uart_clk_get
                0x0000000010001c2c       0x32 client_output/obj/driver/driver_clk.o
                0x0000000010001c2c                clk_uart_clk_get
 .text.gpio_init
                0x0000000010001c5e      0x13a client_output/obj/driver/driver_gpio.o
                0x0000000010001c5e                gpio_init
 .text.gpio_func_mapping_config
                0x0000000010001d98       0xac client_output/obj/driver/driver_gpio.o
                0x0000000010001d98                gpio_func_mapping_config
 .text.wko_io_config
                0x0000000010001e44       0x3e client_output/obj/driver/driver_gpio.o
                0x0000000010001e44                wko_io_config
 .text.wk0_edge_capture_config
                0x0000000010001e82       0x60 client_output/obj/driver/driver_gpio.o
                0x0000000010001e82                wk0_edge_capture_config
 .text.gpio_edge_capture_config
                0x0000000010001ee2       0xd4 client_output/obj/driver/driver_gpio.o
                0x0000000010001ee2                gpio_edge_capture_config
 .text.lowpwr_get_wakeup_source
                0x0000000010001fb6       0x88 client_output/obj/driver/driver_lowpwr.o
                0x0000000010001fb6                lowpwr_get_wakeup_source
 .text.lowpwr_wakeup_disable
                0x000000001000203e       0x38 client_output/obj/driver/driver_lowpwr.o
                0x000000001000203e                lowpwr_wakeup_disable
 .text.lowpwr_wk0_wakeup_config
                0x0000000010002076       0x72 client_output/obj/driver/driver_lowpwr.o
                0x0000000010002076                lowpwr_wk0_wakeup_config
 .text.lowpwr_gpio_wakeup_config
                0x00000000100020e8       0x3c client_output/obj/driver/driver_lowpwr.o
                0x00000000100020e8                lowpwr_gpio_wakeup_config
 .text.lowpwr_wakeup_config
                0x0000000010002124       0xd8 client_output/obj/driver/driver_lowpwr.o
                0x0000000010002124                lowpwr_wakeup_config
 .text.saradc_deinit
                0x00000000100021fc       0xca client_output/obj/driver/driver_saradc.o
                0x00000000100021fc                saradc_deinit
 .text.uart_init
                0x00000000100022c6       0x46 client_output/obj/driver/driver_uart.o
                0x00000000100022c6                uart_init
 .text.uart_cmd
                0x000000001000230c       0x10 client_output/obj/driver/driver_uart.o
                0x000000001000230c                uart_cmd
 .text.uart_baud_config
                0x000000001000231c       0x36 client_output/obj/driver/driver_uart.o
                0x000000001000231c                uart_baud_config
 .text.func.msg
                0x0000000010002352        0x2 client_output/obj/app/func.o
                0x0000000010002352                func_message
 .text.func     0x0000000010002354       0x54 client_output/obj/app/func.o
                0x0000000010002354                func_enter
                0x0000000010002356                func_exit
                0x0000000010002360                func_run
 .text.func.msg
                0x00000000100023a8        0xc client_output/obj/app/func_bt.o
                0x00000000100023a8                func_bt_message_do
 .text.func.bt  0x00000000100023b4       0x64 client_output/obj/app/func_bt.o
                0x00000000100023b4                func_bt_init
                0x00000000100023b6                func_bt_enter
                0x00000000100023c8                func_bt_exit
                0x00000000100023e0                func_bt
 .text.func.idle.msg
                0x0000000010002418        0xc client_output/obj/app/func_idle.o
                0x0000000010002418                func_idle_message
 .text.func.idle
                0x0000000010002424       0x40 client_output/obj/app/func_idle.o
                0x0000000010002424                func_idle_process
                0x0000000010002428                func_idle
 .text.lowpwr_pwroff_wakeup_config
                0x0000000010002464       0x1a client_output/obj/app/func_lowpwr.o
                0x0000000010002464                lowpwr_pwroff_wakeup_config
 .text.lowpwr.pwroff
                0x000000001000247e       0x44 client_output/obj/app/func_lowpwr.o
                0x000000001000247e                func_pwroff
 .text.ble_client_notify_callback
                0x00000000100024c2       0x2a client_output/obj/ble/ble_client.o
 .text.ble_client_event_callback
                0x00000000100024ec      0x34a client_output/obj/ble/ble_client.o
                0x00000000100024ec                ble_client_event_callback
 .text.ble_att_read_callback
                0x0000000010002836       0x4c client_output/obj/ble/ble_client.o
 .text.ble_client_init
                0x0000000010002882       0x2c client_output/obj/ble/ble_client.o
                0x0000000010002882                ble_client_init
 .text.ble_set_work_mode
                0x00000000100028ae        0x8 client_output/obj/ble/ble_init.o
                0x00000000100028ae                ble_set_work_mode
 .text.ble_txpkt_init
                0x00000000100028b6        0xe client_output/obj/ble/ble_init.o
                0x00000000100028b6                ble_txpkt_init
 .text.ble_scan_param_init
                0x00000000100028c4       0x2c client_output/obj/ble/ble_init.o
                0x00000000100028c4                ble_scan_param_init
 .text.ble_central_init
                0x00000000100028f0       0x18 client_output/obj/ble/ble_init.o
                0x00000000100028f0                ble_central_init
 .text.bsp_ble_init
                0x0000000010002908       0x22 client_output/obj/ble/ble_init.o
                0x0000000010002908                bsp_ble_init
 .text.bsp.param
                0x000000001000292a       0x18 client_output/obj/bsp/bsp_param.o
                0x000000001000292a                bsp_param_init
                0x0000000010002936                bsp_param_write
                0x000000001000293a                bsp_param_read
                0x000000001000293e                bsp_param_sync
 .text.sys_ram_info_dump
                0x0000000010002942       0x52 client_output/obj/bsp/bsp_sys.o
                0x0000000010002942                sys_ram_info_dump
 .text.bsp.sys.init
                0x0000000010002994       0xaa client_output/obj/bsp/bsp_sys.o
                0x0000000010002994                bsp_sys_init
 .text.bsp_uart_debug_init
                0x0000000010002a3e       0x86 client_output/obj/bsp/bsp_uart_debug.o
                0x0000000010002a3e                bsp_uart_debug_init
 .text.prod_test_init
                0x0000000010002ac4        0x2 client_output/obj/prod_test/prod_test.o
                0x0000000010002ac4                prod_test_init
 .text.startup.main
                0x0000000010002ac6       0x54 client_output/obj/main.o
                0x0000000010002ac6                main
 .text.hci_fcc_init
                0x0000000010002b1a        0x2 client_output/obj/strong_ble.o
                0x0000000010002b1a                hci_fcc_init
 .text.bt_uart_isr
                0x0000000010002b1c        0x4 client_output/obj/strong_ble.o
                0x0000000010002b1c                bt_uart_isr
 .text.ble_sm_client_event_do
                0x0000000010002b20        0x2 client_output/obj/strong_ble.o
                0x0000000010002b20                ble_sm_client_event_do
 .text.sm_send_security_request
                0x0000000010002b22        0x2 client_output/obj/strong_ble.o
                0x0000000010002b22                sm_send_security_request
 .text.sm_request_pairing
                0x0000000010002b24        0x2 client_output/obj/strong_ble.o
                0x0000000010002b24                sm_request_pairing
 .text.sm_passkey_input
                0x0000000010002b26        0x2 client_output/obj/strong_ble.o
                0x0000000010002b26                sm_passkey_input
 .text.sm_passkey_input_get
                0x0000000010002b28        0x4 client_output/obj/strong_ble.o
                0x0000000010002b28                sm_passkey_input_get
 .text.ble_get_local_bd_addr
                0x0000000010002b2c       0x14 client_output/obj/strong_ble.o
                0x0000000010002b2c                ble_get_local_bd_addr
 .text.bt_rf_get_param
                0x0000000010002b40       0x16 client_output/obj/strong_ble.o
                0x0000000010002b40                bt_rf_get_param
 .text.ble_get_link_info
                0x0000000010002b56        0x6 client_output/obj/strong_ble.o
                0x0000000010002b56                ble_get_link_info
 .text.ble_put_link_info
                0x0000000010002b5c       0x10 client_output/obj/strong_ble.o
                0x0000000010002b5c                ble_put_link_info
 .text.ble_mtu_exchange_enabled
                0x0000000010002b6c        0x4 client_output/obj/strong_ble.o
                0x0000000010002b6c                ble_mtu_exchange_enabled
 .text.ble_sm_pairing_support
                0x0000000010002b70        0x4 client_output/obj/strong_ble.o
                0x0000000010002b70                ble_sm_pairing_support
 .text.ble_rx_exit_sleep
                0x0000000010002b74        0x4 client_output/obj/strong_ble.o
                0x0000000010002b74                ble_rx_exit_sleep
 .text.ble_feature_exchange_enabled
                0x0000000010002b78        0x4 client_output/obj/strong_ble.o
                0x0000000010002b78                ble_feature_exchange_enabled
 .text.ble_length_request_enabled
                0x0000000010002b7c        0x4 client_output/obj/strong_ble.o
                0x0000000010002b7c                ble_length_request_enabled
 .text.ble_phy_update_enable
                0x0000000010002b80        0x4 client_output/obj/strong_ble.o
                0x0000000010002b80                ble_phy_update_enable
 .text.mem_heap_size_get
                0x0000000010002b84        0x8 client_output/obj/strong_symbol.o
                0x0000000010002b84                mem_heap_size_get
 .text.thread_cfg_get
                0x0000000010002b8c        0xa client_output/obj/strong_symbol.o
                0x0000000010002b8c                thread_cfg_get
 .text.thread_create_callback
                0x0000000010002b96        0x4 client_output/obj/strong_symbol.o
                0x0000000010002b96                thread_create_callback
 .text.xosc_get_xcfg
                0x0000000010002b9a       0x20 client_output/obj/strong_symbol.o
                0x0000000010002b9a                xosc_get_xcfg
 .text.param_xosc_read
                0x0000000010002bba        0x6 client_output/obj/strong_symbol.o
                0x0000000010002bba                param_xosc_read
 .text.sys_clk_change_callback
                0x0000000010002bc0       0x10 client_output/obj/strong_symbol.o
                0x0000000010002bc0                sys_clk_change_callback
 .text.uart_debug_init_callback
                0x0000000010002bd0        0x2 client_output/obj/strong_symbol.o
                0x0000000010002bd0                uart_debug_init_callback
 .text.cm_loadpage
                0x0000000010002bd2       0xb0 ../../libs/cpu/libplatform.a(cm.o)
 .text.cm_next_freepage
                0x0000000010002c82       0x54 ../../libs/cpu/libplatform.a(cm.o)
 .text.cm_loadparam
                0x0000000010002cd6        0x4 ../../libs/cpu/libplatform.a(cm.o)
                0x0000000010002cd6                cm_loadparam
 .text.cm_factory
                0x0000000010002cda        0xa ../../libs/cpu/libplatform.a(cm.o)
                0x0000000010002cda                cm_factory
 .text.cm_addr_check
                0x0000000010002ce4        0x4 ../../libs/cpu/libplatform.a(cm.o)
                0x0000000010002ce4                cm_addr_check
 .text.cm_writepage
                0x0000000010002ce8       0x28 ../../libs/cpu/libplatform.a(cm.o)
 .text.cm_movepage
                0x0000000010002d10       0x50 ../../libs/cpu/libplatform.a(cm.o)
 .text.cm_erase
                0x0000000010002d60       0x1c ../../libs/cpu/libplatform.a(cm.o)
 .text.cm_release
                0x0000000010002d7c       0xfa ../../libs/cpu/libplatform.a(cm.o)
 .text.cm_savepage
                0x0000000010002e76       0xd6 ../../libs/cpu/libplatform.a(cm.o)
 .text.cm_check_loadpage
                0x0000000010002f4c       0xae ../../libs/cpu/libplatform.a(cm.o)
 .text.cm_sync  0x0000000010002ffa       0x3e ../../libs/cpu/libplatform.a(cm.o)
                0x0000000010002ffa                cm_sync
 .text.cm_read  0x0000000010003038       0x42 ../../libs/cpu/libplatform.a(cm.o)
                0x0000000010003038                cm_read
 .text.cm_write
                0x000000001000307a       0x5c ../../libs/cpu/libplatform.a(cm.o)
                0x000000001000307a                cm_write
 .text.cm_init  0x00000000100030d6      0x1e4 ../../libs/cpu/libplatform.a(cm.o)
                0x00000000100030d6                cm_init
 .text.xcfg_init
                0x00000000100032ba       0x4c ../../libs/cpu/libplatform.a(xcfg.o)
                0x00000000100032ba                xcfg_init
 .text.platform_main
                0x0000000010003306      0x154 ../../libs/cpu/libplatform.a(main.o)
                0x0000000010003306                platform_main
 .text.main_startup
                0x000000001000345a        0xe ../../libs/cpu/libplatform.a(main.o)
                0x000000001000345a                main_startup
 .text.register_isr
                0x0000000010003468       0x38 ../../libs/cpu/libplatform.a(interrupt.o)
                0x0000000010003468                register_isr
 .text.soft_irq_init
                0x00000000100034a0       0x42 ../../libs/cpu/libplatform.a(interrupt.o)
                0x00000000100034a0                soft_irq_init
 .text.bthw_irq_init
                0x00000000100034e2        0xc ../../libs/cpu/libplatform.a(interrupt.o)
                0x00000000100034e2                bthw_irq_init
 .text.sys_timer_init
                0x00000000100034ee       0x5c ../../libs/cpu/libplatform.a(interrupt.o)
                0x00000000100034ee                sys_timer_init
 .text.thread_btstack_create
                0x000000001000354a       0x82 ../../libs/cpu/libplatform.a(startup.o)
                0x000000001000354a                thread_btstack_create
 .text.thread_main_entry
                0x00000000100035cc       0x2e ../../libs/cpu/libplatform.a(startup.o)
 .text.startup.init
                0x00000000100035fa      0x100 ../../libs/cpu/libplatform.a(startup.o)
                0x00000000100035fa                platform_init
                0x0000000010003602                sys_startup
 .text.bt_set_timer_enable
                0x00000000100036fa       0x18 ../../libs/cpu/libplatform.a(startup.o)
                0x00000000100036fa                bt_set_timer_enable
 .text.sys_set_tmr_enable
                0x0000000010003712       0x22 ../../libs/cpu/libplatform.a(startup.o)
                0x0000000010003712                sys_set_tmr_enable
 .text.sys_hook_init
                0x0000000010003734        0x2 ../../libs/cpu/libplatform.a(sys_hook.o)
                0x0000000010003734                sys_hook_init
 .text.pll0_vco_band_trimming
                0x0000000010003736      0x176 ../../libs/cpu/libplatform.a(pll.o)
                0x0000000010003736                pll0_vco_band_trimming
 .text.pll0_init
                0x00000000100038ac       0x62 ../../libs/cpu/libplatform.a(pll.o)
                0x00000000100038ac                pll0_init
 .text.pll0_disable
                0x000000001000390e       0x16 ../../libs/cpu/libplatform.a(pll.o)
                0x000000001000390e                pll0_disable
 .text.pmu_set_buck_mode
                0x0000000010003924       0x48 ../../libs/cpu/libplatform.a(pmu.o)
                0x0000000010003924                pmu_set_buck_mode
 .text.pmu_voltage_configure
                0x000000001000396c       0x48 ../../libs/cpu/libplatform.a(pmu.o)
                0x000000001000396c                pmu_voltage_configure
 .text.pmu_init
                0x00000000100039b4      0x2e4 ../../libs/cpu/libplatform.a(pmu.o)
                0x00000000100039b4                pmu_init
 .text.debug_set
                0x0000000010003c98       0x20 ../../libs/cpu/libplatform.a(debug.o)
                0x0000000010003c98                debug_set
 .text.ota_pack_is_update_success
                0x0000000010003cb8       0x10 ../../libs/cpu/libplatform.a(fot_pack.o)
                0x0000000010003cb8                ota_pack_is_update_success
 .text.lock_init
                0x0000000010003cc8       0x10 ../../libs/cpu/libplatform.a(lock.o)
                0x0000000010003cc8                lock_init
 .text.patch_init
                0x0000000010003cd8       0x5a ../../libs/cpu/libplatform.a(patch.o)
                0x0000000010003cd8                patch_init
 .text.udivmoddi4
                0x0000000010003d32       0x96 ../../libs/cpu/libplatform.a(sys.o)
 .text.sys_rst_init
                0x0000000010003dc8       0x94 ../../libs/cpu/libplatform.a(sys.o)
                0x0000000010003dc8                sys_rst_init
 .text.sys_rst_dump
                0x0000000010003e5c       0x74 ../../libs/cpu/libplatform.a(sys.o)
                0x0000000010003e5c                sys_rst_dump
 .text.rc2m_clk_nhz_cal
                0x0000000010003ed0       0xda ../../libs/cpu/libplatform.a(sys.o)
                0x0000000010003ed0                rc2m_clk_nhz_cal
 .text.sys_get_rand_key_init
                0x0000000010003faa        0xa ../../libs/cpu/libplatform.a(sys.o)
                0x0000000010003faa                sys_get_rand_key_init
 .text.xosc_init
                0x0000000010003fb4       0x92 ../../libs/cpu/libplatform.a(sys.o)
                0x0000000010003fb4                xosc_init
 .text.__udivdi3
                0x0000000010004046        0x6 ../../libs/cpu/libplatform.a(sys.o)
                0x0000000010004046                __udivdi3
 .text.sys_clk_cacl_curr
                0x000000001000404c       0x18 ../../libs/cpu/libplatform.a(sys_clk.o)
 *fill*         0x0000000010004064      0x19c 
 .text.set_sys_clk_do
                0x0000000010004200      0x1f2 ../../libs/cpu/libplatform.a(sys_clk.o)
                0x0000000010004200                set_sys_clk_do
 .text.sys_clk  0x00000000100043f2      0x1ca ../../libs/cpu/libplatform.a(sys_clk.o)
                0x00000000100043f2                sys_clk_get_cur
                0x00000000100043fa                sys_clk_set_do
 .text.sys_clk_set
                0x00000000100045bc       0x60 ../../libs/cpu/libplatform.a(sys_clk.o)
                0x00000000100045bc                sys_clk_set
 *fill*         0x000000001000461c        0x0 
 .text.sys_clk.table
                0x000000001000461c       0x16 ../../libs/cpu/libplatform.a(sys_clk.o)
                0x000000001000461c                sysclk_info_tbl
 .text.voltage.trim
                0x0000000010004632       0xaa ../../libs/cpu/libplatform.a(voltage_trim.o)
                0x0000000010004632                voltage_trim_value_init
 .text.xosc_24m_div_get
                0x00000000100046dc        0x4 ../../libs/cpu/libplatform.a(weak_symbol.o)
                0x00000000100046dc                xosc_24m_div_get
 .text.freq_det_init
                0x00000000100046e0       0x3a ../../libs/cpu/libplatform.a(freq_det.o)
                0x00000000100046e0                freq_det_init
 .text          0x000000001000471a       0x4e ../../libs/ble/libbtstack_central.a(txpkt.o)
                0x000000001000471a                txpkt_list_is_empty
                0x0000000010004726                txpkt_init
                0x0000000010004756                txpkt_get_available_len
 .text.txpkt.flush
                0x0000000010004768       0x4a ../../libs/ble/libbtstack_central.a(txpkt.o)
                0x0000000010004768                txpkt_free_for_handle
 .text          0x00000000100047b2      0x34a ../../libs/ble/libbtstack_central.a(hci.o)
                0x00000000100047b2                hci_get_state
                0x00000000100047ba                ble_get_scan_sta
                0x00000000100047c2                hci_shutdown_connection
                0x00000000100047e8                gap_le_get_own_address
                0x000000001000481e                hci_le_set_own_address_type
                0x0000000010004832                hci_le_random_address_set
                0x0000000010004840                le_handle_advertisement_report
                0x00000000100048ac                gap_set_connection_parameters
                0x00000000100048c4                gap_get_connection_parameters
                0x00000000100048ec                gap_get_connection_parameters_for_handle
                0x0000000010004922                gap_start_scan
                0x0000000010004948                gap_stop_scan
                0x000000001000496a                gap_set_scan_parameters
                0x000000001000497e                gap_set_scan_parameters_do
                0x00000000100049aa                gap_set_connection_outgoing_addr
                0x00000000100049c8                gap_update_connection_parameters_do
                0x0000000010004a00                gap_update_connection_parameters
                0x0000000010004a34                gap_advertisements_set_data
                0x0000000010004a36                gap_scan_response_set_data
                0x0000000010004a38                gap_advertisements_enable
                0x0000000010004a3a                gap_ext_advertisements_set_data
                0x0000000010004a3c                gap_ext_scan_response_set_data
                0x0000000010004a3e                gap_ext_advertisements_enable
                0x0000000010004a40                gap_ext_advertisements_set_params
                0x0000000010004a42                ble_per_advertisements_set_data
                0x0000000010004a44                ble_per_advertisements_enable
                0x0000000010004a46                ble_per_advertisements_add_device_list
                0x0000000010004a48                ble_per_advertisements_creat_sync
                0x0000000010004a4a                ble_per_advertisements_creat_sync_cancel
                0x0000000010004a4c                ble_per_advertisements_terminate_sync
                0x0000000010004a4e                gap_create_connect
                0x0000000010004a8c                gap_disconnect
                0x0000000010004ade                hci_rx_flush
                0x0000000010004ae0                hci_packet_send_finish
 .text.stack.hci_init
                0x0000000010004afc       0x88 ../../libs/ble/libbtstack_central.a(hci.o)
                0x0000000010004b1c                hci_power_control
 .text.stack.handler.acl
                0x0000000010004b84       0x14 ../../libs/ble/libbtstack_central.a(hci.o)
 .text.stack.setup
                0x0000000010004b98       0xc2 ../../libs/ble/libbtstack_central.a(hci.o)
                0x0000000010004bde                hci_add_event_handler
                0x0000000010004bf0                hci_register_acl_packet_handler
                0x0000000010004bf8                hci_init
 .text.stack.hci
                0x0000000010004c5a      0x214 ../../libs/ble/libbtstack_central.a(hci.o)
                0x0000000010004caa                hci_number_free_acl_slots_for_handle
                0x0000000010004cc2                hci_can_send_command_packet_now
                0x0000000010004d00                hci_can_send_acl_le_packet_now
                0x0000000010004d3e                hci_can_send_prepared_acl_packet_now
                0x0000000010004d4c                hci_can_send_acl_packet_now
                0x0000000010004d5a                hci_is_packet_buffer_reserved
                0x0000000010004d62                hci_reserve_packet_buffer
                0x0000000010004d9a                hci_release_packet_buffer
 .text.stack.hci.conn
                0x0000000010004e6e       0xcc ../../libs/ble/libbtstack_central.a(hci.o)
                0x0000000010004e6e                get_free_hci_connection
                0x0000000010004e8a                create_connection_for_bd_addr_and_type
                0x0000000010004f02                hci_connection_for_bd_addr_and_type
 .text.ble.hci  0x0000000010004f3a      0x184 ../../libs/ble/libbtstack_central.a(hci.o)
                0x0000000010004f3a                ble_event_cmd_complete
                0x0000000010004faa                ble_event_meta
 .text.stack.hci_send
                0x00000000100050be       0xd0 ../../libs/ble/libbtstack_central.a(hci.o)
                0x00000000100050be                hci_send_cmd_packet
                0x000000001000514c                hci_send_cmd
 .text.stack.hci.run
                0x000000001000518e      0x184 ../../libs/ble/libbtstack_central.a(hci.o)
 .text.stack.hci_rx
                0x0000000010005312       0xdc ../../libs/ble/libbtstack_central.a(hci.o)
 .text.stack.hci_emit
                0x00000000100053ee       0x2c ../../libs/ble/libbtstack_central.a(hci.o)
                0x00000000100053ee                hci_emit_state
 .text          0x000000001000541a       0x42 ../../libs/ble/libbtstack_central.a(btstack_util.o)
                0x000000001000541a                log_info_hexdump
                0x000000001000541c                log_info_key
                0x000000001000541e                uuid_add_bluetooth_prefix
                0x0000000010005440                uuid_has_bluetooth_prefix
 .text.stack.util
                0x000000001000545c      0x126 ../../libs/ble/libbtstack_central.a(btstack_util.o)
                0x000000001000545c                bd_addr_cmp
                0x0000000010005462                bd_addr_copy
                0x0000000010005468                big_endian_read_16
                0x0000000010005478                big_endian_read_32
                0x0000000010005498                big_endian_store_16
                0x00000000100054ac                big_endian_store_32
                0x00000000100054e0                reverse_bytes
                0x00000000100054fc                reverse_24
                0x0000000010005500                reverse_48
                0x0000000010005504                reverse_56
                0x0000000010005508                reverse_64
                0x000000001000550c                reverse_128
                0x0000000010005510                reverse_256
                0x0000000010005516                reverse_bd_addr
                0x0000000010005518                btstack_min
                0x000000001000551e                btstack_max
                0x0000000010005524                char_for_nibble
                0x000000001000554a                nibble_for_char
 .text.stack.hci_dump
                0x0000000010005582       0x50 ../../libs/ble/libbtstack_central.a(btstack_util.o)
                0x0000000010005582                bd_addr_to_str
 .text.sm.aes   0x00000000100055d2       0x3a ../../libs/ble/libbtstack_central.a(sm.o)
 .text.sm.get_handle
                0x000000001000560c       0x16 ../../libs/ble/libbtstack_central.a(sm.o)
 .text.sm.rau_run
                0x0000000010005622       0x90 ../../libs/ble/libbtstack_central.a(sm.o)
 .text.gap.rau.update
                0x00000000100056b2       0x38 ../../libs/ble/libbtstack_central.a(sm.o)
 .text.sm.is_null
                0x00000000100056ea       0x1c ../../libs/ble/libbtstack_central.a(sm.o)
                0x00000000100056ea                sm_is_null
 .text.sm.hdl   0x0000000010005706       0x12 ../../libs/ble/libbtstack_central.a(sm.o)
                0x0000000010005706                sm_add_event_handler
 .text.sm.deinit
                0x0000000010005718        0x8 ../../libs/ble/libbtstack_central.a(sm.o)
                0x0000000010005718                sm_deinit
 .text.sm.key_size
                0x0000000010005720       0x20 ../../libs/ble/libbtstack_central.a(sm.o)
                0x0000000010005720                sm_encryption_key_size
 .text.sm.auth  0x0000000010005740       0x20 ../../libs/ble/libbtstack_central.a(sm.o)
                0x0000000010005740                sm_authenticated
 .text.gap.rau.mode
                0x0000000010005760       0x66 ../../libs/ble/libbtstack_central.a(sm.o)
                0x0000000010005760                gap_random_address_set_mode
 .text.gap.rau_set
                0x00000000100057c6       0x28 ../../libs/ble/libbtstack_central.a(sm.o)
                0x00000000100057c6                gap_random_address_set
 .text.sm.addr  0x00000000100057ee        0xc ../../libs/ble/libbtstack_central.a(sm.o)
                0x00000000100057ee                gap_random_address_get
 .text.sm.reconnect
                0x00000000100057fa       0x48 ../../libs/ble/libbtstack_central.a(sm.o)
                0x00000000100057fa                gap_reconnect_security_setup_active
 .text          0x0000000010005842       0x36 ../../libs/ble/libbtstack_central.a(le_device_db_memory.o)
                0x0000000010005842                le_device_db_count
 .text.le.db.max
                0x0000000010005878        0x4 ../../libs/ble/libbtstack_central.a(le_device_db_memory.o)
                0x0000000010005878                ble_bonding_info_max_count
 .text.le.db.set
                0x000000001000587c      0x114 ../../libs/ble/libbtstack_central.a(le_device_db_memory.o)
                0x000000001000587c                le_device_db_info_save_for_index
                0x00000000100058a4                le_device_db_info_set
 .text.le.db.read
                0x0000000010005990       0x2c ../../libs/ble/libbtstack_central.a(le_device_db_memory.o)
                0x0000000010005990                le_device_db_info_load_for_index
 .text.le.db.init
                0x00000000100059bc       0x52 ../../libs/ble/libbtstack_central.a(le_device_db_memory.o)
                0x00000000100059bc                le_device_db_init
 .text.le.db    0x0000000010005a0e      0x144 ../../libs/ble/libbtstack_central.a(le_device_db_memory.o)
                0x0000000010005a0e                le_device_db_info
                0x0000000010005a5e                le_device_db_encryption_set
                0x0000000010005ac6                le_device_db_encryption_get
 .text          0x0000000010005b52       0x24 ../../libs/ble/libbtstack_central.a(gatt_server.o)
                0x0000000010005b52                att_server_send_func_get
 .text.ble.indicate
                0x0000000010005b76       0x6c ../../libs/ble/libbtstack_central.a(gatt_server.o)
                0x0000000010005b76                ble_send_indicate_packet
                0x0000000010005b8a                ble_indicate_for_handle
 *fill*         0x0000000010005be2        0x2 
 .text          0x0000000010005be4     0x196a ../../libs/ble/libbtstack_central.a(gatt_client.o)
                0x0000000010006146                att_client_register_handler
                0x0000000010006296                gatt_client_is_ready
                0x000000001000673c                gatt_client_listen_for_characteristic_value_updates
                0x0000000010006760                gatt_client_init
                0x00000000100067c2                gatt_client_write_value_of_characteristic_without_response
                0x000000001000682a                gatt_client_write_value_of_characteristic
                0x000000001000687c                ble_service_query_result_get_service
                0x0000000010006884                ble_characteristic_query_result_get_characteristic
                0x000000001000688c                ble_client_write_client_characteristic_configuration
                0x00000000100068fc                att_client_send_func_get
                0x0000000010007480                gatt_client_read_value_of_characteristic_using_value_handle
                0x00000000100074de                gatt_client_write_client_characteristic_configuration
 .text.client.get_context
                0x000000001000754e       0x18 ../../libs/ble/libbtstack_central.a(gatt_client.o)
                0x000000001000754e                gatt_client_get_context_for_handle
 .text.client.request_can_send
                0x0000000010007566       0x28 ../../libs/ble/libbtstack_central.a(gatt_client.o)
                0x0000000010007566                att_client_request_can_send_now_event
 .text.client.write_req
                0x000000001000758e       0x6c ../../libs/ble/libbtstack_central.a(gatt_client.o)
                0x000000001000758e                att_write_request
                0x00000000100075da                ble_write_req_for_character
 .text.client.deserialize_service
                0x00000000100075fa       0x48 ../../libs/ble/libbtstack_central.a(gatt_client.o)
                0x00000000100075fa                gatt_client_deserialize_service
 .text.client.deserialize_characteristic
                0x0000000010007642       0x58 ../../libs/ble/libbtstack_central.a(gatt_client.o)
                0x0000000010007642                gatt_client_deserialize_characteristic
 .text.client.send_req
                0x000000001000769a       0x16 ../../libs/ble/libbtstack_central.a(gatt_client.o)
                0x000000001000769a                btstack_ble_client_send_req
 .text.client.find_services
                0x00000000100076b0       0x48 ../../libs/ble/libbtstack_central.a(gatt_client.o)
                0x00000000100076b0                gatt_client_discover_primary_services
                0x00000000100076ec                ble_client_discover_primary_services
 .text.client.find_character
                0x00000000100076f8       0x54 ../../libs/ble/libbtstack_central.a(gatt_client.o)
                0x00000000100076f8                gatt_client_discover_characteristics_for_service
                0x000000001000773e                ble_client_discover_characteristics_for_service
 .text.client.read_long_value_offset
                0x000000001000774c       0x3a ../../libs/ble/libbtstack_central.a(gatt_client.o)
                0x000000001000774c                gatt_client_read_long_value_of_characteristic_using_value_handle_with_offset
 .text          0x0000000010007786      0x1ae ../../libs/ble/libbtstack_central.a(att_server.o)
                0x00000000100078a2                att_server_handler_list_init
                0x00000000100078aa                att_server_can_send_packet_now
 .text.server.indicate
                0x0000000010007934       0x98 ../../libs/ble/libbtstack_central.a(att_server.o)
                0x0000000010007934                att_server_indicate
 .text.server.mtu_get
                0x00000000100079cc       0x24 ../../libs/ble/libbtstack_central.a(att_server.o)
                0x00000000100079cc                ble_att_get_mtu
 .text          0x00000000100079f0      0x1da ../../libs/ble/libbtstack_central.a(att_dispatch.o)
                0x0000000010007ae6                att_dispatch_connected_event
                0x0000000010007b3c                att_dispatch_disconnected_event
                0x0000000010007b64                att_dispatch_connect_param_update_event
                0x0000000010007b92                att_dispatch_encryption_change_event
                0x0000000010007bc2                att_dispatch_sm_event
 .text.att.register_client
                0x0000000010007bca       0x14 ../../libs/ble/libbtstack_central.a(att_dispatch.o)
                0x0000000010007bca                att_dispatch_register_client
 .text.att.dispatch_server
                0x0000000010007bde        0x6 ../../libs/ble/libbtstack_central.a(att_dispatch.o)
                0x0000000010007bde                att_dispatch_can_send_now
 .text.att.dispatch_client
                0x0000000010007be4        0xe ../../libs/ble/libbtstack_central.a(att_dispatch.o)
                0x0000000010007be4                att_dispatch_client_request_can_send_now_event
 .text.att.client_mtu
                0x0000000010007bf2        0xe ../../libs/ble/libbtstack_central.a(att_dispatch.o)
                0x0000000010007bf2                att_dispatch_client_mtu_exchanged
 *fill*         0x0000000010007c00        0x0 
 .text          0x0000000010007c00      0xddc ../../libs/ble/libbtstack_central.a(att_db.o)
                0x0000000010007dfa                att_uuid_for_handle
                0x0000000010007e24                att_set_db
                0x0000000010007e2c                att_set_read_callback
                0x0000000010007e34                att_set_write_callback
                0x0000000010007e3c                handle_exchange_mtu_request
                0x0000000010007e64                att_clear_transaction_queue
                0x0000000010007e80                att_prepare_handle_value_indication
                0x0000000010007ebe                att_handle_request
                0x0000000010008888                gatt_server_get_get_handle_range_for_service_with_uuid16
                0x000000001000890e                gatt_server_get_value_handle_for_characteristic_with_uuid16
                0x0000000010008950                gatt_server_get_client_configuration_handle_for_characteristic_with_uuid16
 .text.att.mtu_request
                0x00000000100089dc       0x3a ../../libs/ble/libbtstack_central.a(att_db.o)
                0x00000000100089dc                att_exchange_mtu_request
 .text.att_server.mtu_rsp
                0x0000000010008a16       0x2a ../../libs/ble/libbtstack_central.a(att_db.o)
                0x0000000010008a16                handle_exchange_mtu_response
 .text          0x0000000010008a40      0x206 ../../libs/ble/libbtstack_central.a(ad_parser.o)
                0x0000000010008a40                ad_iterator_init
                0x0000000010008a4c                ad_iterator_has_more
                0x0000000010008a5a                ad_iterator_next
                0x0000000010008a78                ad_iterator_get_data_len
                0x0000000010008a8a                ad_iterator_get_data_type
                0x0000000010008a98                ad_iterator_get_data
                0x0000000010008aa4                ad_data_contains_uuid16
                0x0000000010008b3c                ad_data_contains_uuid128
                0x0000000010008bda                ble_adv_report_info_analyse
 .text          0x0000000010008c46        0x2 ../../libs/ble/libbtstack_central.a(hci_transport_h3_controller.o)
                0x0000000010008c46                hci_init_var
 .text          0x0000000010008c48       0x12 ../../libs/ble/libbtstack_central.a(hci_transport_dummy.o)
                0x0000000010008c48                hci_iodm_init
                0x0000000010008c4a                hci_transport_setup
 .text          0x0000000010008c5a       0x18 ../../libs/ble/libbtstack_central.a(btstack_hal.o)
                0x0000000010008c5a                hal_tick_init
                0x0000000010008c60                hal_tick_set_handler
 .text          0x0000000010008c72       0xe8 ../../libs/ble/libbtstack_central.a(btstack_api.o)
                0x0000000010008c72                btstack_ble_enable_adv
                0x0000000010008cc4                btstack_ble_enable_scan
                0x0000000010008cc8                btstack_ble_disable_scan
                0x0000000010008ccc                btstack_ble_set_scan_param
                0x0000000010008cd0                btstack_ble_conn_by_addr
                0x0000000010008cf4                btstack_ble_sm_passkey_input
                0x0000000010008d0a                btstack_ble_sm_send_security_request
                0x0000000010008d0e                btstack_ble_single_tone_mode_enter
                0x0000000010008d2a                btstack_ble_set_random_static_addr
                0x0000000010008d3a                btstack_ble_add_dev_to_white_list
                0x0000000010008d3c                btstack_ble_rmv_dev_from_white_list
                0x0000000010008d3e                btstack_ble_disable_adv
                0x0000000010008d40                btstack_ble_set_adv_param
                0x0000000010008d42                btstack_ble_set_ext_adv_param
                0x0000000010008d44                btstack_ble_rslv_enable
                0x0000000010008d46                btstack_ble_rslv_renew_to_set
                0x0000000010008d48                btstack_ble_add_dev_to_ral_list
                0x0000000010008d4a                btstack_ble_rmv_dev_from_ral_list
                0x0000000010008d4c                btstack_var_init
                0x0000000010008d56                btstack_ble_get_conn_rssi
 .text.stack.sleep
                0x0000000010008d5a       0x24 ../../libs/ble/libbtstack_central.a(btstack_api.o)
                0x0000000010008d5a                btstack_exit_sleep
                0x0000000010008d66                btstack_enter_sleep
 .text.ble.hci  0x0000000010008d7e       0xb4 ../../libs/ble/libbtstack_central.a(btstack_api.o)
                0x0000000010008d7e                btstack_ble_set_adv_interval
                0x0000000010008d80                btstack_ble_disconnect
                0x0000000010008d9a                btstack_ble_ll_update_conn_param
                0x0000000010008e2e                btstack_ble_set_adv_data
                0x0000000010008e30                btstack_ble_set_scan_rsp_data
 .text.stack.setup
                0x0000000010008e32       0x4c ../../libs/ble/libbtstack_central.a(btstack_api.o)
 .text.stack.api
                0x0000000010008e7e       0x34 ../../libs/ble/libbtstack_central.a(btstack_api.o)
                0x0000000010008e9e                btstack_init
 .text          0x0000000010008eb2       0x40 ../../libs/ble/libbtstack_central.a(ble_api.o)
                0x0000000010008ede                ble_msg_free_prepare
 .text.stack.api
                0x0000000010008ef2       0x56 ../../libs/ble/libbtstack_central.a(ble_api.o)
                0x0000000010008ef2                btstack_deinit
                0x0000000010008f1a                ble_setup
 .text.ble.api.scan.dis
                0x0000000010008f48        0xc ../../libs/ble/libbtstack_central.a(ble_api.o)
                0x0000000010008f48                ble_scan_dis
 .text.ble.api.scan.en
                0x0000000010008f54        0xc ../../libs/ble/libbtstack_central.a(ble_api.o)
                0x0000000010008f54                ble_scan_en
 .text.ble.api.scan.set
                0x0000000010008f60       0x2c ../../libs/ble/libbtstack_central.a(ble_api.o)
                0x0000000010008f60                ble_set_scan_param
 .text.ble.api.conn_do
                0x0000000010008f8c       0x84 ../../libs/ble/libbtstack_central.a(ble_api.o)
                0x0000000010008f8c                ble_connect_by_addr
 .text.ble.api.regist
                0x0000000010009010        0x6 ../../libs/ble/libbtstack_central.a(ble_api.o)
                0x0000000010009010                ble_init_callback_register
                0x0000000010009014                ble_vs_tbox_init_callback_register
 .text          0x0000000010009016       0x44 ../../libs/ble/libbtstack_central.a(txpkt.o)
                0x0000000010009016                txpkt_mem_init
                0x0000000010009030                txpkt_malloc
                0x000000001000903c                txpkt_free
                0x0000000010009046                txpkt_list_pop_front
                0x0000000010009050                txpkt_list_extract
 .text          0x000000001000905a       0x8e ../../libs/ble/libbtstack_central.a(rf.o)
                0x000000001000905a                rf_off
                0x0000000010009086                rf_reset
                0x0000000010009088                rf_init
 .text.rf.tx_tone
                0x00000000100090e8       0x54 ../../libs/ble/libbtstack_central.a(rf.o)
                0x00000000100090e8                rf_single_tone_enter
 .text          0x000000001000913c      0x402 ../../libs/ble/libbtstack_central.a(hct_proc.o)
                0x000000001000949e                hct_register_handler_evt
                0x00000000100094a6                hct_register_handler_acl
                0x00000000100094ae                hct_acl_block_request
                0x00000000100094fe                hct_init_do
 *fill*         0x000000001000953e       0x42 
 .text          0x0000000010009580      0x2dc ../../libs/ble/libbtstack_central.a(hct.o)
                0x0000000010009580                hct_init
                0x0000000010009590                hci_send_2_host
                0x00000000100095c4                hci_cmd_send_2_controller
                0x0000000010009674                hci_acl_send_2_controller
                0x0000000010009780                hci_malloc_for_cmd_tmpl
                0x00000000100097d2                hci_malloc_for_acl_tx
                0x00000000100097f0                hci_ble_conhdl_register
                0x00000000100097fe                hci_ble_conhdl_unregister
 .text          0x000000001000985c      0x164 ../../libs/ble/libbtstack_central.a(mgr_hci.o)
                0x00000000100099ac                hci_le_rd_buff_size
 .text.le.mgr   0x00000000100099c0       0x38 ../../libs/ble/libbtstack_central.a(mgr_hci.o)
                0x00000000100099c0                hci_command_mgr_func
 .text          0x00000000100099f8      0x4a0 ../../libs/ble/libbtstack_central.a(mgr.o)
                0x00000000100099f8                mgr_cmd_cmp_send
                0x0000000010009a20                mgr_cmd_stat_send
                0x0000000010009a48                mgr_is_dev_connected
                0x0000000010009ab2                mgr_ral_is_empty
                0x0000000010009ab6                mgr_ch_map_update
                0x0000000010009c16                mgr_init
                0x0000000010009d1a                mgr_clk_acc_set
                0x0000000010009d58                mgr_link_disc
                0x0000000010009d8c                mgr_master_ch_map_get
                0x0000000010009d94                mgr_le_evt_mask_check
                0x0000000010009dae                mgr_le_get_features
                0x0000000010009e0a                mgr_le_get_tbox_feat
                0x0000000010009e18                mgr_plan_elt_get
                0x0000000010009e26                mgr_act_get_free
                0x0000000010009e76                mgr_act_set_free
 .text          0x0000000010009e98      0x438 ../../libs/ble/libbtstack_central.a(ll_scan.o)
                0x0000000010009e98                hci_le_set_scan_param_cmd_func
                0x0000000010009ff2                hci_le_set_scan_en_cmd_func
 .text.le.ll_scan
                0x000000001000a2d0      0x60c ../../libs/ble/libbtstack_central.a(ll_scan.o)
                0x000000001000a2d0                ble_adv_rep_ind_func
                0x000000001000a84c                ble_scan_end_ind_func
 .text.le.ll_cntl
                0x000000001000a8dc       0x68 ../../libs/ble/libbtstack_central.a(ll.o)
                0x000000001000a8dc                ll_init
 .text.le.ll_cntl.start
                0x000000001000a944      0x242 ../../libs/ble/libbtstack_central.a(ll.o)
                0x000000001000a944                ll_start
 .text          0x000000001000ab86      0x29e ../../libs/ble/libbtstack_central.a(ble_hal.o)
                0x000000001000ab86                ble_get_rslv_var
                0x000000001000ab8a                ble_hal_init
                0x000000001000ad7e                ble_ch_assess_data_get
                0x000000001000ad86                ble_aa_gen
 *fill*         0x000000001000ae24       0xdc 
 .text          0x000000001000af00      0x56c ../../libs/ble/libbtstack_central.a(ble_con.o)
                0x000000001000af00                ble_con_start_do
                0x000000001000af28                ble_con_start
                0x000000001000b300                ble_con_stop
                0x000000001000b380                ble_con_offset_get
                0x000000001000b3ba                ble_con_peer_sca_set
 .text.le.con   0x000000001000b46c       0x84 ../../libs/ble/libbtstack_central.a(ble_con.o)
                0x000000001000b46c                ble_get_con_var
                0x000000001000b474                ble_get_con_rssi
                0x000000001000b48a                ble_con_init
 .text          0x000000001000b4f0      0x130 ../../libs/ble/libbtstack_central.a(ble_buf.o)
                0x000000001000b4f0                ble_buf_init_do
                0x000000001000b5d6                ble_buf_init
 *fill*         0x000000001000b620       0x20 
 .text.bb.buf   0x000000001000b640       0x98 ../../libs/ble/libbtstack_central.a(ble_buf.o)
                0x000000001000b640                ble_buf_acl_tx_elt_get
                0x000000001000b680                ble_buf_acl_tx_elt_set
 .text.le.stack
                0x000000001000b6d8       0x28 ../../libs/ble/libbtstack_central.a(ble_buf.o)
                0x000000001000b6d8                ble_msg_malloc
                0x000000001000b6e0                ble_msg_free
                0x000000001000b6e8                ble_msg_wrap
                0x000000001000b6f6                ble_msg_unwrap
 .text          0x000000001000b700      0x110 ../../libs/ble/libbtstack_central.a(bb_int.o)
                0x000000001000b700                bb_sleep_init
                0x000000001000b702                bb_driver_init
 *fill*         0x000000001000b810       0xf0 
 .text.bb.aes   0x000000001000b900       0xf4 ../../libs/ble/libbtstack_central.a(bb_int.o)
                0x000000001000b900                bb_aes_encrypt
 .text          0x000000001000b9f4      0x292 ../../libs/ble/libbtstack_central.a(bb.o)
                0x000000001000ba16                bb_rand_init
                0x000000001000ba1e                bb_get_heap_info
                0x000000001000ba30                bb_var_init
                0x000000001000ba38                bb_nanos_mem_init
                0x000000001000ba7e                bb_reset
                0x000000001000bb0a                bb_init
                0x000000001000bc2a                bb_off
 .text          0x000000001000bc86       0x32 ../../libs/ble/libbtstack_central.a(extern_ble.o)
                0x000000001000bcae                ble_sync_link_info
                0x000000001000bcb4                hci_event_debug_en
 .text          0x000000001000bcb8       0x60 ../../libs/ble/libbtstack_central.a(l2cap.o)
                0x000000001000bd02                l2cap_register_packet_handler
                0x000000001000bd0a                l2cap_max_le_mtu
 .text.stk.l2cap.txreq
                0x000000001000bd18       0x96 ../../libs/ble/libbtstack_central.a(l2cap.o)
 .text.stack.l2cap
                0x000000001000bdae      0x118 ../../libs/ble/libbtstack_central.a(l2cap.o)
                0x000000001000beaa                l2cap_get_outgoing_buffer
                0x000000001000bebc                l2cap_reserve_packet_buffer
                0x000000001000bec2                l2cap_release_packet_buffer
 .text.stack.handler.l2cap
                0x000000001000bec6      0x160 ../../libs/ble/libbtstack_central.a(l2cap.o)
                0x000000001000c022                l2cap_can_send_fixed_channel_packet_now
 .text.stack.setup
                0x000000001000c026       0x70 ../../libs/ble/libbtstack_central.a(l2cap.o)
                0x000000001000c026                l2cap_init
                0x000000001000c074                l2cap_register_fixed_channel
 .text.stack.setup
                0x000000001000c096        0x2 ../../libs/ble/libbtstack_central.a(hci_dump.o)
                0x000000001000c096                hci_dump_open
 *fill*         0x000000001000c098        0x0 
 .text.stack.hci_send
                0x000000001000c098      0x322 ../../libs/ble/libbtstack_central.a(hci_cmd.o)
                0x000000001000c098                hci_cmd_create_from_template
 .text          0x000000001000c3ba        0x2 ../../libs/ble/libbtstack_central.a(btstack_run_loop.o)
                0x000000001000c3ba                thread_nanos_task_create
 *fill*         0x000000001000c3bc       0x44 
 .text.stack.run_loop
                0x000000001000c400      0x16a ../../libs/ble/libbtstack_central.a(btstack_run_loop.o)
                0x000000001000c400                btstack_run_loop_set_timer_handler
                0x000000001000c404                btstack_run_loop_set_data_source_handler
                0x000000001000c408                btstack_run_loop_set_data_source_fd
                0x000000001000c40c                btstack_run_loop_get_data_source_fd
                0x000000001000c410                btstack_run_loop_enable_data_source_callbacks
                0x000000001000c41c                btstack_run_loop_disable_data_source_callbacks
                0x000000001000c42c                btstack_run_loop_add_data_source
                0x000000001000c43e                btstack_run_loop_remove_data_source
                0x000000001000c450                btstack_run_loop_set_timer
                0x000000001000c46a                btstack_run_loop_set_timer_context
                0x000000001000c46e                btstack_run_loop_get_timer_context
                0x000000001000c480                btstack_run_loop_set_trig_ticks
                0x000000001000c4bc                btstack_run_loop_add_timer
                0x000000001000c4ec                btstack_run_loop_remove_timer
                0x000000001000c524                btstack_run_loop_get_ticks
                0x000000001000c52e                btstack_run_loop_ticks_for_ms
                0x000000001000c534                btstack_run_loop_get_time_ms
                0x000000001000c540                btstack_run_loop_timer_dump
 .text.stack.setup
                0x000000001000c56a       0x32 ../../libs/ble/libbtstack_central.a(btstack_run_loop.o)
                0x000000001000c56a                btstack_run_loop_init
 .text          0x000000001000c59c       0x2c ../../libs/ble/libbtstack_central.a(btstack_memory.o)
                0x000000001000c59c                btstack_memory_gatt_client_get
                0x000000001000c5a6                btstack_memory_gatt_client_free
                0x000000001000c5b2                btstack_memory_gatt_client_init
 .text          0x000000001000c5c8        0xa ../../libs/ble/libbtstack_central.a(btstack_main.o)
                0x000000001000c5c8                btstack_ble_set_init_callback
                0x000000001000c5d0                btstack_ble_vs_tbox_set_init_callback
 .text.stack.handler
                0x000000001000c5d2       0x3c ../../libs/ble/libbtstack_central.a(btstack_main.o)
 .text.stack.ble.setup
                0x000000001000c60e        0x4 ../../libs/ble/libbtstack_central.a(btstack_main.o)
                0x000000001000c60e                btstack_ble_init
 .text.stack.setup
                0x000000001000c612       0x34 ../../libs/ble/libbtstack_central.a(btstack_main.o)
                0x000000001000c612                btstack_main
 .text          0x000000001000c646       0x76 ../../libs/ble/libbtstack_central.a(nanos.o)
                0x000000001000c646                nanos_init
                0x000000001000c67c                nanos_var_init
 .text          0x000000001000c6bc       0x34 ../../libs/ble/libbtstack_central.a(bb_sche.o)
                0x000000001000c6bc                bb_sche_frag_ble_dur_set
                0x000000001000c6ce                bb_sche_init
 .text          0x000000001000c6f0       0xae ../../libs/ble/libbtstack_central.a(patch.o)
                0x000000001000c6f0                bb_patch_dummy
                0x000000001000c6f2                bb_patch_init
 .text.bb.aes   0x000000001000c79e      0x19a ../../libs/ble/libbtstack_central.a(aes.o)
                0x000000001000c79e                aes_init
                0x000000001000c7e8                aes_alloc
                0x000000001000c80a                aes_start
                0x000000001000c848                aes_encrypt
                0x000000001000c894                aes_rand
                0x000000001000c8d0                aes_result_handler
 .text          0x000000001000c938       0x38 ../../libs/ble/libbtstack_central.a(extern.o)
                0x000000001000c94e                bt_rf_get_fcc_param
                0x000000001000c956                private_freq_bands_hook
                0x000000001000c95a                private_access_code_hook
                0x000000001000c964                ble_tbox_feature_req_enabled
                0x000000001000c968                ble_chmap_instant_pass_discon
                0x000000001000c96c                ble_adv_duration_get
 .text          0x000000001000c970       0x9c ../../libs/ble/libbtstack_central.a(vs.o)
                0x000000001000c970                vs_init
                0x000000001000c9ac                vs_reset_complete_evt
 .text          0x000000001000ca0c      0x2ca ../../libs/ble/libbtstack_central.a(rf_mate.o)
                0x000000001000caf2                rfphy_tx
                0x000000001000cca4                rfphy_test
                0x000000001000cca6                ble_rf_external_pa_init
 .text.rfphy.other
                0x000000001000ccd6       0x8a ../../libs/ble/libbtstack_central.a(rf_mate.o)
 .text.rf.param.init
                0x000000001000cd60       0xf4 ../../libs/ble/libbtstack_central.a(rf_mate.o)
 .text.bb.rf    0x000000001000ce54       0x7a ../../libs/ble/libbtstack_central.a(rf_mate.o)
                0x000000001000ce54                rfphy_sw_ctrl
                0x000000001000ce84                rfphy_tx_pwr
 .text.bb.phy.tx
                0x000000001000cece       0x8c ../../libs/ble/libbtstack_central.a(rf_mate.o)
                0x000000001000cece                rfphy_tx_tone
 .text          0x000000001000cf5a        0x4 ../../libs/ble/libbtstack_central.a(scan_hook.o)
                0x000000001000cf5a                ble_scan_end_ind_hook
 .text          0x000000001000cf5e        0x2 ../../libs/ble/libbtstack_central.a(ble_hook.o)
                0x000000001000cf5e                ble_hal_init_hook
 .text          0x000000001000cf60      0x112 ../../libs/ble/libbtstack_central.a(hct_msg.o)
                0x000000001000cf60                hci_look_for_cmd_desc
                0x000000001000cfea                hci_look_for_evt_desc
                0x000000001000d02c                hci_look_for_dbg_evt_desc
                0x000000001000d030                hci_look_for_le_evt_desc
 .text          0x000000001000d072      0x220 ../../libs/ble/libbtstack_central.a(mgr_test.o)
                0x000000001000d094                ble_test_end_ind_func
                0x000000001000d0d6                hci_le_rx_test_v1_cmd_func
                0x000000001000d11c                hci_le_tx_test_v1_cmd_func
                0x000000001000d180                hci_le_rx_test_v2_cmd_func
                0x000000001000d1e0                hci_le_tx_test_v2_cmd_func
                0x000000001000d256                hci_le_test_end_cmd_func
 .text          0x000000001000d292       0x54 ../../libs/ble/libbtstack_central.a(mgr_proc.o)
 .text          0x000000001000d2e6      0xc0a ../../libs/ble/libbtstack_central.a(mgr_init.o)
                0x000000001000d2e6                hci_le_create_con_cmd_func
                0x000000001000d6d0                hci_le_ext_create_con_cmd_func
                0x000000001000daba                hci_le_create_con_cancel_cmd_func
                0x000000001000db2c                ble_init_end_ind_func
 .text          0x000000001000def0      0x236 ../../libs/ble/libbtstack_central.a(ll_proc.o)
                0x000000001000df10                hci_command_ll_func
                0x000000001000df48                ble_acl_rx_ind_func
                0x000000001000e0bc                ble_acl_tx_cfm_func
                0x000000001000e0cc                ll_cmd_cmp_send
                0x000000001000e0fe                ll_cmd_stat_send
 *fill*         0x000000001000e126        0x2 
 .text          0x000000001000e128      0xa26 ../../libs/ble/libbtstack_central.a(ll_phy_upd.o)
                0x000000001000e9ee                ll_op_phy_upd_ind_func
                0x000000001000ea8a                ble_phy_upd_cfm_func
                0x000000001000eaca                ll_phy_upd_proc_start
 .text.le.ll_cntl.pdu
                0x000000001000eb4e      0x264 ../../libs/ble/libbtstack_central.a(ll_phy_upd.o)
                0x000000001000eb4e                ll_phy_req_func
                0x000000001000ec24                ll_phy_rsp_func
                0x000000001000ecbe                ll_phy_update_ind_func
 .text          0x000000001000edb2      0x3ae ../../libs/ble/libbtstack_central.a(ll_length.o)
                0x000000001000f056                ll_op_length_upd_ind_func
                0x000000001000f0c4                ll_length_proc_start_for_param
                0x000000001000f12c                ll_length_proc_start
 .text.le.ll_cntl.pdu
                0x000000001000f160      0x214 ../../libs/ble/libbtstack_central.a(ll_length.o)
                0x000000001000f160                ll_length_req_func
                0x000000001000f2d2                ll_length_rsp_func
 .text          0x000000001000f374      0x2c6 ../../libs/ble/libbtstack_central.a(ll_feature.o)
                0x000000001000f53a                ll_op_feats_exch_ind_func
                0x000000001000f5b6                ll_feature_exchange_proc_start
                0x000000001000f606                ble_ll_feature_exchange_get
 .text.le.ll_cntl.pdu
                0x000000001000f63a      0x168 ../../libs/ble/libbtstack_central.a(ll_feature.o)
                0x000000001000f63a                ll_feature_req_func
                0x000000001000f6ae                ll_slave_feature_req_func
                0x000000001000f722                ll_feature_rsp_func
 *fill*         0x000000001000f7a2        0x2 
 .text          0x000000001000f7a4      0xc6c ../../libs/ble/libbtstack_central.a(ll_encrypt.o)
                0x000000001001007a                hci_le_en_enc_cmd_func
                0x000000001001015e                hci_le_ltk_req_reply_cmd_func
                0x00000000100101dc                hci_le_ltk_req_neg_reply_cmd_func
                0x0000000010010276                ll_encrypt_ind_func
                0x00000000100103a0                ll_op_encrypt_ind_func
 .text.le.ll_cntl.pdu
                0x0000000010010410      0x348 ../../libs/ble/libbtstack_central.a(ll_encrypt.o)
                0x0000000010010410                ll_pause_enc_req_func
                0x0000000010010496                ll_pause_enc_rsp_func
                0x0000000010010502                ll_enc_req_func
                0x000000001001061c                ll_enc_rsp_func
                0x00000000100106a2                ll_start_enc_req_func
                0x00000000100106fe                ll_start_enc_rsp_func
 .text          0x0000000010010758      0x110 ../../libs/ble/libbtstack_central.a(ll_disconnect.o)
                0x0000000010010758                ll_stopped_ind_func
                0x00000000100107b8                hci_disconnect_cmd_func
 *fill*         0x0000000010010868        0x0 
 .text          0x0000000010010868      0xd3e ../../libs/ble/libbtstack_central.a(ll_con_upd.o)
                0x00000000100111b4                hci_le_con_upd_cmd_func
                0x000000001001133e                ll_op_con_upd_ind_func
                0x00000000100113e0                ble_con_param_upd_cfm_func
                0x0000000010011458                ble_con_offset_upd_ind_func
                0x00000000100114aa                ll_con_move_cb
 .text.le.ll_cntl.pdu
                0x00000000100115a6      0x332 ../../libs/ble/libbtstack_central.a(ll_con_upd.o)
                0x00000000100115a6                ll_con_update_ind_func
                0x0000000010011716                ll_con_param_req_func
                0x000000001001183a                ll_con_param_rsp_func
 .text          0x00000000100118d8      0x198 ../../libs/ble/libbtstack_central.a(ll_cntl.o)
                0x00000000100118d8                ble_cntl_rx_ind_func
 .text.le.ll_cntl.pdu
                0x0000000010011a70       0x1a ../../libs/ble/libbtstack_central.a(ll_cntl.o)
 .text.le.ll_cntl.send
                0x0000000010011a8a       0xa2 ../../libs/ble/libbtstack_central.a(ll_cntl.o)
                0x0000000010011a8a                ll_cntl_send
 .text.le.ll_cntl.pdu
                0x0000000010011b2c      0x112 ../../libs/ble/libbtstack_central.a(ll_clk_acc.o)
                0x0000000010011b2c                ll_clk_acc_req_func
                0x0000000010011b86                ll_clk_acc_rsp_func
 .text          0x0000000010011c3e      0x348 ../../libs/ble/libbtstack_central.a(ll_chmap_upd.o)
                0x0000000010011e76                ll_op_ch_map_upd_ind_func
                0x0000000010011ede                mgr_ch_map_update_ind_func
                0x0000000010011f5e                ble_ch_map_upd_cfm_func
 .text.le.ll_cntl.pdu
                0x0000000010011f86      0x1da ../../libs/ble/libbtstack_central.a(ll_chmap_upd.o)
                0x0000000010011f86                ll_channel_map_ind_func
                0x00000000100120b6                ll_min_used_channels_ind_func
 .text          0x0000000010012160       0x28 ../../libs/ble/libbtstack_central.a(ble_test.o)
                0x0000000010012160                ble_test_init
                0x0000000010012180                ble_get_test_var
 .text.bb.ble.test.start
                0x0000000010012188       0x2e ../../libs/ble/libbtstack_central.a(ble_test.o)
                0x0000000010012188                ble_test_start
 .text          0x00000000100121b6       0x84 ../../libs/ble/libbtstack_central.a(ble_scan.o)
                0x00000000100121b6                ble_get_scan_var
                0x00000000100121be                ble_get_ssync_var
                0x00000000100121c6                ble_scan_init
 .text          0x000000001001223a       0x72 ../../libs/ble/libbtstack_central.a(ble_init.o)
                0x000000001001223a                ble_init_init
                0x00000000100122a4                ble_get_init_var
 .text          0x00000000100122ac       0x42 ../../libs/ble/libbtstack_central.a(ble.o)
                0x00000000100122ac                ble_init
 .text.ble.var.init
                0x00000000100122ee       0x56 ../../libs/ble/libbtstack_central.a(ble.o)
                0x00000000100122ee                ble_var_init
 .text.bb.timer.ind
                0x0000000010012344       0x24 ../../libs/ble/libbtstack_central.a(bb_alarm.o)
                0x0000000010012344                bb_timer_end_ind
 .text.bb.timer.init
                0x0000000010012368       0xcc ../../libs/ble/libbtstack_central.a(bb_alarm.o)
                0x0000000010012368                bb_timer_init
 .text.stack.l2cap_sig
                0x0000000010012434      0x126 ../../libs/ble/libbtstack_central.a(l2cap_signaling.o)
                0x0000000010012434                l2cap_create_signaling_le
 .text.stack.memory
                0x000000001001255a       0x46 ../../libs/ble/libbtstack_central.a(btstack_memory_pool.o)
                0x000000001001255a                btstack_memory_pool_get
                0x0000000010012566                btstack_memory_pool_free
                0x000000001001257a                btstack_memory_pool_create
 .text          0x00000000100125a0       0xb6 ../../libs/ble/libbtstack_central.a(vs_proc.o)
 .text.bb.vs.fcc_ble.do
                0x0000000010012656       0x8a ../../libs/ble/libbtstack_central.a(vs_fcc.o)
                0x0000000010012656                vs_ble_test_do
 .text.bb.vs.fcc
                0x00000000100126e0       0xc2 ../../libs/ble/libbtstack_central.a(vs_fcc.o)
                0x00000000100126e0                vs_ble_test
                0x00000000100126e4                vs_fcc_test_cmd
 .text          0x00000000100127a2       0x60 ../../libs/ble/libbtstack_central.a(ll_version.o)
                0x00000000100127ce                ble_ll_version_get
 .text.le.ll_cntl.pdu
                0x0000000010012802      0x14e ../../libs/ble/libbtstack_central.a(ll_version.o)
                0x0000000010012802                ll_version_ind_func
 .text          0x0000000010012950        0x4 ../../libs/ble/libbtstack_central.a(ble_sync.o)
                0x0000000010012950                ble_get_sync_var
 *(.rodata*)
 *fill*         0x0000000010012954        0x0 
 .rodata.str1.4
                0x0000000010012954       0x3b client_output/obj/driver/driver_lowpwr.o
 *fill*         0x000000001001298f        0x1 
 .rodata        0x0000000010012990        0x9 client_output/obj/app/func.o
 .rodata.str1.4
                0x0000000010012999       0x3b client_output/obj/app/func.o
                                          0x4 (size before relaxing)
 .rodata.str1.4
                0x0000000010012999        0x4 client_output/obj/app/func_bt.o
 *fill*         0x0000000010012999        0x3 
 .rodata        0x000000001001299c        0xa client_output/obj/app/func_idle.o
 .rodata.str1.4
                0x00000000100129a6        0x4 client_output/obj/app/func_idle.o
 *fill*         0x00000000100129a6        0x2 
 .rodata        0x00000000100129a8        0xc client_output/obj/app/func_lowpwr.o
 .rodata.str1.4
                0x00000000100129b4        0x4 client_output/obj/app/func_lowpwr.o
 .rodata.str1.4
                0x00000000100129b4      0x334 client_output/obj/ble/ble_client.o
 .rodata        0x0000000010012ce8        0xd client_output/obj/bsp/bsp_sys.o
 *fill*         0x0000000010012cf5        0x3 
 .rodata.str1.4
                0x0000000010012cf8       0x5d client_output/obj/bsp/bsp_sys.o
                                         0x64 (size before relaxing)
 *fill*         0x0000000010012d55        0x3 
 .rodata.str1.4
                0x0000000010012d58       0x2c client_output/obj/main.o
 .rodata        0x0000000010012d84       0x10 client_output/obj/strong_symbol.o
 .rodata.str1.4
                0x0000000010012d94       0x1e client_output/obj/strong_symbol.o
 *fill*         0x0000000010012db2        0x2 
 .rodata.cm_next_freepage.str1.4
                0x0000000010012db4        0xc ../../libs/cpu/libplatform.a(cm.o)
 .rodata.cm_movepage.str1.4
                0x0000000010012dc0       0x10 ../../libs/cpu/libplatform.a(cm.o)
 .rodata.cm_release.str1.4
                0x0000000010012dd0       0x22 ../../libs/cpu/libplatform.a(cm.o)
 *fill*         0x0000000010012df2        0x2 
 .rodata.cm_savepage.str1.4
                0x0000000010012df4       0x13 ../../libs/cpu/libplatform.a(cm.o)
 *fill*         0x0000000010012e07        0x1 
 .rodata.cm_check_loadpage.str1.4
                0x0000000010012e08       0x3b ../../libs/cpu/libplatform.a(cm.o)
 *fill*         0x0000000010012e43        0x1 
 .rodata.cm_init.str1.4
                0x0000000010012e44       0x30 ../../libs/cpu/libplatform.a(cm.o)
 .rodata.platform_main.str1.4
                0x0000000010012e74       0x10 ../../libs/cpu/libplatform.a(main.o)
 .rodata.thread_btstack_create.str1.4
                0x0000000010012e84        0xc ../../libs/cpu/libplatform.a(startup.o)
 .rodata.startup.init.str1.4
                0x0000000010012e90       0x2b ../../libs/cpu/libplatform.a(startup.o)
 *fill*         0x0000000010012ebb        0x1 
 .rodata.pll0_vco_band_trimming.str1.4
                0x0000000010012ebc       0x20 ../../libs/cpu/libplatform.a(pll.o)
 .rodata.patch_init.str1.4
                0x0000000010012edc       0x1b ../../libs/cpu/libplatform.a(patch.o)
 *fill*         0x0000000010012ef7        0x1 
 .rodata.sys_rst_dump.str1.4
                0x0000000010012ef8       0x45 ../../libs/cpu/libplatform.a(sys.o)
 *fill*         0x0000000010012f3d        0x3 
 .rodata.str1.4
                0x0000000010012f40       0x79 ../../libs/ble/libbtstack_central.a(hci.o)
 *fill*         0x0000000010012fb9        0x3 
 .rodata        0x0000000010012fbc       0x20 ../../libs/ble/libbtstack_central.a(btstack_util.o)
                0x0000000010012fcc                bluetooth_base_uuid
 .rodata        0x0000000010012fdc       0x14 ../../libs/ble/libbtstack_central.a(gatt_client.o)
 .rodata        0x0000000010012ff0       0x10 ../../libs/ble/libbtstack_central.a(att_db.o)
 .rodata        0x0000000010013000       0x20 ../../libs/ble/libbtstack_central.a(hci_transport_dummy.o)
 .rodata.str1.4
                0x0000000010013020       0x19 ../../libs/ble/libbtstack_central.a(btstack_api.o)
 *fill*         0x0000000010013039        0x3 
 .rodata        0x000000001001303c       0x21 ../../libs/ble/libbtstack_central.a(btstack_api.o)
 *fill*         0x000000001001305d        0x3 
 .rodata.stack.api
                0x0000000010013060       0x94 ../../libs/ble/libbtstack_central.a(btstack_api.o)
                0x0000000010013060                btstack_basic_tbl
                0x0000000010013070                btstack_ctl_tbl
                0x00000000100130e4                btstack_api_tbl
 .rodata.str1.4
                0x00000000100130f4        0x9 ../../libs/ble/libbtstack_central.a(hct_proc.o)
 *fill*         0x00000000100130fd        0x3 
 .rodata        0x0000000010013100       0x4c ../../libs/ble/libbtstack_central.a(hct_proc.o)
 .rodata.le.mgr_cntl.tbl
                0x000000001001314c       0x70 ../../libs/ble/libbtstack_central.a(mgr_hci.o)
                0x000000001001314c                mgr_hci_cmd_tbl
 .rodata        0x00000000100131bc       0x1c ../../libs/ble/libbtstack_central.a(ll_scan.o)
 .rodata.bb.tbl
                0x00000000100131d8        0x7 ../../libs/ble/libbtstack_central.a(ble_hal.o)
 *fill*         0x00000000100131df        0x1 
 .rodata.bb.tbl
                0x00000000100131e0        0x8 ../../libs/ble/libbtstack_central.a(ble_con.o)
                0x00000000100131e0                connect_req_dur_tab
 .rodata.bb.tbl
                0x00000000100131e8       0x10 ../../libs/ble/libbtstack_central.a(bb_utils.o)
                0x00000000100131e8                null_array
 .rodata.str1.4
                0x00000000100131f8       0x21 ../../libs/ble/libbtstack_central.a(bb.o)
 *fill*         0x0000000010013219        0x3 
 .rodata        0x000000001001321c       0x24 ../../libs/ble/libbtstack_central.a(bb.o)
                0x000000001001321c                bb_hook
 .rodata.stack.l2cap
                0x0000000010013240        0x2 ../../libs/ble/libbtstack_central.a(l2cap.o)
 *fill*         0x0000000010013242        0x2 
 .rodata.str1.4
                0x0000000010013244       0xb7 ../../libs/ble/libbtstack_central.a(hci_cmd.o)
                                         0xd3 (size before relaxing)
 *fill*         0x00000000100132fb        0x1 
 .rodata.btstakc.hci
                0x00000000100132fc        0x8 ../../libs/ble/libbtstack_central.a(hci_cmd.o)
                0x00000000100132fc                hci_num_of_packet_complete
 .rodata.stack.hci_send
                0x0000000010013304      0x120 ../../libs/ble/libbtstack_central.a(hci_cmd.o)
                0x0000000010013304                hci_le_write_rf_path_compensation
                0x000000001001330c                hci_le_read_rf_path_compensation
                0x0000000010013314                hci_le_transmit_power
                0x000000001001331c                hci_le_read_periodic_adv_list_size
                0x0000000010013324                hci_le_set_default_phy
                0x000000001001332c                hci_le_long_term_key_negative_reply
                0x0000000010013334                hci_le_long_term_key_request_reply
                0x000000001001333c                hci_le_rand
                0x0000000010013344                hci_le_encrypt
                0x000000001001334c                hci_le_connection_update
                0x0000000010013354                hci_le_add_device_to_per_adv_list
                0x000000001001335c                hci_le_per_advertising_terminate_sync
                0x0000000010013364                hci_le_per_advertising_creat_sync_cancel
                0x000000001001336c                hci_le_per_advertising_creat_sync
                0x0000000010013374                hci_ext_creat_connection
                0x000000001001337c                hci_le_set_ext_scan_enable
                0x0000000010013384                hci_le_set_ext_scan_parameters
                0x000000001001338c                hci_le_set_per_advertise_enable
                0x0000000010013394                hci_le_set_per_advertising_data
                0x000000001001339c                hci_le_set_per_advertising_parameters
                0x00000000100133a4                hci_le_set_ext_advertise_enable
                0x00000000100133ac                hci_le_set_ext_scan_response_data
                0x00000000100133b4                hci_le_set_ext_advertising_data
                0x00000000100133bc                hci_le_set_ext_advertising_parameters
                0x00000000100133c4                hci_le_set_advertise_enable
                0x00000000100133cc                hci_le_set_scan_response_data
                0x00000000100133d4                hci_le_set_advertising_data
                0x00000000100133dc                hci_le_set_advertising_parameters
                0x00000000100133e4                hci_le_set_random_address
                0x00000000100133ec                hci_le_read_buffer_size
                0x00000000100133f4                hci_le_start_encryption
                0x00000000100133fc                hci_le_create_connection_cancel
                0x0000000010013404                hci_le_create_connection
                0x000000001001340c                hci_le_set_scan_enable
                0x0000000010013414                hci_le_set_scan_parameters
                0x000000001001341c                hci_disconnect
 .rodata        0x0000000010013424       0x24 ../../libs/ble/libbtstack_central.a(bb_sche.o)
 .rodata.bb.tbl
                0x0000000010013448       0x81 ../../libs/ble/libbtstack_central.a(rf_mate.o)
 *fill*         0x00000000100134c9        0x3 
 .rodata        0x00000000100134cc       0xe0 ../../libs/ble/libbtstack_central.a(hct_msg.o)
                0x00000000100134cc                hci_cmd_desc_root_tab
                0x000000001001350c                hci_evt_desc_tab
                0x000000001001351c                hci_evt_le_desc_tab
                0x0000000010013530                hci_cmd_desc_tab_le
                0x0000000010013530                hci_evt_dbg_desc_tab
                0x000000001001358c                hci_cmd_desc_tab_stat_par
                0x000000001001358c                hci_cmd_desc_tab_info_par
                0x0000000010013598                hci_cmd_desc_tab_ctrl_bb
 .rodata        0x00000000100135ac       0x40 ../../libs/ble/libbtstack_central.a(mgr_proc.o)
 .rodata.le.ll_cntl.tbl
                0x00000000100135ec       0xf8 ../../libs/ble/libbtstack_central.a(ll_proc.o)
                0x00000000100135ec                ll_msg_tbl
                0x00000000100136bc                ll_hci_cmd_tbl
 .rodata.str1.4
                0x00000000100136e4       0x55 ../../libs/ble/libbtstack_central.a(ll_cntl.o)
                                         0x59 (size before relaxing)
 *fill*         0x0000000010013739        0x3 
 .rodata.le.ll_cntl.tbl
                0x000000001001373c      0x1f8 ../../libs/ble/libbtstack_central.a(ll_cntl.o)
                0x000000001001373c                ll_cntl_pdu_tbl
 .rodata.bb.tbl
                0x0000000010013934       0x1c ../../libs/ble/libbtstack_central.a(ble.o)
                0x0000000010013934                ble_ctl
 .rodata.str1.4
                0x0000000010013950       0x14 ../../libs/ble/libbtstack_central.a(l2cap_signaling.o)
                                         0x2a (size before relaxing)
 .rodata        0x0000000010013964       0x58 ../../libs/ble/libbtstack_central.a(l2cap_signaling.o)
 .rodata        0x00000000100139bc       0x20 ../../libs/ble/libbtstack_central.a(vs_proc.o)
 *(.srodata*)
 .srodata       0x00000000100139dc       0x18 ../../libs/ble/libbtstack_central.a(mgr.o)
 .srodata       0x00000000100139f4        0xc ../../libs/ble/libbtstack_central.a(hct_msg.o)
                0x00000000100139f4                hci_cmd_desc_tab_vs
                0x00000000100139fc                hci_cmd_desc_tab_lk_ctrl
 *(.rela*)
 .rela.text.clk_clk32k_rtc_get
                0x0000000010013a00        0x0 client_output/obj/driver/driver_clk.o
 .rela.text.clk_saradc_clk_get
                0x0000000010013a00        0x0 client_output/obj/driver/driver_clk.o
 .rela.text.clk_clk2m_ks_get
                0x0000000010013a00        0x0 client_output/obj/driver/driver_clk.o
 .rela.text.wk0_edge_capture_config
                0x0000000010013a00        0x0 client_output/obj/driver/driver_clk.o
 .rela.text.gpio_edge_capture_config
                0x0000000010013a00        0x0 client_output/obj/driver/driver_clk.o
 .rela.text.gpio_edge_capture_config_custom
                0x0000000010013a00        0x0 client_output/obj/driver/driver_clk.o
 .rela.text.gpio_set_reset_pin
                0x0000000010013a00        0x0 client_output/obj/driver/driver_clk.o
 .rela.text.gpio_edge_pic_config
                0x0000000010013a00        0x0 client_output/obj/driver/driver_clk.o
 .rela.text.hsuart_init
                0x0000000010013a00        0x0 client_output/obj/driver/driver_clk.o
 .rela.text.hsuart_baud_config
                0x0000000010013a00        0x0 client_output/obj/driver/driver_clk.o
 .rela.text.hsuart_pic_config
                0x0000000010013a00        0x0 client_output/obj/driver/driver_clk.o
 .rela.text.keyscan_pic_config
                0x0000000010013a00        0x0 client_output/obj/driver/driver_clk.o
 .rela.text.ledc_pic_config
                0x0000000010013a00        0x0 client_output/obj/driver/driver_clk.o
 .rela.com_pwroff.mode2
                0x0000000010013a00        0x0 client_output/obj/driver/driver_clk.o
 .rela.com_sleep.lp_wakeup
                0x0000000010013a00        0x0 client_output/obj/driver/driver_clk.o
 .rela.text.lowpwr_get_wakeup_source
                0x0000000010013a00        0x0 client_output/obj/driver/driver_clk.o
 .rela.text.lowpwr_wk0_wakeup_config
                0x0000000010013a00        0x0 client_output/obj/driver/driver_clk.o
 .rela.text.lowpwr_gpio_wakeup_config
                0x0000000010013a00        0x0 client_output/obj/driver/driver_clk.o
 .rela.text.lowpwr_gpio_wakeup_config_custom
                0x0000000010013a00        0x0 client_output/obj/driver/driver_clk.o
 .rela.text.lowpwr_wakeup_config
                0x0000000010013a00        0x0 client_output/obj/driver/driver_clk.o
 .rela.com_pwroff.mode1
                0x0000000010013a00        0x0 client_output/obj/driver/driver_clk.o
 .rela.com_sleep.proc_do
                0x0000000010013a00        0x0 client_output/obj/driver/driver_clk.o
 .rela.com_sleep.sleep
                0x0000000010013a00        0x0 client_output/obj/driver/driver_clk.o
 .rela.text.tmrp_pic_config
                0x0000000010013a00        0x0 client_output/obj/driver/driver_clk.o
 .rela.text.rtc_pic_config
                0x0000000010013a00        0x0 client_output/obj/driver/driver_clk.o
 .rela.text.saradc_mic_init
                0x0000000010013a00        0x0 client_output/obj/driver/driver_clk.o
 .rela.text.saradc_init
                0x0000000010013a00        0x0 client_output/obj/driver/driver_clk.o
 .rela.text.saradc_deinit
                0x0000000010013a00        0x0 client_output/obj/driver/driver_clk.o
 .rela.text.saradc_set_baud
                0x0000000010013a00        0x0 client_output/obj/driver/driver_clk.o
 .rela.text.saradc_pic_config
                0x0000000010013a00        0x0 client_output/obj/driver/driver_clk.o
 .rela.com_periph.saradc.get_data
                0x0000000010013a00        0x0 client_output/obj/driver/driver_clk.o
 .rela.text.spi_init
                0x0000000010013a00        0x0 client_output/obj/driver/driver_clk.o
 .rela.text.tmr_pic_config
                0x0000000010013a00        0x0 client_output/obj/driver/driver_clk.o
 .rela.text.uart_init
                0x0000000010013a00        0x0 client_output/obj/driver/driver_clk.o
 .rela.text.uart_pic_config
                0x0000000010013a00        0x0 client_output/obj/driver/driver_clk.o
 .rela.text.uart_baud_config
                0x0000000010013a00        0x0 client_output/obj/driver/driver_clk.o
 .rela.text.app.proc.func
                0x0000000010013a00        0x0 client_output/obj/driver/driver_clk.o
 .rela.text.func
                0x0000000010013a00        0x0 client_output/obj/driver/driver_clk.o
 .rela.text.app.proc.bt
                0x0000000010013a00        0x0 client_output/obj/driver/driver_clk.o
 .rela.text.func.bt
                0x0000000010013a00        0x0 client_output/obj/driver/driver_clk.o
 .rela.text.func.idle
                0x0000000010013a00        0x0 client_output/obj/driver/driver_clk.o
 .rela.text.lowpwr_pwroff_wakeup_config
                0x0000000010013a00        0x0 client_output/obj/driver/driver_clk.o
 .rela.text.lowpwr.pwroff
                0x0000000010013a00        0x0 client_output/obj/driver/driver_clk.o
 .rela.text.ble_get_scan_data
                0x0000000010013a00        0x0 client_output/obj/driver/driver_clk.o
 .rela.text.ble_get_adv_data
                0x0000000010013a00        0x0 client_output/obj/driver/driver_clk.o
 .rela.text.ble_adv_param_init
                0x0000000010013a00        0x0 client_output/obj/driver/driver_clk.o
 .rela.text.ble_client_notify_callback
                0x0000000010013a00        0x0 client_output/obj/driver/driver_clk.o
 .rela.text.ble_client_event_callback
                0x0000000010013a00        0x0 client_output/obj/driver/driver_clk.o
 .rela.text.ble_att_read_callback
                0x0000000010013a00        0x0 client_output/obj/driver/driver_clk.o
 .rela.text.ble_client_init
                0x0000000010013a00        0x0 client_output/obj/driver/driver_clk.o
 .rela.text.ble_scan_en_test
                0x0000000010013a00        0x0 client_output/obj/driver/driver_clk.o
 .rela.text.ble_write_test
                0x0000000010013a00        0x0 client_output/obj/driver/driver_clk.o
 .rela.text.ble_write_to_server
                0x0000000010013a00        0x0 client_output/obj/driver/driver_clk.o
 .rela.text.ble_read_test
                0x0000000010013a00        0x0 client_output/obj/driver/driver_clk.o
 .rela.text.ble_txpkt_init
                0x0000000010013a00        0x0 client_output/obj/driver/driver_clk.o
 .rela.text.ble_sm_param_init
                0x0000000010013a00        0x0 client_output/obj/driver/driver_clk.o
 .rela.text.ble_scan_param_init
                0x0000000010013a00        0x0 client_output/obj/driver/driver_clk.o
 .rela.text.ble_central_init
                0x0000000010013a00        0x0 client_output/obj/driver/driver_clk.o
 .rela.text.ble_periph_init
                0x0000000010013a00        0x0 client_output/obj/driver/driver_clk.o
 .rela.text.bsp_ble_init
                0x0000000010013a00        0x0 client_output/obj/driver/driver_clk.o
 .rela.text.ble_enter_sleep_proc
                0x0000000010013a00        0x0 client_output/obj/driver/driver_clk.o
 .rela.text.ble_exit_sleep_proc
                0x0000000010013a00        0x0 client_output/obj/driver/driver_clk.o
 .rela.text.ble_service_init
                0x0000000010013a00        0x0 client_output/obj/driver/driver_clk.o
 .rela.text.ble_event_callback
                0x0000000010013a00        0x0 client_output/obj/driver/driver_clk.o
 .rela.text.service_read_callback
                0x0000000010013a00        0x0 client_output/obj/driver/driver_clk.o
 .rela.text.service_write_callback
                0x0000000010013a00        0x0 client_output/obj/driver/driver_clk.o
 .rela.com_sleep.ble.sleep
                0x0000000010013a00        0x0 client_output/obj/driver/driver_clk.o
 .rela.text.service_notify_event
                0x0000000010013a00        0x0 client_output/obj/driver/driver_clk.o
 .rela.text.ble_user_service_init
                0x0000000010013a00        0x0 client_output/obj/driver/driver_clk.o
 .rela.text.app.proc.ble
                0x0000000010013a00        0x0 client_output/obj/driver/driver_clk.o
 .rela.text.bsp.param
                0x0000000010013a00        0x0 client_output/obj/driver/driver_clk.o
 .rela.text.bsp.param.fota
                0x0000000010013a00        0x0 client_output/obj/driver/driver_clk.o
 .rela.text.sys_ram_info_dump
                0x0000000010013a00        0x0 client_output/obj/driver/driver_clk.o
 .rela.com_text.timer
                0x0000000010013a00        0x0 client_output/obj/driver/driver_clk.o
 .rela.text.bsp.sys.init
                0x0000000010013a00        0x0 client_output/obj/driver/driver_clk.o
 .rela.text.bsp_periph_init
                0x0000000010013a00        0x0 client_output/obj/driver/driver_clk.o
 .rela.text.bsp_uart_debug_init
                0x0000000010013a00        0x0 client_output/obj/driver/driver_clk.o
 .rela.text.startup.main
                0x0000000010013a00        0x0 client_output/obj/driver/driver_clk.o
 .rela.text.ble_get_local_bd_addr
                0x0000000010013a00        0x0 client_output/obj/driver/driver_clk.o
 .rela.text.bt_rf_get_param
                0x0000000010013a00        0x0 client_output/obj/driver/driver_clk.o
 .rela.com_sleep.rf.txpwr
                0x0000000010013a00        0x0 client_output/obj/driver/driver_clk.o
 .rela.text.ble_get_link_info
                0x0000000010013a00        0x0 client_output/obj/driver/driver_clk.o
 .rela.text.ble_put_link_info
                0x0000000010013a00        0x0 client_output/obj/driver/driver_clk.o
 .rela.text.thread_create_callback
                0x0000000010013a00        0x0 client_output/obj/driver/driver_clk.o
 .rela.text.xosc_get_xcfg
                0x0000000010013a00        0x0 client_output/obj/driver/driver_clk.o
 .rela.text.param_xosc_write
                0x0000000010013a00        0x0 client_output/obj/driver/driver_clk.o
 .rela.com_text.spiflash
                0x0000000010013a00        0x0 client_output/obj/driver/driver_clk.o
 .rela.text.audio_mic_power
                0x0000000010013a00        0x0 client_output/obj/driver/driver_clk.o
 .rela.text.audio_mic_analog_init
                0x0000000010013a00        0x0 client_output/obj/driver/driver_clk.o
 .rela.text.audio_micdc_trim_step0_init
                0x0000000010013a00        0x0 client_output/obj/driver/driver_clk.o
 .rela.text.audio_micdc_trim_step0_waiting
                0x0000000010013a00        0x0 client_output/obj/driver/driver_clk.o
 .rela.text.audio_micdc_trim_step0_run
                0x0000000010013a00        0x0 client_output/obj/driver/driver_clk.o
 .rela.text.audio_micdc_trim_step1_init
                0x0000000010013a00        0x0 client_output/obj/driver/driver_clk.o
 .rela.text.audio_micdc_trim_step1_waiting
                0x0000000010013a00        0x0 client_output/obj/driver/driver_clk.o
 .rela.text.audio_micdc_trim_step1_run
                0x0000000010013a00        0x0 client_output/obj/driver/driver_clk.o
 .rela.text.micin_config
                0x0000000010013a00        0x0 client_output/obj/driver/driver_clk.o
 .rela.text.audio_micin_trim_step0_init
                0x0000000010013a00        0x0 client_output/obj/driver/driver_clk.o
 .rela.text.audio_micin_trim_step0_waiting
                0x0000000010013a00        0x0 client_output/obj/driver/driver_clk.o
 .rela.text.audio_micin_trim_step1_init
                0x0000000010013a00        0x0 client_output/obj/driver/driver_clk.o
 .rela.text.audio_micin_trim_step2_run
                0x0000000010013a00        0x0 client_output/obj/driver/driver_clk.o
 .rela.text.audio_mic_trim_proc
                0x0000000010013a00        0x0 client_output/obj/driver/driver_clk.o
 .rela.text.cm_loadpage
                0x0000000010013a00        0x0 client_output/obj/driver/driver_clk.o
 .rela.text.cm_next_freepage
                0x0000000010013a00        0x0 client_output/obj/driver/driver_clk.o
 .rela.text.cm_factory
                0x0000000010013a00        0x0 client_output/obj/driver/driver_clk.o
 .rela.text.cm_writepage
                0x0000000010013a00        0x0 client_output/obj/driver/driver_clk.o
 .rela.text.cm_movepage
                0x0000000010013a00        0x0 client_output/obj/driver/driver_clk.o
 .rela.text.cm_erase
                0x0000000010013a00        0x0 client_output/obj/driver/driver_clk.o
 .rela.text.cm_release
                0x0000000010013a00        0x0 client_output/obj/driver/driver_clk.o
 .rela.text.cm_savepage
                0x0000000010013a00        0x0 client_output/obj/driver/driver_clk.o
 .rela.text.cm_check_loadpage
                0x0000000010013a00        0x0 client_output/obj/driver/driver_clk.o
 .rela.text.cm_move_allpages
                0x0000000010013a00        0x0 client_output/obj/driver/driver_clk.o
 .rela.text.cm_sync
                0x0000000010013a00        0x0 client_output/obj/driver/driver_clk.o
 .rela.text.cm_release_all
                0x0000000010013a00        0x0 client_output/obj/driver/driver_clk.o
 .rela.text.cm_read
                0x0000000010013a00        0x0 client_output/obj/driver/driver_clk.o
 .rela.text.cm_read8
                0x0000000010013a00        0x0 client_output/obj/driver/driver_clk.o
 .rela.text.cm_read16
                0x0000000010013a00        0x0 client_output/obj/driver/driver_clk.o
 .rela.text.cm_read32
                0x0000000010013a00        0x0 client_output/obj/driver/driver_clk.o
 .rela.text.cm_write
                0x0000000010013a00        0x0 client_output/obj/driver/driver_clk.o
 .rela.text.cm_write8
                0x0000000010013a00        0x0 client_output/obj/driver/driver_clk.o
 .rela.text.cm_write16
                0x0000000010013a00        0x0 client_output/obj/driver/driver_clk.o
 .rela.text.cm_write32
                0x0000000010013a00        0x0 client_output/obj/driver/driver_clk.o
 .rela.text.cm_clear
                0x0000000010013a00        0x0 client_output/obj/driver/driver_clk.o
 .rela.text.cm_init
                0x0000000010013a00        0x0 client_output/obj/driver/driver_clk.o
 .rela.com_text.spiflash.id
                0x0000000010013a00        0x0 client_output/obj/driver/driver_clk.o
 .rela.text.xcfg_init
                0x0000000010013a00        0x0 client_output/obj/driver/driver_clk.o
 .rela.com_text.delay
                0x0000000010013a00        0x0 client_output/obj/driver/driver_clk.o
 .rela.text.platform_main
                0x0000000010013a00        0x0 client_output/obj/driver/driver_clk.o
 .rela.text.main_startup
                0x0000000010013a00        0x0 client_output/obj/driver/driver_clk.o
 .rela.com_text.irq
                0x0000000010013a00        0x0 client_output/obj/driver/driver_clk.o
 .rela.com_text.irq.wpt
                0x0000000010013a00        0x0 client_output/obj/driver/driver_clk.o
 .rela.text.sys_irq_init
                0x0000000010013a00        0x0 client_output/obj/driver/driver_clk.o
 .rela.text.soft_irq_init
                0x0000000010013a00        0x0 client_output/obj/driver/driver_clk.o
 .rela.text.bthw_irq_init
                0x0000000010013a00        0x0 client_output/obj/driver/driver_clk.o
 .rela.text.watch_point_set
                0x0000000010013a00        0x0 client_output/obj/driver/driver_clk.o
 .rela.text.usb_irq_init
                0x0000000010013a00        0x0 client_output/obj/driver/driver_clk.o
 .rela.text.sys_timer_init
                0x0000000010013a00        0x0 client_output/obj/driver/driver_clk.o
 .rela.text.thread_timer_create
                0x0000000010013a00        0x0 client_output/obj/driver/driver_clk.o
 .rela.text.thread_btstack_create
                0x0000000010013a00        0x0 client_output/obj/driver/driver_clk.o
 .rela.text.thread_driver_create
                0x0000000010013a00        0x0 client_output/obj/driver/driver_clk.o
 .rela.text.thread_main_entry
                0x0000000010013a00        0x0 client_output/obj/driver/driver_clk.o
 .rela.text.startup.init
                0x0000000010013a00        0x0 client_output/obj/driver/driver_clk.o
 .rela.com_text.thread.driver.usb
                0x0000000010013a00        0x0 client_output/obj/driver/driver_clk.o
 .rela.com_text.thread.driver.vs
                0x0000000010013a00        0x0 client_output/obj/driver/driver_clk.o
 .rela.com_text.thread.driver.enter
                0x0000000010013a00        0x0 client_output/obj/driver/driver_clk.o
 .rela.text.pll0_vco_band_trimming
                0x0000000010013a00        0x0 client_output/obj/driver/driver_clk.o
 .rela.text.pll0_init
                0x0000000010013a00        0x0 client_output/obj/driver/driver_clk.o
 .rela.text.pll_ext_init
                0x0000000010013a00        0x0 client_output/obj/driver/driver_clk.o
 .rela.com_text.trim.vddio_get
                0x0000000010013a00        0x0 client_output/obj/driver/driver_clk.o
 .rela.com_text.trim.vddio_set
                0x0000000010013a00        0x0 client_output/obj/driver/driver_clk.o
 .rela.com_text.trim.core_get
                0x0000000010013a00        0x0 client_output/obj/driver/driver_clk.o
 .rela.com_text.trim.core_set
                0x0000000010013a00        0x0 client_output/obj/driver/driver_clk.o
 .rela.com_text.trim.lvd_get
                0x0000000010013a00        0x0 client_output/obj/driver/driver_clk.o
 .rela.com_text.trim.lvd_set
                0x0000000010013a00        0x0 client_output/obj/driver/driver_clk.o
 .rela.text.pmu_voltage_configure
                0x0000000010013a00        0x0 client_output/obj/driver/driver_clk.o
 .rela.text.pmu_init
                0x0000000010013a00        0x0 client_output/obj/driver/driver_clk.o
 .rela.reset    0x0000000010013a00        0x0 client_output/obj/driver/driver_clk.o
 .rela.vector   0x0000000010013a00        0x0 client_output/obj/driver/driver_clk.o
 .rela.text.lock_code_usbdev
                0x0000000010013a00        0x0 client_output/obj/driver/driver_clk.o
 .rela.text.patch_init
                0x0000000010013a00        0x0 client_output/obj/driver/driver_clk.o
 .rela.com_sleep.lp.sleep
                0x0000000010013a00        0x0 client_output/obj/driver/driver_clk.o
 .rela.text.rc2m_clk_nhz_cal
                0x0000000010013a00        0x0 client_output/obj/driver/driver_clk.o
 .rela.text.sys_clk
                0x0000000010013a00        0x0 client_output/obj/driver/driver_clk.o
 .rela.com_text.stack.api
                0x0000000010013a00        0x0 client_output/obj/driver/driver_clk.o
 .rela.com_text.stack.run_loop
                0x0000000010013a00        0x0 client_output/obj/driver/driver_clk.o
 .rela.text     0x0000000010013a00        0x0 client_output/obj/driver/driver_clk.o
 .rela.text.stack.send.txpkt
                0x0000000010013a00        0x0 client_output/obj/driver/driver_clk.o
 .rela.text.txpkt.flush
                0x0000000010013a00        0x0 client_output/obj/driver/driver_clk.o
 .rela.text.stack.hci_init
                0x0000000010013a00        0x0 client_output/obj/driver/driver_clk.o
 .rela.text.stack.setup
                0x0000000010013a00        0x0 client_output/obj/driver/driver_clk.o
 .rela.text.stack.hci
                0x0000000010013a00        0x0 client_output/obj/driver/driver_clk.o
 .rela.text.stack.hci.conn
                0x0000000010013a00        0x0 client_output/obj/driver/driver_clk.o
 .rela.text.ble.hci
                0x0000000010013a00        0x0 client_output/obj/driver/driver_clk.o
 .rela.text.stack.hci_send
                0x0000000010013a00        0x0 client_output/obj/driver/driver_clk.o
 .rela.text.stack.hci.run
                0x0000000010013a00        0x0 client_output/obj/driver/driver_clk.o
 .rela.text.stack.send.hci
                0x0000000010013a00        0x0 client_output/obj/driver/driver_clk.o
 .rela.com_text.stack.hci_recv
                0x0000000010013a00        0x0 client_output/obj/driver/driver_clk.o
 .rela.text.sm.aes
                0x0000000010013a00        0x0 client_output/obj/driver/driver_clk.o
 .rela.text.sm.rau_run
                0x0000000010013a00        0x0 client_output/obj/driver/driver_clk.o
 .rela.text.gap.rau.update
                0x0000000010013a00        0x0 client_output/obj/driver/driver_clk.o
 .rela.text.stack.ble.sm
                0x0000000010013a00        0x0 client_output/obj/driver/driver_clk.o
 .rela.text.sm.request
                0x0000000010013a00        0x0 client_output/obj/driver/driver_clk.o
 .rela.text.sm.pairing
                0x0000000010013a00        0x0 client_output/obj/driver/driver_clk.o
 .rela.text.gap.rau.mode
                0x0000000010013a00        0x0 client_output/obj/driver/driver_clk.o
 .rela.text.sm.run
                0x0000000010013a00        0x0 client_output/obj/driver/driver_clk.o
 .rela.text.sm.pdu
                0x0000000010013a00        0x0 client_output/obj/driver/driver_clk.o
 .rela.text.sm.event
                0x0000000010013a00        0x0 client_output/obj/driver/driver_clk.o
 .rela.text.gap.rau_set
                0x0000000010013a00        0x0 client_output/obj/driver/driver_clk.o
 .rela.text.sm.delete_bonding
                0x0000000010013a00        0x0 client_output/obj/driver/driver_clk.o
 .rela.text.le.db.get
                0x0000000010013a00        0x0 client_output/obj/driver/driver_clk.o
 .rela.text.le.db.set
                0x0000000010013a00        0x0 client_output/obj/driver/driver_clk.o
 .rela.text.le.db.read
                0x0000000010013a00        0x0 client_output/obj/driver/driver_clk.o
 .rela.text.le.db.init
                0x0000000010013a00        0x0 client_output/obj/driver/driver_clk.o
 .rela.text.le.db.remove
                0x0000000010013a00        0x0 client_output/obj/driver/driver_clk.o
 .rela.text.le.db.remove_all
                0x0000000010013a00        0x0 client_output/obj/driver/driver_clk.o
 .rela.text.le.db.add
                0x0000000010013a00        0x0 client_output/obj/driver/driver_clk.o
 .rela.text.le.db
                0x0000000010013a00        0x0 client_output/obj/driver/driver_clk.o
 .rela.text.le.db.dump
                0x0000000010013a00        0x0 client_output/obj/driver/driver_clk.o
 .rela.text.stack.send.ntf_do
                0x0000000010013a00        0x0 client_output/obj/driver/driver_clk.o
 .rela.text.stack.send.ntf
                0x0000000010013a00        0x0 client_output/obj/driver/driver_clk.o
 .rela.text.ble.indicate
                0x0000000010013a00        0x0 client_output/obj/driver/driver_clk.o
 .rela.text.stack.send.server
                0x0000000010013a00        0x0 client_output/obj/driver/driver_clk.o
 .rela.text.client.request_can_send
                0x0000000010013a00        0x0 client_output/obj/driver/driver_clk.o
 .rela.text.client.write_req
                0x0000000010013a00        0x0 client_output/obj/driver/driver_clk.o
 .rela.text.sm.client
                0x0000000010013a00        0x0 client_output/obj/driver/driver_clk.o
 .rela.text.stack.send.client
                0x0000000010013a00        0x0 client_output/obj/driver/driver_clk.o
 .rela.text.sm.server
                0x0000000010013a00        0x0 client_output/obj/driver/driver_clk.o
 .rela.text.server.init
                0x0000000010013a00        0x0 client_output/obj/driver/driver_clk.o
 .rela.text.server.packet_handler
                0x0000000010013a00        0x0 client_output/obj/driver/driver_clk.o
 .rela.text.att.event_handler
                0x0000000010013a00        0x0 client_output/obj/driver/driver_clk.o
 .rela.text.server.indicate
                0x0000000010013a00        0x0 client_output/obj/driver/driver_clk.o
 .rela.text.att.register_client
                0x0000000010013a00        0x0 client_output/obj/driver/driver_clk.o
 .rela.text.att.register_server
                0x0000000010013a00        0x0 client_output/obj/driver/driver_clk.o
 .rela.text.att.dispatch_server
                0x0000000010013a00        0x0 client_output/obj/driver/driver_clk.o
 .rela.text.att.dispatch_client
                0x0000000010013a00        0x0 client_output/obj/driver/driver_clk.o
 .rela.text.stack.send.dispatch_server
                0x0000000010013a00        0x0 client_output/obj/driver/driver_clk.o
 .rela.text.att.mtu_request
                0x0000000010013a00        0x0 client_output/obj/driver/driver_clk.o
 .rela.text.stack.h3c
                0x0000000010013a00        0x0 client_output/obj/driver/driver_clk.o
 .rela.com_text.stack.h3c
                0x0000000010013a00        0x0 client_output/obj/driver/driver_clk.o
 .rela.com_text.stack.util
                0x0000000010013a00        0x0 client_output/obj/driver/driver_clk.o
 .rela.text.btstack.hci.h3c.init
                0x0000000010013a00        0x0 client_output/obj/driver/driver_clk.o
 .rela.rodata   0x0000000010013a00        0x0 client_output/obj/driver/driver_clk.o
 .rela.com_text.stack.uart_isr
                0x0000000010013a00        0x0 client_output/obj/driver/driver_clk.o
 .rela.text.stack.hal
                0x0000000010013a00        0x0 client_output/obj/driver/driver_clk.o
 .rela.text.stack.sleep
                0x0000000010013a00        0x0 client_output/obj/driver/driver_clk.o
 .rela.text.stack.api
                0x0000000010013a00        0x0 client_output/obj/driver/driver_clk.o
 .rela.com_text.ret.bb.sleep
                0x0000000010013a00        0x0 client_output/obj/driver/driver_clk.o
 .rela.rodata.stack.api
                0x0000000010013a00        0x0 client_output/obj/driver/driver_clk.o
 .rela.text.ble.api.conn.update
                0x0000000010013a00        0x0 client_output/obj/driver/driver_clk.o
 .rela.text.ble.api.max_mtu
                0x0000000010013a00        0x0 client_output/obj/driver/driver_clk.o
 .rela.text.ble.api.conn_do
                0x0000000010013a00        0x0 client_output/obj/driver/driver_clk.o
 .rela.text.ble.api.regist
                0x0000000010013a00        0x0 client_output/obj/driver/driver_clk.o
 .rela.text.ble.set_static_addr
                0x0000000010013a00        0x0 client_output/obj/driver/driver_clk.o
 .rela.text.ble.single_mode
                0x0000000010013a00        0x0 client_output/obj/driver/driver_clk.o
 .rela.text.rf.tx_tone
                0x0000000010013a00        0x0 client_output/obj/driver/driver_clk.o
 .rela.text.le.mgr
                0x0000000010013a00        0x0 client_output/obj/driver/driver_clk.o
 .rela.rodata.le.mgr_cntl.tbl
                0x0000000010013a00        0x0 client_output/obj/driver/driver_clk.o
 .rela.text.le.ll_scan
                0x0000000010013a00        0x0 client_output/obj/driver/driver_clk.o
 .rela.text.le.ll_cntl
                0x0000000010013a00        0x0 client_output/obj/driver/driver_clk.o
 .rela.text.le.ll_cntl.start
                0x0000000010013a00        0x0 client_output/obj/driver/driver_clk.o
 .rela.com_text.ble.isr.con.end
                0x0000000010013a00        0x0 client_output/obj/driver/driver_clk.o
 .rela.com_text.bb.buf
                0x0000000010013a00        0x0 client_output/obj/driver/driver_clk.o
 .rela.text.le.stack
                0x0000000010013a00        0x0 client_output/obj/driver/driver_clk.o
 .rela.com_text.bb.isr
                0x0000000010013a00        0x0 client_output/obj/driver/driver_clk.o
 .rela.com_sleep.bb
                0x0000000010013a00        0x0 client_output/obj/driver/driver_clk.o
 .rela.text.bb.aes
                0x0000000010013a00        0x0 client_output/obj/driver/driver_clk.o
 .rela.text.stack.ble.setup
                0x0000000010013a00        0x0 client_output/obj/driver/driver_clk.o
 .rela.com_sleep.rfphy
                0x0000000010013a00        0x0 client_output/obj/driver/driver_clk.o
 .rela.text.rfphy.other
                0x0000000010013a00        0x0 client_output/obj/driver/driver_clk.o
 .rela.com_sleep.rfphy.init
                0x0000000010013a00        0x0 client_output/obj/driver/driver_clk.o
 .rela.com_text.ble.isr
                0x0000000010013a00        0x0 client_output/obj/driver/driver_clk.o
 .rela.com_rodata.bb.tbl
                0x0000000010013a00        0x0 client_output/obj/driver/driver_clk.o
 .rela.rodata.le.ll_cntl.tbl
                0x0000000010013a00        0x0 client_output/obj/driver/driver_clk.o
 .rela.text.le.ll_cntl.pdu
                0x0000000010013a00        0x0 client_output/obj/driver/driver_clk.o
 .rela.text.le.ll_cntl.send
                0x0000000010013a00        0x0 client_output/obj/driver/driver_clk.o
 .rela.text.ble.var.init
                0x0000000010013a00        0x0 client_output/obj/driver/driver_clk.o
 .rela.text.bb.vs.fcc
                0x0000000010013a00        0x0 client_output/obj/driver/driver_clk.o
                0x0000000010013a00        0x4 LONG 0x0
                0x0000000010013c00                . = ALIGN (0x200)
 *fill*         0x0000000010013a04      0x1fc 

.stack          0x0000000000010800      0x400
                0x0000000000010800                __irq_stack_start = .
                0x0000000000000400                . = 0x400
 *fill*         0x0000000000010800      0x400 
                0x0000000000010c00                __irq_stack = .
                0x0000000000000400                __irq_stack_size = (__irq_stack - __irq_stack_start)
                0x0000000000012c00                __bank_size = SIZEOF (.flash)
                0x0000000010000200                __comm_lma = LOADADDR (.comm)
                0x0000000000000c00                __comm_size = SIZEOF (.comm)
                0x0000000010000e00                __pdn_comm_lma = LOADADDR (.pdn_comm)
                0x0000000000000200                __pdn_comm_size = SIZEOF (.pdn_comm)
LOAD ../../libs/cpu/libplatform.a
LOAD ../../libs/cpu/libm.a
LOAD ../../libs/cpu/libc.a
LOAD ../../libs/cpu/libgcc.a
LOAD ../../libs/ble/libbtstack_central.a
OUTPUT(client_output/bin/app.rv32 elf32-littleriscv)

.comment        0x0000000000000000       0x23
 .comment       0x0000000000000000       0x11 client_output/obj/driver/driver_clk.o
                                         0x12 (size before relaxing)
 .comment       0x0000000000000011       0x12 client_output/obj/driver/driver_gpio.o
 .comment       0x0000000000000011       0x12 client_output/obj/driver/driver_lowpwr.o
 .comment       0x0000000000000011       0x12 client_output/obj/driver/driver_saradc.o
 .comment       0x0000000000000011       0x12 client_output/obj/driver/driver_uart.o
 .comment       0x0000000000000011       0x12 client_output/obj/app/func.o
 .comment       0x0000000000000011       0x12 client_output/obj/app/func_bt.o
 .comment       0x0000000000000011       0x12 client_output/obj/app/func_idle.o
 .comment       0x0000000000000011       0x12 client_output/obj/app/func_lowpwr.o
 .comment       0x0000000000000011       0x12 client_output/obj/ble/ble_client.o
 .comment       0x0000000000000011       0x12 client_output/obj/ble/ble_init.o
 .comment       0x0000000000000011       0x12 client_output/obj/ble/ble_proc.o
 .comment       0x0000000000000011       0x12 client_output/obj/bsp/bsp_param.o
 .comment       0x0000000000000011       0x12 client_output/obj/bsp/bsp_sys.o
 .comment       0x0000000000000011       0x12 client_output/obj/bsp/bsp_uart_debug.o
 .comment       0x0000000000000011       0x12 client_output/obj/prod_test/prod_test.o
 .comment       0x0000000000000011       0x12 client_output/obj/main.o
 .comment       0x0000000000000011       0x12 client_output/obj/strong_ble.o
 .comment       0x0000000000000011       0x12 client_output/obj/strong_symbol.o
 .comment       0x0000000000000011       0x12 ../../libs/cpu/libplatform.a(cm.o)
                                         0x13 (size before relaxing)
 .comment       0x0000000000000023       0x13 ../../libs/cpu/libplatform.a(os_flash.o)
 .comment       0x0000000000000023       0x13 ../../libs/cpu/libplatform.a(xcfg.o)
 .comment       0x0000000000000023       0x13 ../../libs/cpu/libplatform.a(main.o)
 .comment       0x0000000000000023       0x13 ../../libs/cpu/libplatform.a(interrupt.o)
 .comment       0x0000000000000023       0x13 ../../libs/cpu/libplatform.a(startup.o)
 .comment       0x0000000000000023       0x13 ../../libs/cpu/libplatform.a(sys_hook.o)
 .comment       0x0000000000000023       0x13 ../../libs/cpu/libplatform.a(pll.o)
 .comment       0x0000000000000023       0x13 ../../libs/cpu/libplatform.a(pmu.o)
 .comment       0x0000000000000023       0x13 ../../libs/cpu/libplatform.a(spiflash.o)
 .comment       0x0000000000000023       0x13 ../../libs/cpu/libplatform.a(debug.o)
 .comment       0x0000000000000023       0x13 ../../libs/cpu/libplatform.a(fot_pack.o)
 .comment       0x0000000000000023       0x13 ../../libs/cpu/libplatform.a(lock.o)
 .comment       0x0000000000000023       0x13 ../../libs/cpu/libplatform.a(patch.o)
 .comment       0x0000000000000023       0x13 ../../libs/cpu/libplatform.a(sys.o)
 .comment       0x0000000000000023       0x13 ../../libs/cpu/libplatform.a(sys_clk.o)
 .comment       0x0000000000000023       0x13 ../../libs/cpu/libplatform.a(voltage_trim.o)
 .comment       0x0000000000000023       0x13 ../../libs/cpu/libplatform.a(weak_symbol.o)
 .comment       0x0000000000000023       0x13 ../../libs/cpu/libplatform.a(bt.o)
 .comment       0x0000000000000023       0x13 ../../libs/cpu/libplatform.a(freq_det.o)
 .comment       0x0000000000000023       0x13 ../../libs/ble/libbtstack_central.a(txpkt.o)
 .comment       0x0000000000000023       0x13 ../../libs/ble/libbtstack_central.a(hci.o)
 .comment       0x0000000000000023       0x13 ../../libs/ble/libbtstack_central.a(btstack_util.o)
 .comment       0x0000000000000023       0x13 ../../libs/ble/libbtstack_central.a(sm.o)
 .comment       0x0000000000000023       0x13 ../../libs/ble/libbtstack_central.a(le_device_db_memory.o)
 .comment       0x0000000000000023       0x13 ../../libs/ble/libbtstack_central.a(gatt_server.o)
 .comment       0x0000000000000023       0x13 ../../libs/ble/libbtstack_central.a(gatt_client.o)
 .comment       0x0000000000000023       0x13 ../../libs/ble/libbtstack_central.a(att_server.o)
 .comment       0x0000000000000023       0x13 ../../libs/ble/libbtstack_central.a(att_dispatch.o)
 .comment       0x0000000000000023       0x13 ../../libs/ble/libbtstack_central.a(att_db.o)
 .comment       0x0000000000000023       0x13 ../../libs/ble/libbtstack_central.a(ad_parser.o)
 .comment       0x0000000000000023       0x13 ../../libs/ble/libbtstack_central.a(hci_transport_h3_controller.o)
 .comment       0x0000000000000023       0x13 ../../libs/ble/libbtstack_central.a(hci_transport_dummy.o)
 .comment       0x0000000000000023       0x13 ../../libs/ble/libbtstack_central.a(btstack_hal.o)
 .comment       0x0000000000000023       0x13 ../../libs/ble/libbtstack_central.a(btstack_api.o)
 .comment       0x0000000000000023       0x13 ../../libs/ble/libbtstack_central.a(ble_api.o)
 .comment       0x0000000000000023       0x13 ../../libs/ble/libbtstack_central.a(txpkt.o)
 .comment       0x0000000000000023       0x13 ../../libs/ble/libbtstack_central.a(platform.o)
 .comment       0x0000000000000023       0x13 ../../libs/ble/libbtstack_central.a(rf.o)
 .comment       0x0000000000000023       0x13 ../../libs/ble/libbtstack_central.a(hct_proc.o)
 .comment       0x0000000000000023       0x13 ../../libs/ble/libbtstack_central.a(hct.o)
 .comment       0x0000000000000023       0x13 ../../libs/ble/libbtstack_central.a(mgr_hci.o)
 .comment       0x0000000000000023       0x13 ../../libs/ble/libbtstack_central.a(mgr.o)
 .comment       0x0000000000000023       0x13 ../../libs/ble/libbtstack_central.a(ll_scan.o)
 .comment       0x0000000000000023       0x13 ../../libs/ble/libbtstack_central.a(ll.o)
 .comment       0x0000000000000023       0x13 ../../libs/ble/libbtstack_central.a(ble_hal.o)
 .comment       0x0000000000000023       0x13 ../../libs/ble/libbtstack_central.a(ble_con.o)
 .comment       0x0000000000000023       0x13 ../../libs/ble/libbtstack_central.a(ble_buf.o)
 .comment       0x0000000000000023       0x13 ../../libs/ble/libbtstack_central.a(bb_utils.o)
 .comment       0x0000000000000023       0x13 ../../libs/ble/libbtstack_central.a(bb_int.o)
 .comment       0x0000000000000023       0x13 ../../libs/ble/libbtstack_central.a(bb.o)
 .comment       0x0000000000000023       0x13 ../../libs/ble/libbtstack_central.a(extern_ble.o)
 .comment       0x0000000000000023       0x13 ../../libs/ble/libbtstack_central.a(l2cap.o)
 .comment       0x0000000000000023       0x13 ../../libs/ble/libbtstack_central.a(hci_dump.o)
 .comment       0x0000000000000023       0x13 ../../libs/ble/libbtstack_central.a(hci_cmd.o)
 .comment       0x0000000000000023       0x13 ../../libs/ble/libbtstack_central.a(btstack_run_loop.o)
 .comment       0x0000000000000023       0x13 ../../libs/ble/libbtstack_central.a(btstack_memory.o)
 .comment       0x0000000000000023       0x13 ../../libs/ble/libbtstack_central.a(btstack_main.o)
 .comment       0x0000000000000023       0x13 ../../libs/ble/libbtstack_central.a(nanos.o)
 .comment       0x0000000000000023       0x13 ../../libs/ble/libbtstack_central.a(bb_sche.o)
 .comment       0x0000000000000023       0x13 ../../libs/ble/libbtstack_central.a(patch.o)
 .comment       0x0000000000000023       0x13 ../../libs/ble/libbtstack_central.a(bb_dbg.o)
 .comment       0x0000000000000023       0x13 ../../libs/ble/libbtstack_central.a(bb_clk.o)
 .comment       0x0000000000000023       0x13 ../../libs/ble/libbtstack_central.a(aes.o)
 .comment       0x0000000000000023       0x13 ../../libs/ble/libbtstack_central.a(extern.o)
 .comment       0x0000000000000023       0x13 ../../libs/ble/libbtstack_central.a(vs.o)
 .comment       0x0000000000000023       0x13 ../../libs/ble/libbtstack_central.a(rf_mate.o)
 .comment       0x0000000000000023       0x13 ../../libs/ble/libbtstack_central.a(scan_hook.o)
 .comment       0x0000000000000023       0x13 ../../libs/ble/libbtstack_central.a(ble_hook.o)
 .comment       0x0000000000000023       0x13 ../../libs/ble/libbtstack_central.a(hct_msg.o)
 .comment       0x0000000000000023       0x13 ../../libs/ble/libbtstack_central.a(mgr_test.o)
 .comment       0x0000000000000023       0x13 ../../libs/ble/libbtstack_central.a(mgr_proc.o)
 .comment       0x0000000000000023       0x13 ../../libs/ble/libbtstack_central.a(mgr_init.o)
 .comment       0x0000000000000023       0x13 ../../libs/ble/libbtstack_central.a(ll_proc.o)
 .comment       0x0000000000000023       0x13 ../../libs/ble/libbtstack_central.a(ll_phy_upd.o)
 .comment       0x0000000000000023       0x13 ../../libs/ble/libbtstack_central.a(ll_length.o)
 .comment       0x0000000000000023       0x13 ../../libs/ble/libbtstack_central.a(ll_feature.o)
 .comment       0x0000000000000023       0x13 ../../libs/ble/libbtstack_central.a(ll_encrypt.o)
 .comment       0x0000000000000023       0x13 ../../libs/ble/libbtstack_central.a(ll_disconnect.o)
 .comment       0x0000000000000023       0x13 ../../libs/ble/libbtstack_central.a(ll_con_upd.o)
 .comment       0x0000000000000023       0x13 ../../libs/ble/libbtstack_central.a(ll_cntl.o)
 .comment       0x0000000000000023       0x13 ../../libs/ble/libbtstack_central.a(ll_clk_acc.o)
 .comment       0x0000000000000023       0x13 ../../libs/ble/libbtstack_central.a(ll_chmap_upd.o)
 .comment       0x0000000000000023       0x13 ../../libs/ble/libbtstack_central.a(ble_test.o)
 .comment       0x0000000000000023       0x13 ../../libs/ble/libbtstack_central.a(ble_scan.o)
 .comment       0x0000000000000023       0x13 ../../libs/ble/libbtstack_central.a(ble_init.o)
 .comment       0x0000000000000023       0x13 ../../libs/ble/libbtstack_central.a(ble.o)
 .comment       0x0000000000000023       0x13 ../../libs/ble/libbtstack_central.a(bb_alarm.o)
 .comment       0x0000000000000023       0x13 ../../libs/ble/libbtstack_central.a(l2cap_signaling.o)
 .comment       0x0000000000000023       0x13 ../../libs/ble/libbtstack_central.a(btstack_memory_pool.o)
 .comment       0x0000000000000023       0x13 ../../libs/ble/libbtstack_central.a(vs_proc.o)
 .comment       0x0000000000000023       0x13 ../../libs/ble/libbtstack_central.a(vs_fcc.o)
 .comment       0x0000000000000023       0x13 ../../libs/ble/libbtstack_central.a(ll_version.o)
 .comment       0x0000000000000023       0x13 ../../libs/ble/libbtstack_central.a(ble_sync.o)

.riscv.attributes
                0x0000000000000000     0x12f0
 .riscv.attributes
                0x0000000000000000       0x32 ../../libs/cpu/libplatform.a(cm.o)
 .riscv.attributes
                0x0000000000000032       0x32 ../../libs/cpu/libplatform.a(os_flash.o)
 .riscv.attributes
                0x0000000000000064       0x32 ../../libs/cpu/libplatform.a(xcfg.o)
 .riscv.attributes
                0x0000000000000096       0x32 ../../libs/cpu/libplatform.a(main.o)
 .riscv.attributes
                0x00000000000000c8       0x32 ../../libs/cpu/libplatform.a(interrupt.o)
 .riscv.attributes
                0x00000000000000fa       0x32 ../../libs/cpu/libplatform.a(startup.o)
 .riscv.attributes
                0x000000000000012c       0x32 ../../libs/cpu/libplatform.a(sys_hook.o)
 .riscv.attributes
                0x000000000000015e       0x32 ../../libs/cpu/libplatform.a(pll.o)
 .riscv.attributes
                0x0000000000000190       0x32 ../../libs/cpu/libplatform.a(pmu.o)
 .riscv.attributes
                0x00000000000001c2       0x34 ../../libs/cpu/libplatform.a(reset.o)
 .riscv.attributes
                0x00000000000001f6       0x32 ../../libs/cpu/libplatform.a(spiflash.o)
 .riscv.attributes
                0x0000000000000228       0x32 ../../libs/cpu/libplatform.a(debug.o)
 .riscv.attributes
                0x000000000000025a       0x32 ../../libs/cpu/libplatform.a(fot_pack.o)
 .riscv.attributes
                0x000000000000028c       0x32 ../../libs/cpu/libplatform.a(lock.o)
 .riscv.attributes
                0x00000000000002be       0x32 ../../libs/cpu/libplatform.a(patch.o)
 .riscv.attributes
                0x00000000000002f0       0x30 ../../libs/cpu/libplatform.a(s_sys.o)
 .riscv.attributes
                0x0000000000000320       0x32 ../../libs/cpu/libplatform.a(sys.o)
 .riscv.attributes
                0x0000000000000352       0x32 ../../libs/cpu/libplatform.a(sys_clk.o)
 .riscv.attributes
                0x0000000000000384       0x32 ../../libs/cpu/libplatform.a(voltage_trim.o)
 .riscv.attributes
                0x00000000000003b6       0x32 ../../libs/cpu/libplatform.a(weak_symbol.o)
 .riscv.attributes
                0x00000000000003e8       0x32 ../../libs/cpu/libplatform.a(bt.o)
 .riscv.attributes
                0x000000000000041a       0x32 ../../libs/cpu/libplatform.a(freq_det.o)
 .riscv.attributes
                0x000000000000044c       0x32 ../../libs/ble/libbtstack_central.a(txpkt.o)
 .riscv.attributes
                0x000000000000047e       0x32 ../../libs/ble/libbtstack_central.a(hci.o)
 .riscv.attributes
                0x00000000000004b0       0x32 ../../libs/ble/libbtstack_central.a(btstack_util.o)
 .riscv.attributes
                0x00000000000004e2       0x32 ../../libs/ble/libbtstack_central.a(sm.o)
 .riscv.attributes
                0x0000000000000514       0x32 ../../libs/ble/libbtstack_central.a(le_device_db_memory.o)
 .riscv.attributes
                0x0000000000000546       0x32 ../../libs/ble/libbtstack_central.a(gatt_server.o)
 .riscv.attributes
                0x0000000000000578       0x32 ../../libs/ble/libbtstack_central.a(gatt_client.o)
 .riscv.attributes
                0x00000000000005aa       0x32 ../../libs/ble/libbtstack_central.a(att_server.o)
 .riscv.attributes
                0x00000000000005dc       0x32 ../../libs/ble/libbtstack_central.a(att_dispatch.o)
 .riscv.attributes
                0x000000000000060e       0x32 ../../libs/ble/libbtstack_central.a(att_db.o)
 .riscv.attributes
                0x0000000000000640       0x32 ../../libs/ble/libbtstack_central.a(ad_parser.o)
 .riscv.attributes
                0x0000000000000672       0x32 ../../libs/ble/libbtstack_central.a(hci_transport_h3_controller.o)
 .riscv.attributes
                0x00000000000006a4       0x32 ../../libs/ble/libbtstack_central.a(hci_transport_dummy.o)
 .riscv.attributes
                0x00000000000006d6       0x32 ../../libs/ble/libbtstack_central.a(btstack_hal.o)
 .riscv.attributes
                0x0000000000000708       0x32 ../../libs/ble/libbtstack_central.a(btstack_api.o)
 .riscv.attributes
                0x000000000000073a       0x32 ../../libs/ble/libbtstack_central.a(ble_api.o)
 .riscv.attributes
                0x000000000000076c       0x32 ../../libs/ble/libbtstack_central.a(txpkt.o)
 .riscv.attributes
                0x000000000000079e       0x32 ../../libs/ble/libbtstack_central.a(platform.o)
 .riscv.attributes
                0x00000000000007d0       0x32 ../../libs/ble/libbtstack_central.a(rf.o)
 .riscv.attributes
                0x0000000000000802       0x32 ../../libs/ble/libbtstack_central.a(hct_proc.o)
 .riscv.attributes
                0x0000000000000834       0x32 ../../libs/ble/libbtstack_central.a(hct.o)
 .riscv.attributes
                0x0000000000000866       0x32 ../../libs/ble/libbtstack_central.a(mgr_hci.o)
 .riscv.attributes
                0x0000000000000898       0x32 ../../libs/ble/libbtstack_central.a(mgr.o)
 .riscv.attributes
                0x00000000000008ca       0x32 ../../libs/ble/libbtstack_central.a(ll_scan.o)
 .riscv.attributes
                0x00000000000008fc       0x32 ../../libs/ble/libbtstack_central.a(ll.o)
 .riscv.attributes
                0x000000000000092e       0x32 ../../libs/ble/libbtstack_central.a(ble_hal.o)
 .riscv.attributes
                0x0000000000000960       0x32 ../../libs/ble/libbtstack_central.a(ble_con.o)
 .riscv.attributes
                0x0000000000000992       0x32 ../../libs/ble/libbtstack_central.a(ble_buf.o)
 .riscv.attributes
                0x00000000000009c4       0x32 ../../libs/ble/libbtstack_central.a(bb_utils.o)
 .riscv.attributes
                0x00000000000009f6       0x32 ../../libs/ble/libbtstack_central.a(bb_int.o)
 .riscv.attributes
                0x0000000000000a28       0x32 ../../libs/ble/libbtstack_central.a(bb.o)
 .riscv.attributes
                0x0000000000000a5a       0x32 ../../libs/ble/libbtstack_central.a(extern_ble.o)
 .riscv.attributes
                0x0000000000000a8c       0x32 ../../libs/ble/libbtstack_central.a(l2cap.o)
 .riscv.attributes
                0x0000000000000abe       0x32 ../../libs/ble/libbtstack_central.a(hci_dump.o)
 .riscv.attributes
                0x0000000000000af0       0x32 ../../libs/ble/libbtstack_central.a(hci_cmd.o)
 .riscv.attributes
                0x0000000000000b22       0x32 ../../libs/ble/libbtstack_central.a(btstack_run_loop.o)
 .riscv.attributes
                0x0000000000000b54       0x32 ../../libs/ble/libbtstack_central.a(btstack_memory.o)
 .riscv.attributes
                0x0000000000000b86       0x32 ../../libs/ble/libbtstack_central.a(btstack_main.o)
 .riscv.attributes
                0x0000000000000bb8       0x32 ../../libs/ble/libbtstack_central.a(nanos.o)
 .riscv.attributes
                0x0000000000000bea       0x32 ../../libs/ble/libbtstack_central.a(bb_sche.o)
 .riscv.attributes
                0x0000000000000c1c       0x32 ../../libs/ble/libbtstack_central.a(patch.o)
 .riscv.attributes
                0x0000000000000c4e       0x32 ../../libs/ble/libbtstack_central.a(bb_dbg.o)
 .riscv.attributes
                0x0000000000000c80       0x32 ../../libs/ble/libbtstack_central.a(bb_clk.o)
 .riscv.attributes
                0x0000000000000cb2       0x32 ../../libs/ble/libbtstack_central.a(aes.o)
 .riscv.attributes
                0x0000000000000ce4       0x32 ../../libs/ble/libbtstack_central.a(extern.o)
 .riscv.attributes
                0x0000000000000d16       0x32 ../../libs/ble/libbtstack_central.a(vs.o)
 .riscv.attributes
                0x0000000000000d48       0x32 ../../libs/ble/libbtstack_central.a(rf_mate.o)
 .riscv.attributes
                0x0000000000000d7a       0x32 ../../libs/ble/libbtstack_central.a(scan_hook.o)
 .riscv.attributes
                0x0000000000000dac       0x32 ../../libs/ble/libbtstack_central.a(ble_hook.o)
 .riscv.attributes
                0x0000000000000dde       0x32 ../../libs/ble/libbtstack_central.a(hct_msg.o)
 .riscv.attributes
                0x0000000000000e10       0x32 ../../libs/ble/libbtstack_central.a(mgr_test.o)
 .riscv.attributes
                0x0000000000000e42       0x32 ../../libs/ble/libbtstack_central.a(mgr_proc.o)
 .riscv.attributes
                0x0000000000000e74       0x32 ../../libs/ble/libbtstack_central.a(mgr_init.o)
 .riscv.attributes
                0x0000000000000ea6       0x32 ../../libs/ble/libbtstack_central.a(ll_proc.o)
 .riscv.attributes
                0x0000000000000ed8       0x32 ../../libs/ble/libbtstack_central.a(ll_phy_upd.o)
 .riscv.attributes
                0x0000000000000f0a       0x32 ../../libs/ble/libbtstack_central.a(ll_length.o)
 .riscv.attributes
                0x0000000000000f3c       0x32 ../../libs/ble/libbtstack_central.a(ll_feature.o)
 .riscv.attributes
                0x0000000000000f6e       0x32 ../../libs/ble/libbtstack_central.a(ll_encrypt.o)
 .riscv.attributes
                0x0000000000000fa0       0x32 ../../libs/ble/libbtstack_central.a(ll_disconnect.o)
 .riscv.attributes
                0x0000000000000fd2       0x32 ../../libs/ble/libbtstack_central.a(ll_con_upd.o)
 .riscv.attributes
                0x0000000000001004       0x32 ../../libs/ble/libbtstack_central.a(ll_cntl.o)
 .riscv.attributes
                0x0000000000001036       0x32 ../../libs/ble/libbtstack_central.a(ll_clk_acc.o)
 .riscv.attributes
                0x0000000000001068       0x32 ../../libs/ble/libbtstack_central.a(ll_chmap_upd.o)
 .riscv.attributes
                0x000000000000109a       0x32 ../../libs/ble/libbtstack_central.a(ble_test.o)
 .riscv.attributes
                0x00000000000010cc       0x32 ../../libs/ble/libbtstack_central.a(ble_scan.o)
 .riscv.attributes
                0x00000000000010fe       0x32 ../../libs/ble/libbtstack_central.a(ble_init.o)
 .riscv.attributes
                0x0000000000001130       0x32 ../../libs/ble/libbtstack_central.a(ble.o)
 .riscv.attributes
                0x0000000000001162       0x32 ../../libs/ble/libbtstack_central.a(bb_alarm.o)
 .riscv.attributes
                0x0000000000001194       0x32 ../../libs/ble/libbtstack_central.a(l2cap_signaling.o)
 .riscv.attributes
                0x00000000000011c6       0x32 ../../libs/ble/libbtstack_central.a(btstack_memory_pool.o)
 .riscv.attributes
                0x00000000000011f8       0x30 ../../libs/ble/libbtstack_central.a(patch_asm.o)
 .riscv.attributes
                0x0000000000001228       0x32 ../../libs/ble/libbtstack_central.a(vs_proc.o)
 .riscv.attributes
                0x000000000000125a       0x32 ../../libs/ble/libbtstack_central.a(vs_fcc.o)
 .riscv.attributes
                0x000000000000128c       0x32 ../../libs/ble/libbtstack_central.a(ll_version.o)
 .riscv.attributes
                0x00000000000012be       0x32 ../../libs/ble/libbtstack_central.a(ble_sync.o)
