Archive member included to satisfy reference by file (symbol)

..\..\libs\cpu\libplatform.a(audio_mic.o)
                              Output\obj\driver\driver_saradc.o (audio_mic_analog_init)
..\..\libs\cpu\libplatform.a(audio_mic_trim.o)
                              ..\..\libs\cpu\libplatform.a(audio_mic.o) (audio_mic_trim_sta_set)
..\..\libs\cpu\libplatform.a(cm.o)
                              Output\obj\project\ble_peripheral\bsp\bsp_param.o (cm_sync)
..\..\libs\cpu\libplatform.a(os_flash.o)
                              ..\..\libs\cpu\libplatform.a(cm.o) (os_spiflash_program)
..\..\libs\cpu\libplatform.a(xcfg.o)
                              Output\obj\project\ble_peripheral\bsp\bsp_sys.o (xcfg_init)
..\..\libs\cpu\libplatform.a(main.o)
                              Output\obj\project\ble_peripheral\ble\ble_client.o (delay_ms)
..\..\libs\cpu\libplatform.a(interrupt.o)
                              Output\obj\driver\driver_gpio.o (sys_irq_init)
..\..\libs\cpu\libplatform.a(startup.o)
                              Output\obj\project\ble_peripheral\strong_symbol.o (thread_btstack_create)
..\..\libs\cpu\libplatform.a(sys_hook.o)
                              ..\..\libs\cpu\libplatform.a(startup.o) (sys_hook_init)
..\..\libs\cpu\libplatform.a(thread_driver.o)
                              ..\..\libs\cpu\libplatform.a(startup.o) (thread_driver_entry)
..\..\libs\cpu\libplatform.a(pll.o)
                              ..\..\libs\cpu\libplatform.a(main.o) (pll0_disable)
..\..\libs\cpu\libplatform.a(pmu.o)
                              Output\obj\driver\driver_lowpwr.o (pmu_get_vddcore)
..\..\libs\cpu\libplatform.a(reset.o)
                              (_start)
..\..\libs\cpu\libplatform.a(context.o)
                              Output\obj\driver\driver_lowpwr.o (lp_sleep)
..\..\libs\cpu\libplatform.a(spiflash.o)
                              ..\..\libs\cpu\libplatform.a(reset.o) (spiflash_erase_patch_do)
..\..\libs\cpu\libplatform.a(debug.o)
                              ..\..\libs\cpu\libplatform.a(reset.o) (exception_isr)
..\..\libs\cpu\libplatform.a(fot_pack.o)
                              ..\..\libs\cpu\libplatform.a(os_flash.o) (ota_pack_is_update_success)
..\..\libs\cpu\libplatform.a(lock.o)
                              ..\..\libs\cpu\libplatform.a(main.o) (lock_init)
..\..\libs\cpu\libplatform.a(patch.o)
                              ..\..\libs\cpu\libplatform.a(main.o) (patch_init)
..\..\libs\cpu\libplatform.a(s_sys.o)
                              ..\..\libs\cpu\libplatform.a(startup.o) (dummy_func)
..\..\libs\cpu\libplatform.a(sleep.o)
                              Output\obj\driver\driver_lowpwr.o (lowpwr_sleep_sfr_save)
..\..\libs\cpu\libplatform.a(sys.o)
                              Output\obj\project\ble_peripheral\main.o (sys_rst_init)
..\..\libs\cpu\libplatform.a(sys_clk.o)
                              ..\..\libs\cpu\libplatform.a(audio_mic.o) (sys_clk_get_cur)
..\..\libs\cpu\libplatform.a(voltage_trim.o)
                              Output\obj\driver\driver_saradc.o (pmu_get_vbatdet)
..\..\libs\cpu\libplatform.a(weak_symbol.o)
                              ..\..\libs\cpu\libplatform.a(main.o) (xosc_24m_div_get)
..\..\libs\cpu\libplatform.a(bt.o)
                              ..\..\libs\cpu\libplatform.a(startup.o) (thread_btstack_entry)
..\..\libs\cpu\libplatform.a(freq_det.o)
                              ..\..\libs\cpu\libplatform.a(sys.o) (freq_det_init)
..\..\libs\ble\libbtstack_central.a(txpkt.o)
                              Output\obj\project\ble_peripheral\ble\ble_init.o (txpkt_init)
..\..\libs\ble\libbtstack_central.a(hci.o)
                              Output\obj\project\ble_peripheral\ble\ble_client.o (ble_get_scan_sta)
..\..\libs\ble\libbtstack_central.a(btstack_util.o)
                              ..\..\libs\ble\libbtstack_central.a(hci.o) (bd_addr_copy)
..\..\libs\ble\libbtstack_central.a(sm.o)
                              Output\obj\project\ble_peripheral\ble\ble_init.o (ble_sm_init)
..\..\libs\ble\libbtstack_central.a(le_device_db_memory.o)
                              ..\..\libs\ble\libbtstack_central.a(sm.o) (le_device_db_count)
..\..\libs\ble\libbtstack_central.a(gatt_server.o)
                              Output\obj\project\ble_peripheral\ble\ble_user_service.o (ble_notify_for_handle)
..\..\libs\ble\libbtstack_central.a(gatt_client.o)
                              Output\obj\project\ble_peripheral\ble\ble_client.o (att_client_register_handler)
..\..\libs\ble\libbtstack_central.a(att_server.o)
                              Output\obj\project\ble_peripheral\ble\ble_user_service.o (att_server_register_service_handler)
..\..\libs\ble\libbtstack_central.a(att_dispatch.o)
                              ..\..\libs\ble\libbtstack_central.a(gatt_client.o) (att_dispatch_register_client)
..\..\libs\ble\libbtstack_central.a(att_db.o)
                              ..\..\libs\ble\libbtstack_central.a(att_server.o) (att_set_db)
..\..\libs\ble\libbtstack_central.a(ad_parser.o)
                              Output\obj\project\ble_peripheral\ble\ble_client.o (ble_adv_report_info_analyse)
..\..\libs\ble\libbtstack_central.a(hci_transport_h3_controller.o)
                              ..\..\libs\ble\libbtstack_central.a(hci.o) (p_hci_transport)
..\..\libs\ble\libbtstack_central.a(hci_transport_dummy.o)
                              ..\..\libs\ble\libbtstack_central.a(hci_transport_h3_controller.o) (hci_transport_setup)
..\..\libs\ble\libbtstack_central.a(btstack_hal.o)
                              ..\..\libs\ble\libbtstack_central.a(hci_transport_h3_controller.o) (hal_uart_dma_init)
..\..\libs\ble\libbtstack_central.a(btstack_api.o)
                              Output\obj\project\ble_peripheral\ble\ble_init.o (btstack_init)
..\..\libs\ble\libbtstack_central.a(ble_api.o)
                              ..\..\libs\ble\libbtstack_central.a(btstack_api.o) (ble_msg_free_prepare)
..\..\libs\ble\libbtstack_central.a(txpkt.o)
                              ..\..\libs\ble\libbtstack_central.a(txpkt.o) (txpkt_mem_init)
..\..\libs\ble\libbtstack_central.a(platform.o)
                              ..\..\libs\ble\libbtstack_central.a(hci_transport_h3_controller.o) (dummy_void)
..\..\libs\ble\libbtstack_central.a(rf.o)
                              ..\..\libs\ble\libbtstack_central.a(btstack_api.o) (rf_single_tone_enter)
..\..\libs\ble\libbtstack_central.a(hct_proc.o)
                              ..\..\libs\ble\libbtstack_central.a(hci.o) (hct_register_handler_evt)
..\..\libs\ble\libbtstack_central.a(hct.o)
                              ..\..\libs\ble\libbtstack_central.a(hci.o) (hci_cmd_send_2_controller)
..\..\libs\ble\libbtstack_central.a(mgr_hci.o)
                              ..\..\libs\ble\libbtstack_central.a(hci.o) (hci_le_rd_buff_size)
..\..\libs\ble\libbtstack_central.a(mgr.o)
                              ..\..\libs\ble\libbtstack_central.a(mgr_hci.o) (mgr_cmd_cmp_send)
..\..\libs\ble\libbtstack_central.a(ll_scan.o)
                              ..\..\libs\ble\libbtstack_central.a(mgr_hci.o) (hci_le_set_scan_param_cmd_func)
..\..\libs\ble\libbtstack_central.a(ll.o)
                              ..\..\libs\ble\libbtstack_central.a(hct_proc.o) (ll_env)
..\..\libs\ble\libbtstack_central.a(ble_hal.o)
                              ..\..\libs\ble\libbtstack_central.a(mgr.o) (ble_ch_assess_data_get)
..\..\libs\ble\libbtstack_central.a(ble_con.o)
                              ..\..\libs\ble\libbtstack_central.a(ll.o) (ble_con_start)
..\..\libs\ble\libbtstack_central.a(ble_buf.o)
                              ..\..\libs\ble\libbtstack_central.a(hct.o) (ble_buf_acl_tx_alloc)
..\..\libs\ble\libbtstack_central.a(bb_utils.o)
                              ..\..\libs\ble\libbtstack_central.a(ll_scan.o) (bb_rate_to_phy)
..\..\libs\ble\libbtstack_central.a(bb_int.o)
                              ..\..\libs\ble\libbtstack_central.a(btstack_api.o) (bb_sleep_init)
..\..\libs\ble\libbtstack_central.a(bb.o)
                              ..\..\libs\ble\libbtstack_central.a(btstack_api.o) (bb_var_init)
..\..\libs\ble\libbtstack_central.a(periph.o)
                              ..\..\libs\ble\libbtstack_central.a(btstack_hal.o) (bt_uart_init)
..\..\libs\ble\libbtstack_central.a(extern_ble.o)
                              ..\..\libs\ble\libbtstack_central.a(le_device_db_memory.o) (ble_sync_link_info)
..\..\libs\ble\libbtstack_central.a(l2cap.o)
                              ..\..\libs\ble\libbtstack_central.a(sm.o) (l2cap_request_can_send_fix_channel_now_event)
..\..\libs\ble\libbtstack_central.a(hci_dump.o)
                              ..\..\libs\ble\libbtstack_central.a(btstack_api.o) (hci_dump_open)
..\..\libs\ble\libbtstack_central.a(hci_cmd.o)
                              ..\..\libs\ble\libbtstack_central.a(hci.o) (hci_cmd_create_from_template)
..\..\libs\ble\libbtstack_central.a(btstack_run_loop.o)
                              ..\..\libs\ble\libbtstack_central.a(sm.o) (btstack_run_loop_set_timer_handler)
..\..\libs\ble\libbtstack_central.a(btstack_memory.o)
                              ..\..\libs\ble\libbtstack_central.a(gatt_client.o) (btstack_memory_gatt_client_get)
..\..\libs\ble\libbtstack_central.a(btstack_main.o)
                              ..\..\libs\ble\libbtstack_central.a(ble_api.o) (btstack_ble_set_init_callback)
..\..\libs\ble\libbtstack_central.a(nanos.o)
                              ..\..\libs\ble\libbtstack_central.a(bb.o) (nanos_init)
..\..\libs\ble\libbtstack_central.a(bb_sche.o)
                              ..\..\libs\ble\libbtstack_central.a(bb.o) (bb_sche_init)
..\..\libs\ble\libbtstack_central.a(patch.o)
                              ..\..\libs\ble\libbtstack_central.a(bb.o) (bb_patch_dummy)
..\..\libs\ble\libbtstack_central.a(bb_dbg.o)
                              ..\..\libs\ble\libbtstack_central.a(bb.o) (bb_dbg_init)
..\..\libs\ble\libbtstack_central.a(bb_clk.o)
                              ..\..\libs\ble\libbtstack_central.a(bb.o) (bb_lpcycles_2_hus_hook)
..\..\libs\ble\libbtstack_central.a(aes.o)
                              ..\..\libs\ble\libbtstack_central.a(bb.o) (aes_init)
..\..\libs\ble\libbtstack_central.a(extern.o)
                              ..\..\libs\ble\libbtstack_central.a(bb_int.o) (sys_sleep_cb)
..\..\libs\ble\libbtstack_central.a(vs.o)
                              ..\..\libs\ble\libbtstack_central.a(bb.o) (vs_init)
..\..\libs\ble\libbtstack_central.a(rf_mate.o)
                              ..\..\libs\ble\libbtstack_central.a(rf.o) (rfphy_sw_ctrl)
..\..\libs\ble\libbtstack_central.a(scan_hook.o)
                              ..\..\libs\ble\libbtstack_central.a(ll_scan.o) (ble_scan_end_ind_hook)
..\..\libs\ble\libbtstack_central.a(ble_hook.o)
                              ..\..\libs\ble\libbtstack_central.a(ble_hal.o) (ble_hal_init_hook)
..\..\libs\ble\libbtstack_central.a(hct_tl.o)
                              ..\..\libs\ble\libbtstack_central.a(bb_int.o) (hct_queue_is_empty)
..\..\libs\ble\libbtstack_central.a(hct_msg.o)
                              ..\..\libs\ble\libbtstack_central.a(hct.o) (hci_look_for_cmd_desc)
..\..\libs\ble\libbtstack_central.a(mgr_test.o)
                              ..\..\libs\ble\libbtstack_central.a(mgr_hci.o) (hci_le_rx_test_v1_cmd_func)
..\..\libs\ble\libbtstack_central.a(mgr_proc.o)
                              ..\..\libs\ble\libbtstack_central.a(mgr.o) (mgr_msg_env)
..\..\libs\ble\libbtstack_central.a(mgr_init.o)
                              ..\..\libs\ble\libbtstack_central.a(mgr_hci.o) (hci_le_create_con_cmd_func)
..\..\libs\ble\libbtstack_central.a(ll_proc.o)
                              ..\..\libs\ble\libbtstack_central.a(ll.o) (ll_msg_env)
..\..\libs\ble\libbtstack_central.a(ll_phy_upd.o)
                              ..\..\libs\ble\libbtstack_central.a(ll_proc.o) (ll_op_phy_upd_ind_func)
..\..\libs\ble\libbtstack_central.a(ll_length.o)
                              ..\..\libs\ble\libbtstack_central.a(ll_proc.o) (ll_op_length_upd_ind_func)
..\..\libs\ble\libbtstack_central.a(ll_feature.o)
                              ..\..\libs\ble\libbtstack_central.a(ll_proc.o) (ll_op_feats_exch_ind_func)
..\..\libs\ble\libbtstack_central.a(ll_encrypt.o)
                              ..\..\libs\ble\libbtstack_central.a(ll_proc.o) (hci_le_en_enc_cmd_func)
..\..\libs\ble\libbtstack_central.a(ll_disconnect.o)
                              ..\..\libs\ble\libbtstack_central.a(ll_proc.o) (ll_stopped_ind_func)
..\..\libs\ble\libbtstack_central.a(ll_con_upd.o)
                              ..\..\libs\ble\libbtstack_central.a(ll_proc.o) (hci_le_con_upd_cmd_func)
..\..\libs\ble\libbtstack_central.a(ll_cntl.o)
                              ..\..\libs\ble\libbtstack_central.a(ll_phy_upd.o) (ll_cntl_send)
..\..\libs\ble\libbtstack_central.a(ll_clk_acc.o)
                              ..\..\libs\ble\libbtstack_central.a(ll_cntl.o) (ll_clk_acc_req_func)
..\..\libs\ble\libbtstack_central.a(ll_chmap_upd.o)
                              ..\..\libs\ble\libbtstack_central.a(ll_cntl.o) (ll_channel_map_ind_func)
..\..\libs\ble\libbtstack_central.a(ble_test.o)
                              ..\..\libs\ble\libbtstack_central.a(mgr_test.o) (ble_test_start)
..\..\libs\ble\libbtstack_central.a(ble_scan.o)
                              ..\..\libs\ble\libbtstack_central.a(ble_hal.o) (ble_scan_init)
..\..\libs\ble\libbtstack_central.a(ble_init.o)
                              ..\..\libs\ble\libbtstack_central.a(ble_hal.o) (ble_init_init)
..\..\libs\ble\libbtstack_central.a(ble.o)
                              ..\..\libs\ble\libbtstack_central.a(bb.o) (ble_var_init)
..\..\libs\ble\libbtstack_central.a(bb_sleep.o)
                              ..\..\libs\ble\libbtstack_central.a(bb_int.o) (bb_sleep_suspend)
..\..\libs\ble\libbtstack_central.a(bb_alarm.o)
                              ..\..\libs\ble\libbtstack_central.a(bb.o) (bb_timer_init)
..\..\libs\ble\libbtstack_central.a(l2cap_signaling.o)
                              ..\..\libs\ble\libbtstack_central.a(l2cap.o) (l2cap_create_signaling_le)
..\..\libs\ble\libbtstack_central.a(btstack_memory_pool.o)
                              ..\..\libs\ble\libbtstack_central.a(btstack_memory.o) (btstack_memory_pool_get)
..\..\libs\ble\libbtstack_central.a(patch_asm.o)
                              ..\..\libs\ble\libbtstack_central.a(patch.o) (bb_patch2)
..\..\libs\ble\libbtstack_central.a(vs_proc.o)
                              ..\..\libs\ble\libbtstack_central.a(vs.o) (vs_env)
..\..\libs\ble\libbtstack_central.a(vs_fcc.o)
                              ..\..\libs\ble\libbtstack_central.a(vs_proc.o) (vs_fcc_test_cmd)
..\..\libs\ble\libbtstack_central.a(ll_version.o)
                              ..\..\libs\ble\libbtstack_central.a(ll_cntl.o) (ll_version_ind_func)
..\..\libs\ble\libbtstack_central.a(ble_sync.o)
                              ..\..\libs\ble\libbtstack_central.a(ble.o) (ble_get_sync_var)

Allocating common symbols
Common symbol       size              file

tmr5ms_cnt          0x2               Output\obj\project\ble_peripheral\bsp\bsp_sys.o
ble_user_cb         0x304             Output\obj\project\ble_peripheral\ble\ble_user_service.o
server_info         0x2a8             Output\obj\project\ble_peripheral\ble\ble_client.o
REPORT_TYPE         0x4               Output\obj\project\ble_peripheral\ble\ble_client.o
xcfg_cb             0x33              Output\obj\project\ble_peripheral\bsp\bsp_sys.o

Discarded input sections

 .text          0x0000000000000000        0x0 Output\obj\driver\driver_clk.o
 .data          0x0000000000000000        0x0 Output\obj\driver\driver_clk.o
 .bss           0x0000000000000000        0x0 Output\obj\driver\driver_clk.o
 .text.clk_gate1_cmd
                0x0000000000000000       0x16 Output\obj\driver\driver_clk.o
 .text.clk_gate2_cmd
                0x0000000000000000       0x16 Output\obj\driver\driver_clk.o
 .text.clk_clkout_set
                0x0000000000000000       0x4e Output\obj\driver\driver_clk.o
 .text.clk_clk32k_rtc_set
                0x0000000000000000       0x28 Output\obj\driver\driver_clk.o
 .text.clk_clk32k_rtc_get
                0x0000000000000000       0x46 Output\obj\driver\driver_clk.o
 .text.clk_hsut0_clk_set
                0x0000000000000000       0x18 Output\obj\driver\driver_clk.o
 .text.clk_hsut0_clk_get
                0x0000000000000000       0x1e Output\obj\driver\driver_clk.o
 .text.clk_saradc_clk_set
                0x0000000000000000       0x18 Output\obj\driver\driver_clk.o
 .text.clk_saradc_clk_get
                0x0000000000000000       0x3e Output\obj\driver\driver_clk.o
 .text.clk_clk2m_ks_set
                0x0000000000000000       0x2e Output\obj\driver\driver_clk.o
 .text.clk_clk2m_ks_get
                0x0000000000000000       0x3e Output\obj\driver\driver_clk.o
 .text.clk_ledc_clk_set
                0x0000000000000000       0x18 Output\obj\driver\driver_clk.o
 .text.clk_ledc_clk_get
                0x0000000000000000       0x24 Output\obj\driver\driver_clk.o
 .text.clk_irtx_mod_clk_set
                0x0000000000000000       0x16 Output\obj\driver\driver_clk.o
 .text.clk_irtx_mod_clk_get
                0x0000000000000000       0x24 Output\obj\driver\driver_clk.o
 .text.clk_irrx_clk_set
                0x0000000000000000       0x16 Output\obj\driver\driver_clk.o
 .text.clk_irtx_clk_set
                0x0000000000000000        0x8 Output\obj\driver\driver_clk.o
 .text.clk_irrx_clk_get
                0x0000000000000000       0x34 Output\obj\driver\driver_clk.o
 .text.clk_irtx_clk_get
                0x0000000000000000        0x8 Output\obj\driver\driver_clk.o
 .rodata        0x0000000000000000       0x20 Output\obj\driver\driver_clk.o
 .text          0x0000000000000000        0x0 Output\obj\driver\driver_gpio.o
 .data          0x0000000000000000        0x0 Output\obj\driver\driver_gpio.o
 .bss           0x0000000000000000        0x0 Output\obj\driver\driver_gpio.o
 .text.gpio_deinit
                0x0000000000000000       0x10 Output\obj\driver\driver_gpio.o
 .com_periph.gpio.dir
                0x0000000000000000       0x12 Output\obj\driver\driver_gpio.o
 .com_periph.gpio.set
                0x0000000000000000        0x4 Output\obj\driver\driver_gpio.o
 .com_periph.gpio.reset
                0x0000000000000000        0x4 Output\obj\driver\driver_gpio.o
 .com_periph.gpio.write
                0x0000000000000000        0x4 Output\obj\driver\driver_gpio.o
 .com_periph.gpio.toggle
                0x0000000000000000        0x8 Output\obj\driver\driver_gpio.o
 .com_periph.gpio.read_data
                0x0000000000000000        0x8 Output\obj\driver\driver_gpio.o
 .com_periph.gpio.read_bit
                0x0000000000000000        0xa Output\obj\driver\driver_gpio.o
 .text.gpio_func_mapping_clear
                0x0000000000000000       0x7e Output\obj\driver\driver_gpio.o
 .com_periph.wk0.read_bit
                0x0000000000000000        0xa Output\obj\driver\driver_gpio.o
 .text.gpio_edge_capture_config_custom
                0x0000000000000000      0x116 Output\obj\driver\driver_gpio.o
 .text.gpio_set_reset_pin
                0x0000000000000000       0x4c Output\obj\driver\driver_gpio.o
 .text.gpio_get_edge_pin
                0x0000000000000000        0x8 Output\obj\driver\driver_gpio.o
 .com_periph.gpio.rise.src
                0x0000000000000000        0x8 Output\obj\driver\driver_gpio.o
 .com_periph.gpio.fall.src
                0x0000000000000000        0xc Output\obj\driver\driver_gpio.o
 .com_periph.gpio.pending_clr
                0x0000000000000000        0xc Output\obj\driver\driver_gpio.o
 .com_periph.gpio.pending_is
                0x0000000000000000       0x12 Output\obj\driver\driver_gpio.o
 .text.gpio_edge_pic_config
                0x0000000000000000       0x54 Output\obj\driver\driver_gpio.o
 .text          0x0000000000000000        0x0 Output\obj\driver\driver_hsuart.o
 .data          0x0000000000000000        0x0 Output\obj\driver\driver_hsuart.o
 .bss           0x0000000000000000        0x0 Output\obj\driver\driver_hsuart.o
 .text.hsuart_init
                0x0000000000000000       0xa0 Output\obj\driver\driver_hsuart.o
 .text.hsuart_deinit
                0x0000000000000000       0x14 Output\obj\driver\driver_hsuart.o
 .text.hsuart_cmd
                0x0000000000000000       0x16 Output\obj\driver\driver_hsuart.o
 .com_periph.hsuart.send
                0x0000000000000000       0x1a Output\obj\driver\driver_hsuart.o
 .com_periph.hsuart.recv
                0x0000000000000000        0xa Output\obj\driver\driver_hsuart.o
 .com_periph.hsuart.receive_data
                0x0000000000000000       0x44 Output\obj\driver\driver_hsuart.o
 .com_periph.hsuart.fifo_get
                0x0000000000000000        0xa Output\obj\driver\driver_hsuart.o
 .text.hsuart_clear_fifo_counter
                0x0000000000000000        0xe Output\obj\driver\driver_hsuart.o
 .text.hsuart_baud_config
                0x0000000000000000       0x2c Output\obj\driver\driver_hsuart.o
 .text.hsuart_pic_config
                0x0000000000000000       0x92 Output\obj\driver\driver_hsuart.o
 .com_periph.hsuart.get_flag
                0x0000000000000000       0x3e Output\obj\driver\driver_hsuart.o
 .com_periph.hsuart.clear
                0x0000000000000000       0x38 Output\obj\driver\driver_hsuart.o
 .text.hsuart_rx_idle_config
                0x0000000000000000       0x1e Output\obj\driver\driver_hsuart.o
 .com_periph.hsuart.dma
                0x0000000000000000       0x20 Output\obj\driver\driver_hsuart.o
 .com_periph.hsuart.stop
                0x0000000000000000       0x18 Output\obj\driver\driver_hsuart.o
 .com_periph.hsuart.hfc
                0x0000000000000000       0x32 Output\obj\driver\driver_hsuart.o
 .comment       0x0000000000000000       0x12 Output\obj\driver\driver_hsuart.o
 .text          0x0000000000000000        0x0 Output\obj\driver\driver_keyscan.o
 .data          0x0000000000000000        0x0 Output\obj\driver\driver_keyscan.o
 .bss           0x0000000000000000        0x0 Output\obj\driver\driver_keyscan.o
 .text.keyscan_init
                0x0000000000000000       0xde Output\obj\driver\driver_keyscan.o
 .text.keyscan_deinit
                0x0000000000000000        0xc Output\obj\driver\driver_keyscan.o
 .com_periph.keyscan.en_ctrl
                0x0000000000000000       0x16 Output\obj\driver\driver_keyscan.o
 .text.keyscan_pic_config
                0x0000000000000000       0x3a Output\obj\driver\driver_keyscan.o
 .com_periph.keyscan.flag
                0x0000000000000000       0x44 Output\obj\driver\driver_keyscan.o
 .com_periph.keyscan.query
                0x0000000000000000       0xca Output\obj\driver\driver_keyscan.o
 .com_periph.keyscan.lowpwr_mode
                0x0000000000000000        0xc Output\obj\driver\driver_keyscan.o
 .comment       0x0000000000000000       0x12 Output\obj\driver\driver_keyscan.o
 .text          0x0000000000000000        0x0 Output\obj\driver\driver_ledc.o
 .data          0x0000000000000000        0x0 Output\obj\driver\driver_ledc.o
 .bss           0x0000000000000000        0x0 Output\obj\driver\driver_ledc.o
 .text.ledc_init
                0x0000000000000000       0x3c Output\obj\driver\driver_ledc.o
 .text.ledc_timing_init
                0x0000000000000000       0x5c Output\obj\driver\driver_ledc.o
 .text.ledc_deinit
                0x0000000000000000       0x20 Output\obj\driver\driver_ledc.o
 .text.ledc_cmd
                0x0000000000000000       0x16 Output\obj\driver\driver_ledc.o
 .com_periph.ledc.transport
                0x0000000000000000       0x20 Output\obj\driver\driver_ledc.o
 .text.ledc_pic_config
                0x0000000000000000       0x44 Output\obj\driver\driver_ledc.o
 .com_periph.ledc.flag
                0x0000000000000000       0x42 Output\obj\driver\driver_ledc.o
 .text.ledc_set_frame_length
                0x0000000000000000        0xe Output\obj\driver\driver_ledc.o
 .text.ledc_set_loop_number
                0x0000000000000000        0xc Output\obj\driver\driver_ledc.o
 .text.ledc_get_frame_length
                0x0000000000000000       0x10 Output\obj\driver\driver_ledc.o
 .text.ledc_get_loop_number
                0x0000000000000000        0xc Output\obj\driver\driver_ledc.o
 .comment       0x0000000000000000       0x12 Output\obj\driver\driver_ledc.o
 .text          0x0000000000000000        0x0 Output\obj\driver\driver_lowpwr.o
 .data          0x0000000000000000        0x0 Output\obj\driver\driver_lowpwr.o
 .bss           0x0000000000000000       0x5c Output\obj\driver\driver_lowpwr.o
 .com_sleep.sys
                0x0000000000000000       0x8e Output\obj\driver\driver_lowpwr.o
 .com_sleep.lp_proc
                0x0000000000000000       0xc6 Output\obj\driver\driver_lowpwr.o
 .com_sleep.lp_wakeup
                0x0000000000000000      0x146 Output\obj\driver\driver_lowpwr.o
 .text.lowpwr_clr_wakeup_pending
                0x0000000000000000       0x1c Output\obj\driver\driver_lowpwr.o
 .text.lowpwr_gpio_wakeup_config_custom
                0x0000000000000000       0x4a Output\obj\driver\driver_lowpwr.o
 .text.lowpwr_wakeup_source_enable
                0x0000000000000000       0x7c Output\obj\driver\driver_lowpwr.o
 .text.lowpwr_wakeup_source_disable
                0x0000000000000000       0x92 Output\obj\driver\driver_lowpwr.o
 .com_pwroff.mode1
                0x0000000000000000       0xba Output\obj\driver\driver_lowpwr.o
 .com_sleep.sfr_save
                0x0000000000000000        0x2 Output\obj\driver\driver_lowpwr.o
 .com_sleep.sfr_resume
                0x0000000000000000        0x2 Output\obj\driver\driver_lowpwr.o
 .com_sleep.proc_do
                0x0000000000000000       0xb4 Output\obj\driver\driver_lowpwr.o
 .com_sleep.sleep
                0x0000000000000000        0x8 Output\obj\driver\driver_lowpwr.o
 .text          0x0000000000000000        0x0 Output\obj\driver\driver_rtc.o
 .data          0x0000000000000000        0x0 Output\obj\driver\driver_rtc.o
 .bss           0x0000000000000000        0x0 Output\obj\driver\driver_rtc.o
 .com_periph.rtc.cnt_set
                0x0000000000000000        0x8 Output\obj\driver\driver_rtc.o
 .com_periph.rtc.cnt_get
                0x0000000000000000        0x8 Output\obj\driver\driver_rtc.o
 .com_periph.rtc.alarm_set
                0x0000000000000000        0x8 Output\obj\driver\driver_rtc.o
 .com_periph.rtc.alarm_get
                0x0000000000000000        0x8 Output\obj\driver\driver_rtc.o
 .text.rtc_prescale_set
                0x0000000000000000       0x16 Output\obj\driver\driver_rtc.o
 .text.rtc_prescale_get
                0x0000000000000000        0xc Output\obj\driver\driver_rtc.o
 .text.rtc_pic_config
                0x0000000000000000       0x90 Output\obj\driver\driver_rtc.o
 .com_periph.rct.get
                0x0000000000000000       0x36 Output\obj\driver\driver_rtc.o
 .com_periph.rct.clear
                0x0000000000000000       0x1a Output\obj\driver\driver_rtc.o
 .comment       0x0000000000000000       0x12 Output\obj\driver\driver_rtc.o
 .text          0x0000000000000000        0x0 Output\obj\driver\driver_saradc.o
 .data          0x0000000000000000        0x0 Output\obj\driver\driver_saradc.o
 .bss           0x0000000000000000        0x0 Output\obj\driver\driver_saradc.o
 .text.saradc_mic_init
                0x0000000000000000       0x64 Output\obj\driver\driver_saradc.o
 .text.saradc_mic_cmd
                0x0000000000000000       0x1a Output\obj\driver\driver_saradc.o
 .text.saradc_mic_dma_cmd
                0x0000000000000000       0x38 Output\obj\driver\driver_saradc.o
 .text.saradc_init
                0x0000000000000000       0x88 Output\obj\driver\driver_saradc.o
 .text.saradc_add_channel
                0x0000000000000000      0x12a Output\obj\driver\driver_saradc.o
 .text.saradc_remove_channel
                0x0000000000000000       0xac Output\obj\driver\driver_saradc.o
 .text.saradc_cmd
                0x0000000000000000       0x16 Output\obj\driver\driver_saradc.o
 .com_periph.saradc.kick
                0x0000000000000000       0x2e Output\obj\driver\driver_saradc.o
 .text.saradc_set_baud
                0x0000000000000000       0x2e Output\obj\driver\driver_saradc.o
 .text.saradc_pic_config
                0x0000000000000000       0x70 Output\obj\driver\driver_saradc.o
 .com_periph.saradc.get
                0x0000000000000000       0x3a Output\obj\driver\driver_saradc.o
 .com_periph.saradc.clear
                0x0000000000000000       0x2e Output\obj\driver\driver_saradc.o
 .com_text.saradc.done
                0x0000000000000000       0x34 Output\obj\driver\driver_saradc.o
 .com_periph.saradc.get_data
                0x0000000000000000       0xa0 Output\obj\driver\driver_saradc.o
 .text          0x0000000000000000        0x0 Output\obj\driver\driver_spi.o
 .data          0x0000000000000000        0x0 Output\obj\driver\driver_spi.o
 .bss           0x0000000000000000        0x0 Output\obj\driver\driver_spi.o
 .text.spi_init
                0x0000000000000000       0x50 Output\obj\driver\driver_spi.o
 .text.spi_deinit
                0x0000000000000000       0x1c Output\obj\driver\driver_spi.o
 .text.spi_cmd  0x0000000000000000       0x10 Output\obj\driver\driver_spi.o
 .text.spi_dir_sel
                0x0000000000000000       0x16 Output\obj\driver\driver_spi.o
 .text.spi_it_cmd
                0x0000000000000000       0x12 Output\obj\driver\driver_spi.o
 .text.spi_lfsr_cmd
                0x0000000000000000       0x12 Output\obj\driver\driver_spi.o
 .text.spi_multi_bit_bus_cmd
                0x0000000000000000       0x12 Output\obj\driver\driver_spi.o
 .text.spi_hold_rx_cmd
                0x0000000000000000       0x12 Output\obj\driver\driver_spi.o
 .text.spi_hold_tx_cmd
                0x0000000000000000       0x12 Output\obj\driver\driver_spi.o
 .text.spi_soft_hold_cmd
                0x0000000000000000       0x12 Output\obj\driver\driver_spi.o
 .com_periph.spi.get
                0x0000000000000000        0xa Output\obj\driver\driver_spi.o
 .com_periph.spi.clear
                0x0000000000000000        0x8 Output\obj\driver\driver_spi.o
 .text.spi_set_dma_cnt
                0x0000000000000000        0x4 Output\obj\driver\driver_spi.o
 .text.spi_set_dma_addr
                0x0000000000000000        0x4 Output\obj\driver\driver_spi.o
 .text.spi_receive_data
                0x0000000000000000        0x8 Output\obj\driver\driver_spi.o
 .text.spi_send_data
                0x0000000000000000        0x4 Output\obj\driver\driver_spi.o
 .comment       0x0000000000000000       0x12 Output\obj\driver\driver_spi.o
 .text          0x0000000000000000        0x0 Output\obj\driver\driver_tmr.o
 .data          0x0000000000000000        0x0 Output\obj\driver\driver_tmr.o
 .bss           0x0000000000000000        0x0 Output\obj\driver\driver_tmr.o
 .text.tmr_base_init
                0x0000000000000000       0x50 Output\obj\driver\driver_tmr.o
 .text.tmr_deinit
                0x0000000000000000       0x54 Output\obj\driver\driver_tmr.o
 .text.tmr_set_counter
                0x0000000000000000        0x4 Output\obj\driver\driver_tmr.o
 .text.tmr_set_period
                0x0000000000000000        0x4 Output\obj\driver\driver_tmr.o
 .text.tmr_get_counter
                0x0000000000000000        0x4 Output\obj\driver\driver_tmr.o
 .text.tmr_get_period
                0x0000000000000000        0x4 Output\obj\driver\driver_tmr.o
 .text.tmr_cmd  0x0000000000000000       0x10 Output\obj\driver\driver_tmr.o
 .text.tmr_get_capture
                0x0000000000000000       0x1c Output\obj\driver\driver_tmr.o
 .text.tmr_pic_config
                0x0000000000000000       0x78 Output\obj\driver\driver_tmr.o
 .com_periph.tmr.get
                0x0000000000000000       0x52 Output\obj\driver\driver_tmr.o
 .com_periph.tmr.clear
                0x0000000000000000       0x3a Output\obj\driver\driver_tmr.o
 .comment       0x0000000000000000       0x12 Output\obj\driver\driver_tmr.o
 .text          0x0000000000000000        0x0 Output\obj\driver\driver_uart.o
 .data          0x0000000000000000        0x0 Output\obj\driver\driver_uart.o
 .bss           0x0000000000000000        0x0 Output\obj\driver\driver_uart.o
 .text.uart_deinit
                0x0000000000000000        0xe Output\obj\driver\driver_uart.o
 .text.uart_baud_config
                0x0000000000000000       0x42 Output\obj\driver\driver_uart.o
 .text          0x0000000000000000        0x0 Output\obj\driver\driver_wdt.o
 .data          0x0000000000000000        0x0 Output\obj\driver\driver_wdt.o
 .bss           0x0000000000000000        0x0 Output\obj\driver\driver_wdt.o
 .text.wdt_cmd  0x0000000000000000       0x18 Output\obj\driver\driver_wdt.o
 .text.wdt_reset_cmd
                0x0000000000000000       0x1e Output\obj\driver\driver_wdt.o
 .text.wdt_it_cmd
                0x0000000000000000       0x16 Output\obj\driver\driver_wdt.o
 .text.wdt_clk_select
                0x0000000000000000       0x1a Output\obj\driver\driver_wdt.o
 .text.wdt_time_select
                0x0000000000000000       0x1a Output\obj\driver\driver_wdt.o
 .text.wdt_get_flag
                0x0000000000000000        0x8 Output\obj\driver\driver_wdt.o
 .text.wdt_clear
                0x0000000000000000        0xe Output\obj\driver\driver_wdt.o
 .comment       0x0000000000000000       0x12 Output\obj\driver\driver_wdt.o
 .text          0x0000000000000000        0x0 Output\obj\project\ble_peripheral\app\func.o
 .data          0x0000000000000000        0x0 Output\obj\project\ble_peripheral\app\func.o
 .bss           0x0000000000000000        0x0 Output\obj\project\ble_peripheral\app\func.o
 .text          0x0000000000000000        0x0 Output\obj\project\ble_peripheral\app\func_bt.o
 .data          0x0000000000000000        0x0 Output\obj\project\ble_peripheral\app\func_bt.o
 .bss           0x0000000000000000        0x0 Output\obj\project\ble_peripheral\app\func_bt.o
 .text          0x0000000000000000        0x0 Output\obj\project\ble_peripheral\app\func_idle.o
 .data          0x0000000000000000        0x0 Output\obj\project\ble_peripheral\app\func_idle.o
 .bss           0x0000000000000000        0x0 Output\obj\project\ble_peripheral\app\func_idle.o
 .text          0x0000000000000000        0x0 Output\obj\project\ble_peripheral\app\func_iodm.o
 .data          0x0000000000000000        0x0 Output\obj\project\ble_peripheral\app\func_iodm.o
 .bss           0x0000000000000000        0x0 Output\obj\project\ble_peripheral\app\func_iodm.o
 .comment       0x0000000000000000       0x12 Output\obj\project\ble_peripheral\app\func_iodm.o
 .text          0x0000000000000000        0x0 Output\obj\project\ble_peripheral\app\func_le_bqb_rf.o
 .data          0x0000000000000000        0x0 Output\obj\project\ble_peripheral\app\func_le_bqb_rf.o
 .bss           0x0000000000000000        0x0 Output\obj\project\ble_peripheral\app\func_le_bqb_rf.o
 .comment       0x0000000000000000       0x12 Output\obj\project\ble_peripheral\app\func_le_bqb_rf.o
 .text          0x0000000000000000        0x0 Output\obj\project\ble_peripheral\app\func_le_fcc.o
 .data          0x0000000000000000        0x0 Output\obj\project\ble_peripheral\app\func_le_fcc.o
 .bss           0x0000000000000000        0x0 Output\obj\project\ble_peripheral\app\func_le_fcc.o
 .comment       0x0000000000000000       0x12 Output\obj\project\ble_peripheral\app\func_le_fcc.o
 .text          0x0000000000000000        0x0 Output\obj\project\ble_peripheral\app\func_lowpwr.o
 .data          0x0000000000000000        0x0 Output\obj\project\ble_peripheral\app\func_lowpwr.o
 .bss           0x0000000000000000        0x0 Output\obj\project\ble_peripheral\app\func_lowpwr.o
 .text          0x0000000000000000        0x0 Output\obj\project\ble_peripheral\app\func_tbox.o
 .data          0x0000000000000000        0x0 Output\obj\project\ble_peripheral\app\func_tbox.o
 .bss           0x0000000000000000        0x0 Output\obj\project\ble_peripheral\app\func_tbox.o
 .comment       0x0000000000000000       0x12 Output\obj\project\ble_peripheral\app\func_tbox.o
 .text          0x0000000000000000        0x0 Output\obj\project\ble_peripheral\ble\ble_adv.o
 .data          0x0000000000000000        0x0 Output\obj\project\ble_peripheral\ble\ble_adv.o
 .bss           0x0000000000000000        0x0 Output\obj\project\ble_peripheral\ble\ble_adv.o
 .text.ble_get_scan_data
                0x0000000000000000       0x62 Output\obj\project\ble_peripheral\ble\ble_adv.o
 .text.ble_get_adv_data
                0x0000000000000000       0xa2 Output\obj\project\ble_peripheral\ble\ble_adv.o
 .text.ble_adv_param_init
                0x0000000000000000       0x6e Output\obj\project\ble_peripheral\ble\ble_adv.o
 .rodata.adv    0x0000000000000000        0x7 Output\obj\project\ble_peripheral\ble\ble_adv.o
 .rodata.scan   0x0000000000000000        0x0 Output\obj\project\ble_peripheral\ble\ble_adv.o
 .comment       0x0000000000000000       0x12 Output\obj\project\ble_peripheral\ble\ble_adv.o
 .text          0x0000000000000000        0x0 Output\obj\project\ble_peripheral\ble\ble_alarm.o
 .data          0x0000000000000000        0x0 Output\obj\project\ble_peripheral\ble\ble_alarm.o
 .bss           0x0000000000000000        0x0 Output\obj\project\ble_peripheral\ble\ble_alarm.o
 .comment       0x0000000000000000       0x12 Output\obj\project\ble_peripheral\ble\ble_alarm.o
 .text          0x0000000000000000        0x0 Output\obj\project\ble_peripheral\ble\ble_client.o
 .data          0x0000000000000000        0x0 Output\obj\project\ble_peripheral\ble\ble_client.o
 .text.ble_scan_en_test
                0x0000000000000000       0x32 Output\obj\project\ble_peripheral\ble\ble_client.o
 .text.ble_write_test
                0x0000000000000000       0x72 Output\obj\project\ble_peripheral\ble\ble_client.o
 .text.ble_write_to_server
                0x0000000000000000       0x54 Output\obj\project\ble_peripheral\ble\ble_client.o
 .text.ble_read_test
                0x0000000000000000       0x5a Output\obj\project\ble_peripheral\ble\ble_client.o
 .rodata        0x0000000000000000       0x14 Output\obj\project\ble_peripheral\ble\ble_client.o
 .sdata         0x0000000000000000        0x5 Output\obj\project\ble_peripheral\ble\ble_client.o
 .text          0x0000000000000000        0x0 Output\obj\project\ble_peripheral\ble\ble_fota_service.o
 .data          0x0000000000000000        0x0 Output\obj\project\ble_peripheral\ble\ble_fota_service.o
 .bss           0x0000000000000000        0x0 Output\obj\project\ble_peripheral\ble\ble_fota_service.o
 .comment       0x0000000000000000       0x12 Output\obj\project\ble_peripheral\ble\ble_fota_service.o
 .text          0x0000000000000000        0x0 Output\obj\project\ble_peripheral\ble\ble_init.o
 .data          0x0000000000000000        0x0 Output\obj\project\ble_peripheral\ble\ble_init.o
 .bss           0x0000000000000000        0x0 Output\obj\project\ble_peripheral\ble\ble_init.o
 .text.ble_get_work_mode
                0x0000000000000000        0xa Output\obj\project\ble_peripheral\ble\ble_init.o
 .text.ble_sm_param_init
                0x0000000000000000        0xe Output\obj\project\ble_peripheral\ble\ble_init.o
 .text.ble_periph_init
                0x0000000000000000       0x42 Output\obj\project\ble_peripheral\ble\ble_init.o
 .text          0x0000000000000000        0x0 Output\obj\project\ble_peripheral\ble\ble_proc.o
 .data          0x0000000000000000        0x0 Output\obj\project\ble_peripheral\ble\ble_proc.o
 .bss           0x0000000000000000        0x0 Output\obj\project\ble_peripheral\ble\ble_proc.o
 .text.ble_enter_sleep_proc
                0x0000000000000000       0x6a Output\obj\project\ble_peripheral\ble\ble_proc.o
 .text.ble_exit_sleep_proc
                0x0000000000000000       0x2e Output\obj\project\ble_peripheral\ble\ble_proc.o
 .com_sleep.ble.sleep
                0x0000000000000000        0x4 Output\obj\project\ble_peripheral\ble\ble_proc.o
 .sbss          0x0000000000000000        0x8 Output\obj\project\ble_peripheral\ble\ble_proc.o
 .text          0x0000000000000000        0x0 Output\obj\project\ble_peripheral\ble\ble_profile.o
 .data          0x0000000000000000        0x0 Output\obj\project\ble_peripheral\ble\ble_profile.o
 .bss           0x0000000000000000        0x0 Output\obj\project\ble_peripheral\ble\ble_profile.o
 .text.ble_get_profile_data
                0x0000000000000000        0xa Output\obj\project\ble_peripheral\ble\ble_profile.o
 .rodata        0x0000000000000000       0x40 Output\obj\project\ble_peripheral\ble\ble_profile.o
 .comment       0x0000000000000000       0x12 Output\obj\project\ble_peripheral\ble\ble_profile.o
 .text          0x0000000000000000        0x0 Output\obj\project\ble_peripheral\ble\ble_service.o
 .data          0x0000000000000000        0x0 Output\obj\project\ble_peripheral\ble\ble_service.o
 .bss           0x0000000000000000        0x0 Output\obj\project\ble_peripheral\ble\ble_service.o
 .text.ble_service_init
                0x0000000000000000        0x8 Output\obj\project\ble_peripheral\ble\ble_service.o
 .comment       0x0000000000000000       0x12 Output\obj\project\ble_peripheral\ble\ble_service.o
 .text          0x0000000000000000        0x0 Output\obj\project\ble_peripheral\ble\ble_user_service.o
 .data          0x0000000000000000        0x0 Output\obj\project\ble_peripheral\ble\ble_user_service.o
 .bss           0x0000000000000000       0x14 Output\obj\project\ble_peripheral\ble\ble_user_service.o
 .text.service_write_callback
                0x0000000000000000       0x3a Output\obj\project\ble_peripheral\ble\ble_user_service.o
 .text.ble_event_callback
                0x0000000000000000       0x3e Output\obj\project\ble_peripheral\ble\ble_user_service.o
 .text.service_read_callback
                0x0000000000000000       0x54 Output\obj\project\ble_peripheral\ble\ble_user_service.o
 .com_sleep.ble.sleep
                0x0000000000000000        0xa Output\obj\project\ble_peripheral\ble\ble_user_service.o
 .text.ble_user_service_init
                0x0000000000000000       0x56 Output\obj\project\ble_peripheral\ble\ble_user_service.o
 .text.app.proc.ble
                0x0000000000000000       0x54 Output\obj\project\ble_peripheral\ble\ble_user_service.o
 .sbss          0x0000000000000000        0x2 Output\obj\project\ble_peripheral\ble\ble_user_service.o
 .text          0x0000000000000000        0x0 Output\obj\project\ble_peripheral\bsp\bsp_huart.o
 .data          0x0000000000000000        0x0 Output\obj\project\ble_peripheral\bsp\bsp_huart.o
 .bss           0x0000000000000000        0x0 Output\obj\project\ble_peripheral\bsp\bsp_huart.o
 .comment       0x0000000000000000       0x12 Output\obj\project\ble_peripheral\bsp\bsp_huart.o
 .text          0x0000000000000000        0x0 Output\obj\project\ble_peripheral\bsp\bsp_huart_iodm.o
 .data          0x0000000000000000        0x0 Output\obj\project\ble_peripheral\bsp\bsp_huart_iodm.o
 .bss           0x0000000000000000        0x0 Output\obj\project\ble_peripheral\bsp\bsp_huart_iodm.o
 .comment       0x0000000000000000       0x12 Output\obj\project\ble_peripheral\bsp\bsp_huart_iodm.o
 .text          0x0000000000000000        0x0 Output\obj\project\ble_peripheral\bsp\bsp_io_key.o
 .data          0x0000000000000000        0x0 Output\obj\project\ble_peripheral\bsp\bsp_io_key.o
 .bss           0x0000000000000000        0x0 Output\obj\project\ble_peripheral\bsp\bsp_io_key.o
 .comment       0x0000000000000000       0x12 Output\obj\project\ble_peripheral\bsp\bsp_io_key.o
 .text          0x0000000000000000        0x0 Output\obj\project\ble_peripheral\bsp\bsp_key.o
 .data          0x0000000000000000        0x0 Output\obj\project\ble_peripheral\bsp\bsp_key.o
 .bss           0x0000000000000000        0x0 Output\obj\project\ble_peripheral\bsp\bsp_key.o
 .comment       0x0000000000000000       0x12 Output\obj\project\ble_peripheral\bsp\bsp_key.o
 .text          0x0000000000000000        0x0 Output\obj\project\ble_peripheral\bsp\bsp_param.o
 .data          0x0000000000000000        0x0 Output\obj\project\ble_peripheral\bsp\bsp_param.o
 .bss           0x0000000000000000        0x0 Output\obj\project\ble_peripheral\bsp\bsp_param.o
 .text.bsp.param.fota
                0x0000000000000000       0xa8 Output\obj\project\ble_peripheral\bsp\bsp_param.o
 .text          0x0000000000000000        0x0 Output\obj\project\ble_peripheral\bsp\bsp_saradc.o
 .data          0x0000000000000000        0x0 Output\obj\project\ble_peripheral\bsp\bsp_saradc.o
 .bss           0x0000000000000000        0x0 Output\obj\project\ble_peripheral\bsp\bsp_saradc.o
 .comment       0x0000000000000000       0x12 Output\obj\project\ble_peripheral\bsp\bsp_saradc.o
 .text          0x0000000000000000        0x0 Output\obj\project\ble_peripheral\bsp\bsp_saradc_key.o
 .data          0x0000000000000000        0x0 Output\obj\project\ble_peripheral\bsp\bsp_saradc_key.o
 .bss           0x0000000000000000        0x0 Output\obj\project\ble_peripheral\bsp\bsp_saradc_key.o
 .comment       0x0000000000000000       0x12 Output\obj\project\ble_peripheral\bsp\bsp_saradc_key.o
 .text          0x0000000000000000        0x0 Output\obj\project\ble_peripheral\bsp\bsp_saradc_tsen.o
 .data          0x0000000000000000        0x0 Output\obj\project\ble_peripheral\bsp\bsp_saradc_tsen.o
 .bss           0x0000000000000000        0x0 Output\obj\project\ble_peripheral\bsp\bsp_saradc_tsen.o
 .comment       0x0000000000000000       0x12 Output\obj\project\ble_peripheral\bsp\bsp_saradc_tsen.o
 .text          0x0000000000000000        0x0 Output\obj\project\ble_peripheral\bsp\bsp_saradc_vbat.o
 .data          0x0000000000000000        0x0 Output\obj\project\ble_peripheral\bsp\bsp_saradc_vbat.o
 .bss           0x0000000000000000        0x0 Output\obj\project\ble_peripheral\bsp\bsp_saradc_vbat.o
 .comment       0x0000000000000000       0x12 Output\obj\project\ble_peripheral\bsp\bsp_saradc_vbat.o
 .text          0x0000000000000000        0x0 Output\obj\project\ble_peripheral\bsp\bsp_sys.o
 .data          0x0000000000000000        0x0 Output\obj\project\ble_peripheral\bsp\bsp_sys.o
 .bss           0x0000000000000000        0x0 Output\obj\project\ble_peripheral\bsp\bsp_sys.o
 .text.power_on_check
                0x0000000000000000        0x2 Output\obj\project\ble_peripheral\bsp\bsp_sys.o
 .text.bsp_periph_init
                0x0000000000000000        0x2 Output\obj\project\ble_peripheral\bsp\bsp_sys.o
 .text          0x0000000000000000        0x0 Output\obj\project\ble_peripheral\bsp\bsp_uart_debug.o
 .data          0x0000000000000000        0x0 Output\obj\project\ble_peripheral\bsp\bsp_uart_debug.o
 .bss           0x0000000000000000        0x0 Output\obj\project\ble_peripheral\bsp\bsp_uart_debug.o
 .comment       0x0000000000000000       0x12 Output\obj\project\ble_peripheral\bsp\bsp_uart_debug.o
 .text          0x0000000000000000        0x0 Output\obj\project\ble_peripheral\bsp\bsp_uart_transfer.o
 .data          0x0000000000000000        0x0 Output\obj\project\ble_peripheral\bsp\bsp_uart_transfer.o
 .text.uart_cmd_buff_clear
                0x0000000000000000        0xa Output\obj\project\ble_peripheral\bsp\bsp_uart_transfer.o
 .text.uart_cmd_success_feedback
                0x0000000000000000       0x5a Output\obj\project\ble_peripheral\bsp\bsp_uart_transfer.o
 .text          0x0000000000000000        0x0 Output\obj\project\ble_peripheral\main.o
 .data          0x0000000000000000        0x0 Output\obj\project\ble_peripheral\main.o
 .bss           0x0000000000000000        0x0 Output\obj\project\ble_peripheral\main.o
 .text          0x0000000000000000        0x0 Output\obj\project\ble_peripheral\prod_test\iodm\prod_test_iodm.o
 .data          0x0000000000000000        0x0 Output\obj\project\ble_peripheral\prod_test\iodm\prod_test_iodm.o
 .bss           0x0000000000000000        0x0 Output\obj\project\ble_peripheral\prod_test\iodm\prod_test_iodm.o
 .comment       0x0000000000000000       0x12 Output\obj\project\ble_peripheral\prod_test\iodm\prod_test_iodm.o
 .text          0x0000000000000000        0x0 Output\obj\project\ble_peripheral\prod_test\prod_test.o
 .data          0x0000000000000000        0x0 Output\obj\project\ble_peripheral\prod_test\prod_test.o
 .bss           0x0000000000000000        0x0 Output\obj\project\ble_peripheral\prod_test\prod_test.o
 .text          0x0000000000000000        0x0 Output\obj\project\ble_peripheral\prod_test\tbox\prod_test_tbox.o
 .data          0x0000000000000000        0x0 Output\obj\project\ble_peripheral\prod_test\tbox\prod_test_tbox.o
 .bss           0x0000000000000000        0x0 Output\obj\project\ble_peripheral\prod_test\tbox\prod_test_tbox.o
 .comment       0x0000000000000000       0x12 Output\obj\project\ble_peripheral\prod_test\tbox\prod_test_tbox.o
 .text          0x0000000000000000        0x0 Output\obj\project\ble_peripheral\prod_test\tbox\tbox_key.o
 .data          0x0000000000000000        0x0 Output\obj\project\ble_peripheral\prod_test\tbox\tbox_key.o
 .bss           0x0000000000000000        0x0 Output\obj\project\ble_peripheral\prod_test\tbox\tbox_key.o
 .comment       0x0000000000000000       0x12 Output\obj\project\ble_peripheral\prod_test\tbox\tbox_key.o
 .text          0x0000000000000000        0x0 Output\obj\project\ble_peripheral\strong_ble.o
 .data          0x0000000000000000        0x0 Output\obj\project\ble_peripheral\strong_ble.o
 .bss           0x0000000000000000        0x0 Output\obj\project\ble_peripheral\strong_ble.o
 .text.ble_sm_server_event_do
                0x0000000000000000        0x2 Output\obj\project\ble_peripheral\strong_ble.o
 .text.ble_sm_send_security_req_time_get
                0x0000000000000000        0x6 Output\obj\project\ble_peripheral\strong_ble.o
 .text.ble_sm_always_accept_ltk_req
                0x0000000000000000        0x4 Output\obj\project\ble_peripheral\strong_ble.o
 .text.ble_disconnected_restart_adv
                0x0000000000000000        0x4 Output\obj\project\ble_peripheral\strong_ble.o
 .text          0x0000000000000000        0x0 Output\obj\project\ble_peripheral\strong_symbol.o
 .data          0x0000000000000000        0x0 Output\obj\project\ble_peripheral\strong_symbol.o
 .bss           0x0000000000000000        0x0 Output\obj\project\ble_peripheral\strong_symbol.o
 .text.param_xosc_write
                0x0000000000000000       0x24 Output\obj\project\ble_peripheral\strong_symbol.o
 .com_text.timer
                0x0000000000000000        0x8 Output\obj\project\ble_peripheral\strong_symbol.o
 .text          0x0000000000000000        0x0 Output\obj\project\ble_peripheral\user\user_main.o
 .data          0x0000000000000000        0x0 Output\obj\project\ble_peripheral\user\user_main.o
 .text          0x0000000000000000        0x0 ..\..\libs\cpu\libplatform.a(audio_mic.o)
 .data          0x0000000000000000        0x0 ..\..\libs\cpu\libplatform.a(audio_mic.o)
 .bss           0x0000000000000000        0x0 ..\..\libs\cpu\libplatform.a(audio_mic.o)
 .text.audio_mic_get_mic_type
                0x0000000000000000        0xa ..\..\libs\cpu\libplatform.a(audio_mic.o)
 .text.audio_mic_get_mic_gain
                0x0000000000000000        0xa ..\..\libs\cpu\libplatform.a(audio_mic.o)
 .text.audio_mic_get_mic_trim
                0x0000000000000000        0xa ..\..\libs\cpu\libplatform.a(audio_mic.o)
 .text.audio_mic_pb10_pdpu
                0x0000000000000000       0x2e ..\..\libs\cpu\libplatform.a(audio_mic.o)
 .text.audio_mic_power
                0x0000000000000000      0x102 ..\..\libs\cpu\libplatform.a(audio_mic.o)
 .text.audio_mic_analog_init
                0x0000000000000000      0x2cc ..\..\libs\cpu\libplatform.a(audio_mic.o)
 .bss.audio_mic_param
                0x0000000000000000       0x18 ..\..\libs\cpu\libplatform.a(audio_mic.o)
 .comment       0x0000000000000000       0x13 ..\..\libs\cpu\libplatform.a(audio_mic.o)
 .riscv.attributes
                0x0000000000000000       0x32 ..\..\libs\cpu\libplatform.a(audio_mic.o)
 .text          0x0000000000000000        0x0 ..\..\libs\cpu\libplatform.a(audio_mic_trim.o)
 .data          0x0000000000000000        0x0 ..\..\libs\cpu\libplatform.a(audio_mic_trim.o)
 .bss           0x0000000000000000        0x0 ..\..\libs\cpu\libplatform.a(audio_mic_trim.o)
 .text.audio_mic_trim_sta_set
                0x0000000000000000        0xa ..\..\libs\cpu\libplatform.a(audio_mic_trim.o)
 .text.audio_mic_trim_sta_get
                0x0000000000000000        0xa ..\..\libs\cpu\libplatform.a(audio_mic_trim.o)
 .text.audio_mic_dbg
                0x0000000000000000       0x9e ..\..\libs\cpu\libplatform.a(audio_mic_trim.o)
 .text.audio_micdc_trim_step0_init
                0x0000000000000000       0x42 ..\..\libs\cpu\libplatform.a(audio_mic_trim.o)
 .text.audio_micdc_trim_step0_waiting
                0x0000000000000000       0x14 ..\..\libs\cpu\libplatform.a(audio_mic_trim.o)
 .rodata.audio_micdc_trim_step0_run.str1.4
                0x0000000000000000       0x20 ..\..\libs\cpu\libplatform.a(audio_mic_trim.o)
 .text.audio_micdc_trim_step0_run
                0x0000000000000000      0x146 ..\..\libs\cpu\libplatform.a(audio_mic_trim.o)
 .text.audio_micdc_trim_step1_init
                0x0000000000000000       0x20 ..\..\libs\cpu\libplatform.a(audio_mic_trim.o)
 .text.audio_micdc_trim_step1_waiting
                0x0000000000000000       0x12 ..\..\libs\cpu\libplatform.a(audio_mic_trim.o)
 .text.audio_micdc_trim_step1_run
                0x0000000000000000       0x26 ..\..\libs\cpu\libplatform.a(audio_mic_trim.o)
 .text.audio_micdc_trim_step2_init
                0x0000000000000000        0x8 ..\..\libs\cpu\libplatform.a(audio_mic_trim.o)
 .text.audio_micdc_trim_step2_waiting
                0x0000000000000000        0x8 ..\..\libs\cpu\libplatform.a(audio_mic_trim.o)
 .text.audio_micdc_trim_step2_run
                0x0000000000000000        0xe ..\..\libs\cpu\libplatform.a(audio_mic_trim.o)
 .rodata.micin_config.str1.4
                0x0000000000000000       0x20 ..\..\libs\cpu\libplatform.a(audio_mic_trim.o)
 .text.micin_config
                0x0000000000000000       0x6e ..\..\libs\cpu\libplatform.a(audio_mic_trim.o)
 .text.audio_micin_trim_step0_init
                0x0000000000000000       0x3a ..\..\libs\cpu\libplatform.a(audio_mic_trim.o)
 .text.audio_micin_trim_step0_waiting
                0x0000000000000000       0x14 ..\..\libs\cpu\libplatform.a(audio_mic_trim.o)
 .text.audio_micin_trim_step0_run
                0x0000000000000000       0x60 ..\..\libs\cpu\libplatform.a(audio_mic_trim.o)
 .text.audio_micin_trim_step1_init
                0x0000000000000000       0x2e ..\..\libs\cpu\libplatform.a(audio_mic_trim.o)
 .text.audio_micin_trim_step1_waiting
                0x0000000000000000        0x8 ..\..\libs\cpu\libplatform.a(audio_mic_trim.o)
 .text.audio_micin_trim_step1_run
                0x0000000000000000       0x4c ..\..\libs\cpu\libplatform.a(audio_mic_trim.o)
 .text.audio_micin_trim_step2_run
                0x0000000000000000       0x64 ..\..\libs\cpu\libplatform.a(audio_mic_trim.o)
 .text.audio_mic_trim_proc
                0x0000000000000000      0x180 ..\..\libs\cpu\libplatform.a(audio_mic_trim.o)
 .text.audio_mic_trim_is_finish
                0x0000000000000000       0x10 ..\..\libs\cpu\libplatform.a(audio_mic_trim.o)
 .bss.audio_mic_trim
                0x0000000000000000       0x18 ..\..\libs\cpu\libplatform.a(audio_mic_trim.o)
 .rodata.CSWTCH.14
                0x0000000000000000       0x4c ..\..\libs\cpu\libplatform.a(audio_mic_trim.o)
 .rodata.CSWTCH.15
                0x0000000000000000       0x4c ..\..\libs\cpu\libplatform.a(audio_mic_trim.o)
 .comment       0x0000000000000000       0x13 ..\..\libs\cpu\libplatform.a(audio_mic_trim.o)
 .riscv.attributes
                0x0000000000000000       0x32 ..\..\libs\cpu\libplatform.a(audio_mic_trim.o)
 .text          0x0000000000000000        0x0 ..\..\libs\cpu\libplatform.a(cm.o)
 .data          0x0000000000000000        0x0 ..\..\libs\cpu\libplatform.a(cm.o)
 .bss           0x0000000000000000        0x0 ..\..\libs\cpu\libplatform.a(cm.o)
 .rodata.cm_move_allpages.str1.4
                0x0000000000000000       0x3a ..\..\libs\cpu\libplatform.a(cm.o)
 .text.cm_move_allpages
                0x0000000000000000      0x13e ..\..\libs\cpu\libplatform.a(cm.o)
 .text.cm_get_startaddr
                0x0000000000000000        0xa ..\..\libs\cpu\libplatform.a(cm.o)
 .text.cm_get_area
                0x0000000000000000       0x14 ..\..\libs\cpu\libplatform.a(cm.o)
 .text.cm_release_all
                0x0000000000000000       0x8c ..\..\libs\cpu\libplatform.a(cm.o)
 .text.cm_read8
                0x0000000000000000       0x28 ..\..\libs\cpu\libplatform.a(cm.o)
 .text.cm_read16
                0x0000000000000000       0x28 ..\..\libs\cpu\libplatform.a(cm.o)
 .text.cm_read32
                0x0000000000000000       0x24 ..\..\libs\cpu\libplatform.a(cm.o)
 .text.cm_write8
                0x0000000000000000       0x28 ..\..\libs\cpu\libplatform.a(cm.o)
 .text.cm_write16
                0x0000000000000000       0x28 ..\..\libs\cpu\libplatform.a(cm.o)
 .text.cm_write32
                0x0000000000000000       0x24 ..\..\libs\cpu\libplatform.a(cm.o)
 .text.cm_clear
                0x0000000000000000       0x60 ..\..\libs\cpu\libplatform.a(cm.o)
 .text          0x0000000000000000        0x0 ..\..\libs\cpu\libplatform.a(os_flash.o)
 .data          0x0000000000000000        0x0 ..\..\libs\cpu\libplatform.a(os_flash.o)
 .bss           0x0000000000000000        0x0 ..\..\libs\cpu\libplatform.a(os_flash.o)
 .com_text.spiflash.id
                0x0000000000000000        0x8 ..\..\libs\cpu\libplatform.a(os_flash.o)
 .text          0x0000000000000000        0x0 ..\..\libs\cpu\libplatform.a(xcfg.o)
 .data          0x0000000000000000        0x0 ..\..\libs\cpu\libplatform.a(xcfg.o)
 .bss           0x0000000000000000        0x0 ..\..\libs\cpu\libplatform.a(xcfg.o)
 .text          0x0000000000000000        0x0 ..\..\libs\cpu\libplatform.a(main.o)
 .data          0x0000000000000000        0x0 ..\..\libs\cpu\libplatform.a(main.o)
 .bss           0x0000000000000000        0x0 ..\..\libs\cpu\libplatform.a(main.o)
 .text          0x0000000000000000        0x0 ..\..\libs\cpu\libplatform.a(interrupt.o)
 .data          0x0000000000000000        0x0 ..\..\libs\cpu\libplatform.a(interrupt.o)
 .bss           0x0000000000000000        0x0 ..\..\libs\cpu\libplatform.a(interrupt.o)
 .com_text.irq.wpt
                0x0000000000000000       0x3e ..\..\libs\cpu\libplatform.a(interrupt.o)
 .rodata.watch_point_set.str1.4
                0x0000000000000000       0x28 ..\..\libs\cpu\libplatform.a(interrupt.o)
 .text.watch_point_set
                0x0000000000000000       0x5c ..\..\libs\cpu\libplatform.a(interrupt.o)
 .text.wdt_init
                0x0000000000000000       0x3a ..\..\libs\cpu\libplatform.a(interrupt.o)
 .text.usb_irq_init
                0x0000000000000000       0x2e ..\..\libs\cpu\libplatform.a(interrupt.o)
 .com_rodata.irq.wpt
                0x0000000000000000       0x1b ..\..\libs\cpu\libplatform.a(interrupt.o)
 .text          0x0000000000000000        0x0 ..\..\libs\cpu\libplatform.a(startup.o)
 .data          0x0000000000000000        0x0 ..\..\libs\cpu\libplatform.a(startup.o)
 .bss           0x0000000000000000        0x0 ..\..\libs\cpu\libplatform.a(startup.o)
 .com_text.timer
                0x0000000000000000       0x16 ..\..\libs\cpu\libplatform.a(startup.o)
 .text.mem_heap_size_get
                0x0000000000000000        0x6 ..\..\libs\cpu\libplatform.a(startup.o)
 .text.thread_cfg_get
                0x0000000000000000        0x4 ..\..\libs\cpu\libplatform.a(startup.o)
 .rodata.thread_timer_create.str1.4
                0x0000000000000000        0x4 ..\..\libs\cpu\libplatform.a(startup.o)
 .text.thread_timer_create
                0x0000000000000000       0x76 ..\..\libs\cpu\libplatform.a(startup.o)
 .rodata.thread_driver_create.str1.4
                0x0000000000000000        0x4 ..\..\libs\cpu\libplatform.a(startup.o)
 .text.thread_driver_create
                0x0000000000000000       0x70 ..\..\libs\cpu\libplatform.a(startup.o)
 .text.thread_create_callback
                0x0000000000000000       0x28 ..\..\libs\cpu\libplatform.a(startup.o)
 .bss.driver    0x0000000000000000        0x4 ..\..\libs\cpu\libplatform.a(startup.o)
 .bss.timer     0x0000000000000000       0x28 ..\..\libs\cpu\libplatform.a(startup.o)
 .osmem         0x0000000000000000      0x600 ..\..\libs\cpu\libplatform.a(startup.o)
 .text          0x0000000000000000        0x0 ..\..\libs\cpu\libplatform.a(sys_hook.o)
 .data          0x0000000000000000        0x0 ..\..\libs\cpu\libplatform.a(sys_hook.o)
 .bss           0x0000000000000000        0x0 ..\..\libs\cpu\libplatform.a(sys_hook.o)
 .text          0x0000000000000000        0x0 ..\..\libs\cpu\libplatform.a(thread_driver.o)
 .data          0x0000000000000000        0x0 ..\..\libs\cpu\libplatform.a(thread_driver.o)
 .bss           0x0000000000000000        0x0 ..\..\libs\cpu\libplatform.a(thread_driver.o)
 .com_text.thread.driver.usb
                0x0000000000000000       0x4e ..\..\libs\cpu\libplatform.a(thread_driver.o)
 .com_text.thread.driver.vs
                0x0000000000000000       0x4e ..\..\libs\cpu\libplatform.a(thread_driver.o)
 .text.thread.driver.usb
                0x0000000000000000       0x1a ..\..\libs\cpu\libplatform.a(thread_driver.o)
 .text.thread.driver.vs
                0x0000000000000000       0x1a ..\..\libs\cpu\libplatform.a(thread_driver.o)
 .com_text.thread.driver.enter
                0x0000000000000000       0x5c ..\..\libs\cpu\libplatform.a(thread_driver.o)
 .sbss.thread_driver_usb_enter_func
                0x0000000000000000        0x4 ..\..\libs\cpu\libplatform.a(thread_driver.o)
 .sbss.thread_driver_vs_enter_func
                0x0000000000000000        0x4 ..\..\libs\cpu\libplatform.a(thread_driver.o)
 .comment       0x0000000000000000       0x13 ..\..\libs\cpu\libplatform.a(thread_driver.o)
 .riscv.attributes
                0x0000000000000000       0x32 ..\..\libs\cpu\libplatform.a(thread_driver.o)
 .text          0x0000000000000000        0x0 ..\..\libs\cpu\libplatform.a(pll.o)
 .data          0x0000000000000000        0x0 ..\..\libs\cpu\libplatform.a(pll.o)
 .bss           0x0000000000000000        0x0 ..\..\libs\cpu\libplatform.a(pll.o)
 .text.pll_clk_nhz_get
                0x0000000000000000        0xa ..\..\libs\cpu\libplatform.a(pll.o)
 .text.pll_ext_init
                0x0000000000000000      0x204 ..\..\libs\cpu\libplatform.a(pll.o)
 .text          0x0000000000000000        0x0 ..\..\libs\cpu\libplatform.a(pmu.o)
 .data          0x0000000000000000        0x0 ..\..\libs\cpu\libplatform.a(pmu.o)
 .bss           0x0000000000000000        0x0 ..\..\libs\cpu\libplatform.a(pmu.o)
 .com_text.trim.vddio_get
                0x0000000000000000        0xa ..\..\libs\cpu\libplatform.a(pmu.o)
 .com_text.trim.vddio_set
                0x0000000000000000       0x2c ..\..\libs\cpu\libplatform.a(pmu.o)
 .com_text.trim.core_get
                0x0000000000000000        0xa ..\..\libs\cpu\libplatform.a(pmu.o)
 .com_text.trim.core_set
                0x0000000000000000       0x16 ..\..\libs\cpu\libplatform.a(pmu.o)
 .com_text.trim.lvd_get
                0x0000000000000000        0xa ..\..\libs\cpu\libplatform.a(pmu.o)
 .com_text.pmu.vddbt_set
                0x0000000000000000        0xe ..\..\libs\cpu\libplatform.a(pmu.o)
 .com_text.pmu.vddbt_get
                0x0000000000000000        0x8 ..\..\libs\cpu\libplatform.a(pmu.o)
 .text          0x0000000000000000        0x0 ..\..\libs\cpu\libplatform.a(reset.o)
 .data          0x0000000000000000        0x0 ..\..\libs\cpu\libplatform.a(reset.o)
 .bss           0x0000000000000000        0x0 ..\..\libs\cpu\libplatform.a(reset.o)
 .com_text.irq  0x0000000000000000        0xe ..\..\libs\cpu\libplatform.a(reset.o)
 .text          0x0000000000000000        0x0 ..\..\libs\cpu\libplatform.a(context.o)
 .data          0x0000000000000000        0x0 ..\..\libs\cpu\libplatform.a(context.o)
 .bss           0x0000000000000000        0x0 ..\..\libs\cpu\libplatform.a(context.o)
 .riscv.attributes
                0x0000000000000000       0x30 ..\..\libs\cpu\libplatform.a(context.o)
 .text          0x0000000000000000        0x0 ..\..\libs\cpu\libplatform.a(spiflash.o)
 .data          0x0000000000000000        0x0 ..\..\libs\cpu\libplatform.a(spiflash.o)
 .bss           0x0000000000000000        0x0 ..\..\libs\cpu\libplatform.a(spiflash.o)
 .text          0x0000000000000000        0x0 ..\..\libs\cpu\libplatform.a(debug.o)
 .data          0x0000000000000000        0x0 ..\..\libs\cpu\libplatform.a(debug.o)
 .bss           0x0000000000000000        0x0 ..\..\libs\cpu\libplatform.a(debug.o)
 .text.debug_dump_info_nanos_schedule
                0x0000000000000000        0x2 ..\..\libs\cpu\libplatform.a(debug.o)
 .text.debug_dump_info_nanos_timer
                0x0000000000000000        0x2 ..\..\libs\cpu\libplatform.a(debug.o)
 .text          0x0000000000000000        0x0 ..\..\libs\cpu\libplatform.a(fot_pack.o)
 .data          0x0000000000000000        0x0 ..\..\libs\cpu\libplatform.a(fot_pack.o)
 .bss           0x0000000000000000        0x0 ..\..\libs\cpu\libplatform.a(fot_pack.o)
 .text.ota_pack
                0x0000000000000000      0x4ea ..\..\libs\cpu\libplatform.a(fot_pack.o)
 .text.ota_pack_get_curaddr
                0x0000000000000000        0xa ..\..\libs\cpu\libplatform.a(fot_pack.o)
 .text.ota_pack_get_err
                0x0000000000000000       0x14 ..\..\libs\cpu\libplatform.a(fot_pack.o)
 .text.ota_pack_get_dst_start
                0x0000000000000000        0xa ..\..\libs\cpu\libplatform.a(fot_pack.o)
 .text.ota_pack_done
                0x0000000000000000       0x58 ..\..\libs\cpu\libplatform.a(fot_pack.o)
 .text.fot.cache
                0x0000000000000000      0x156 ..\..\libs\cpu\libplatform.a(fot_pack.o)
 .text.ota_pack_breakpoint_info_read
                0x0000000000000000       0xbc ..\..\libs\cpu\libplatform.a(fot_pack.o)
 .fot_data.com.pack
                0x0000000000000000       0x44 ..\..\libs\cpu\libplatform.a(fot_pack.o)
 .sbss.fot_update_init
                0x0000000000000000        0x1 ..\..\libs\cpu\libplatform.a(fot_pack.o)
 .text          0x0000000000000000        0x0 ..\..\libs\cpu\libplatform.a(lock.o)
 .data          0x0000000000000000        0x0 ..\..\libs\cpu\libplatform.a(lock.o)
 .bss           0x0000000000000000        0x0 ..\..\libs\cpu\libplatform.a(lock.o)
 .rodata.lock_code_usbdev.str1.4
                0x0000000000000000       0x16 ..\..\libs\cpu\libplatform.a(lock.o)
 .text.lock_code_usbdev
                0x0000000000000000       0x54 ..\..\libs\cpu\libplatform.a(lock.o)
 .text.unlock_code_usbdev
                0x0000000000000000       0x28 ..\..\libs\cpu\libplatform.a(lock.o)
 .text          0x0000000000000000        0x0 ..\..\libs\cpu\libplatform.a(patch.o)
 .data          0x0000000000000000        0x0 ..\..\libs\cpu\libplatform.a(patch.o)
 .bss           0x0000000000000000        0x0 ..\..\libs\cpu\libplatform.a(patch.o)
 .text          0x0000000000000000        0x0 ..\..\libs\cpu\libplatform.a(s_sys.o)
 .data          0x0000000000000000        0x0 ..\..\libs\cpu\libplatform.a(s_sys.o)
 .bss           0x0000000000000000        0x0 ..\..\libs\cpu\libplatform.a(s_sys.o)
 .com_text.sys.alu
                0x0000000000000000       0x66 ..\..\libs\cpu\libplatform.a(s_sys.o)
 .text          0x0000000000000000        0x0 ..\..\libs\cpu\libplatform.a(sleep.o)
 .data          0x0000000000000000        0x0 ..\..\libs\cpu\libplatform.a(sleep.o)
 .bss           0x0000000000000000        0x0 ..\..\libs\cpu\libplatform.a(sleep.o)
 .com_sleep.lp.sleep
                0x0000000000000000       0x76 ..\..\libs\cpu\libplatform.a(sleep.o)
 .comment       0x0000000000000000       0x13 ..\..\libs\cpu\libplatform.a(sleep.o)
 .riscv.attributes
                0x0000000000000000       0x32 ..\..\libs\cpu\libplatform.a(sleep.o)
 .text          0x0000000000000000        0x0 ..\..\libs\cpu\libplatform.a(sys.o)
 .data          0x0000000000000000        0x0 ..\..\libs\cpu\libplatform.a(sys.o)
 .bss           0x0000000000000000        0x0 ..\..\libs\cpu\libplatform.a(sys.o)
 .text.dbg_clk_out
                0x0000000000000000       0x46 ..\..\libs\cpu\libplatform.a(sys.o)
 .text.rc2m_clk_nhz_get
                0x0000000000000000       0x30 ..\..\libs\cpu\libplatform.a(sys.o)
 .com_text.sys  0x0000000000000000       0x1e ..\..\libs\cpu\libplatform.a(sys.o)
 .text.sw_reset_source_get
                0x0000000000000000       0x2a ..\..\libs\cpu\libplatform.a(sys.o)
 .text.random_init
                0x0000000000000000        0xa ..\..\libs\cpu\libplatform.a(sys.o)
 .text.sys_get_rand_key
                0x0000000000000000       0x6c ..\..\libs\cpu\libplatform.a(sys.o)
 .text.get_random
                0x0000000000000000       0x26 ..\..\libs\cpu\libplatform.a(sys.o)
 .text.bsp.param
                0x0000000000000000       0x32 ..\..\libs\cpu\libplatform.a(sys.o)
 .text.bt_restore_xosc_cap
                0x0000000000000000        0x8 ..\..\libs\cpu\libplatform.a(sys.o)
 .text.bt_get_xosc_cap
                0x0000000000000000        0xc ..\..\libs\cpu\libplatform.a(sys.o)
 .text.bt_set_xosc_cap
                0x0000000000000000       0x18 ..\..\libs\cpu\libplatform.a(sys.o)
 .text.bt_adj_xosc_cap
                0x0000000000000000       0x72 ..\..\libs\cpu\libplatform.a(sys.o)
 .text.__divdi3
                0x0000000000000000       0x5c ..\..\libs\cpu\libplatform.a(sys.o)
 .text.__umoddi3
                0x0000000000000000       0x30 ..\..\libs\cpu\libplatform.a(sys.o)
 .text          0x0000000000000000        0x0 ..\..\libs\cpu\libplatform.a(sys_clk.o)
 .data          0x0000000000000000        0x0 ..\..\libs\cpu\libplatform.a(sys_clk.o)
 .bss           0x0000000000000000        0x0 ..\..\libs\cpu\libplatform.a(sys_clk.o)
 .text.periph_cacl_clkdiv
                0x0000000000000000        0x2 ..\..\libs\cpu\libplatform.a(sys_clk.o)
 .text.sys_clk_nhz_get
                0x0000000000000000       0x5e ..\..\libs\cpu\libplatform.a(sys_clk.o)
 .text.sys_clk_get
                0x0000000000000000        0xa ..\..\libs\cpu\libplatform.a(sys_clk.o)
 .text.sys_clk_lower_limit_lock
                0x0000000000000000       0x84 ..\..\libs\cpu\libplatform.a(sys_clk.o)
 .text.sys_clk_lower_limit_unlock
                0x0000000000000000       0x6c ..\..\libs\cpu\libplatform.a(sys_clk.o)
 .text.sys_clk_lower_limit_all_unlock
                0x0000000000000000       0x50 ..\..\libs\cpu\libplatform.a(sys_clk.o)
 .sbss.cfg_spiflash_speed_up_en
                0x0000000000000000        0x1 ..\..\libs\cpu\libplatform.a(sys_clk.o)
 .srodata.rtc_clk_div_coef
                0x0000000000000000        0x4 ..\..\libs\cpu\libplatform.a(sys_clk.o)
 .text          0x0000000000000000        0x0 ..\..\libs\cpu\libplatform.a(voltage_trim.o)
 .data          0x0000000000000000        0x0 ..\..\libs\cpu\libplatform.a(voltage_trim.o)
 .bss           0x0000000000000000        0x0 ..\..\libs\cpu\libplatform.a(voltage_trim.o)
 .text.pmu_get_vbg_mv
                0x0000000000000000        0xe ..\..\libs\cpu\libplatform.a(voltage_trim.o)
 .text.pmu_get_vbatdet
                0x0000000000000000       0x46 ..\..\libs\cpu\libplatform.a(voltage_trim.o)
 .rodata.voltage_trim_value_dump.str1.4
                0x0000000000000000       0x63 ..\..\libs\cpu\libplatform.a(voltage_trim.o)
 .text.voltage_trim_value_dump
                0x0000000000000000       0x8c ..\..\libs\cpu\libplatform.a(voltage_trim.o)
 .text          0x0000000000000000        0x0 ..\..\libs\cpu\libplatform.a(weak_symbol.o)
 .data          0x0000000000000000        0x0 ..\..\libs\cpu\libplatform.a(weak_symbol.o)
 .bss           0x0000000000000000        0x0 ..\..\libs\cpu\libplatform.a(weak_symbol.o)
 .com_text.timer
                0x0000000000000000        0x4 ..\..\libs\cpu\libplatform.a(weak_symbol.o)
 .text.xosc_get_xcfg
                0x0000000000000000        0x2 ..\..\libs\cpu\libplatform.a(weak_symbol.o)
 .text.param_xosc_read
                0x0000000000000000        0x2 ..\..\libs\cpu\libplatform.a(weak_symbol.o)
 .text.param_xosc_write
                0x0000000000000000        0x2 ..\..\libs\cpu\libplatform.a(weak_symbol.o)
 .text.sys_clk_change_callback
                0x0000000000000000        0x2 ..\..\libs\cpu\libplatform.a(weak_symbol.o)
 .text.uart_debug_init_callback
                0x0000000000000000        0x2 ..\..\libs\cpu\libplatform.a(weak_symbol.o)
 .text.nanos_var_init
                0x0000000000000000       0x1c ..\..\libs\cpu\libplatform.a(weak_symbol.o)
 .text.btstack_message
                0x0000000000000000        0x4 ..\..\libs\cpu\libplatform.a(weak_symbol.o)
 .com_text.stack.api
                0x0000000000000000        0x4 ..\..\libs\cpu\libplatform.a(weak_symbol.o)
 .com_text.ret.stack.thread
                0x0000000000000000        0x2 ..\..\libs\cpu\libplatform.a(weak_symbol.o)
 .com_text.bb.isr
                0x0000000000000000        0x6 ..\..\libs\cpu\libplatform.a(weak_symbol.o)
 .com_text.isr  0x0000000000000000        0x2 ..\..\libs\cpu\libplatform.a(weak_symbol.o)
 .text.btstack_var_init
                0x0000000000000000        0x2 ..\..\libs\cpu\libplatform.a(weak_symbol.o)
 .text.bb_patch_init
                0x0000000000000000        0x4 ..\..\libs\cpu\libplatform.a(weak_symbol.o)
 .text.bb_nanos_mem_init
                0x0000000000000000        0x2 ..\..\libs\cpu\libplatform.a(weak_symbol.o)
 .bss.heap_buf  0x0000000000000000       0x14 ..\..\libs\cpu\libplatform.a(weak_symbol.o)
 .bss.heap_size_buf
                0x0000000000000000        0xa ..\..\libs\cpu\libplatform.a(weak_symbol.o)
 .text          0x0000000000000000        0x0 ..\..\libs\cpu\libplatform.a(bt.o)
 .data          0x0000000000000000        0x0 ..\..\libs\cpu\libplatform.a(bt.o)
 .bss           0x0000000000000000        0x0 ..\..\libs\cpu\libplatform.a(bt.o)
 .text          0x0000000000000000        0x0 ..\..\libs\cpu\libplatform.a(freq_det.o)
 .data          0x0000000000000000        0x0 ..\..\libs\cpu\libplatform.a(freq_det.o)
 .bss           0x0000000000000000        0x0 ..\..\libs\cpu\libplatform.a(freq_det.o)
 .com_sleep.sleep.rc
                0x0000000000000000       0x50 ..\..\libs\cpu\libplatform.a(freq_det.o)
 .data          0x0000000000000000        0x0 ..\..\libs\ble\libbtstack_central.a(txpkt.o)
 .bss           0x0000000000000000        0x0 ..\..\libs\ble\libbtstack_central.a(txpkt.o)
 .data          0x0000000000000000        0x0 ..\..\libs\ble\libbtstack_central.a(hci.o)
 .bss           0x0000000000000000        0x0 ..\..\libs\ble\libbtstack_central.a(hci.o)
 .com_text.stack.linked_list
                0x0000000000000000       0x12 ..\..\libs\ble\libbtstack_central.a(hci.o)
 .text.stack.hci.le.adv
                0x0000000000000000        0x2 ..\..\libs\ble\libbtstack_central.a(hci.o)
 .text.hci.adv.is_enable
                0x0000000000000000        0x4 ..\..\libs\ble\libbtstack_central.a(hci.o)
 .com_text.stack.hci_recv
                0x0000000000000000       0x10 ..\..\libs\ble\libbtstack_central.a(hci.o)
 .data          0x0000000000000000        0x0 ..\..\libs\ble\libbtstack_central.a(btstack_util.o)
 .bss           0x0000000000000000        0x0 ..\..\libs\ble\libbtstack_central.a(btstack_util.o)
 .text          0x0000000000000000      0x980 ..\..\libs\ble\libbtstack_central.a(sm.o)
 .data          0x0000000000000000        0x0 ..\..\libs\ble\libbtstack_central.a(sm.o)
 .rodata.str1.4
                0x0000000000000000       0x50 ..\..\libs\ble\libbtstack_central.a(sm.o)
 .text.sm.er.get
                0x0000000000000000       0x4a ..\..\libs\ble\libbtstack_central.a(sm.o)
 .text.sm.ir    0x0000000000000000       0x4a ..\..\libs\ble\libbtstack_central.a(sm.o)
 .text.sm.cmac  0x0000000000000000       0x82 ..\..\libs\ble\libbtstack_central.a(sm.o)
 .text.sm.irk.set
                0x0000000000000000       0x2e ..\..\libs\ble\libbtstack_central.a(sm.o)
 .text.stack.ble.sm
                0x0000000000000000      0x112 ..\..\libs\ble\libbtstack_central.a(sm.o)
 .text.sm.auth.sta
                0x0000000000000000       0x30 ..\..\libs\ble\libbtstack_central.a(sm.o)
 .text.sm.request
                0x0000000000000000       0xb2 ..\..\libs\ble\libbtstack_central.a(sm.o)
 .text.sm.pairing
                0x0000000000000000       0x8a ..\..\libs\ble\libbtstack_central.a(sm.o)
 .text.sm.auth_decline
                0x0000000000000000       0x38 ..\..\libs\ble\libbtstack_central.a(sm.o)
 .text.sm.auth_grant
                0x0000000000000000       0x38 ..\..\libs\ble\libbtstack_central.a(sm.o)
 .text.sm.bonding_decline
                0x0000000000000000       0x60 ..\..\libs\ble\libbtstack_central.a(sm.o)
 .text.sm.confirm
                0x0000000000000000       0x38 ..\..\libs\ble\libbtstack_central.a(sm.o)
 .text.sm.passkey.set
                0x0000000000000000       0x3e ..\..\libs\ble\libbtstack_central.a(sm.o)
 .text.sm.passkey.get
                0x0000000000000000       0x2e ..\..\libs\ble\libbtstack_central.a(sm.o)
 .text.sm.passkey.input
                0x0000000000000000       0x58 ..\..\libs\ble\libbtstack_central.a(sm.o)
 .text.sm.identity_resolving_state
                0x0000000000000000       0x20 ..\..\libs\ble\libbtstack_central.a(sm.o)
 .text.sm.index
                0x0000000000000000       0x20 ..\..\libs\ble\libbtstack_central.a(sm.o)
 .text.gap.addr
                0x0000000000000000        0xa ..\..\libs\ble\libbtstack_central.a(sm.o)
 .text.sm.run   0x0000000000000000      0xa1c ..\..\libs\ble\libbtstack_central.a(sm.o)
 .text.sm.pdu   0x0000000000000000      0x350 ..\..\libs\ble\libbtstack_central.a(sm.o)
 .text.sm.event
                0x0000000000000000      0xa48 ..\..\libs\ble\libbtstack_central.a(sm.o)
 .text.gap.adv  0x0000000000000000        0x2 ..\..\libs\ble\libbtstack_central.a(sm.o)
 .text.sm.irk_get
                0x0000000000000000        0xa ..\..\libs\ble\libbtstack_central.a(sm.o)
 .text.sm.delete_bonding
                0x0000000000000000       0x6e ..\..\libs\ble\libbtstack_central.a(sm.o)
 .rodata        0x0000000000000000       0x64 ..\..\libs\ble\libbtstack_central.a(sm.o)
 .ble_cache.sm  0x0000000000000000        0x8 ..\..\libs\ble\libbtstack_central.a(sm.o)
 .ble_cache.sm.auth
                0x0000000000000000        0x1 ..\..\libs\ble\libbtstack_central.a(sm.o)
 .ble_cache.sm.cmac
                0x0000000000000000       0x45 ..\..\libs\ble\libbtstack_central.a(sm.o)
 .ble_cache.sm.dhk
                0x0000000000000000       0x10 ..\..\libs\ble\libbtstack_central.a(sm.o)
 .ble_cache.sm.io
                0x0000000000000000        0x1 ..\..\libs\ble\libbtstack_central.a(sm.o)
 .ble_cache.sm.req
                0x0000000000000000        0x1 ..\..\libs\ble\libbtstack_central.a(sm.o)
 .ble_cache.sm.resolution
                0x0000000000000000       0x18 ..\..\libs\ble\libbtstack_central.a(sm.o)
 .ble_cache.sm.setup
                0x0000000000000000      0x100 ..\..\libs\ble\libbtstack_central.a(sm.o)
 .sdata         0x0000000000000000        0x2 ..\..\libs\ble\libbtstack_central.a(sm.o)
 .data          0x0000000000000000        0x0 ..\..\libs\ble\libbtstack_central.a(le_device_db_memory.o)
 .bss           0x0000000000000000        0x0 ..\..\libs\ble\libbtstack_central.a(le_device_db_memory.o)
 .text.le.db.get
                0x0000000000000000       0x3e ..\..\libs\ble\libbtstack_central.a(le_device_db_memory.o)
 .text.le.db.remove
                0x0000000000000000       0x9e ..\..\libs\ble\libbtstack_central.a(le_device_db_memory.o)
 .text.le.db.remove_all
                0x0000000000000000       0x60 ..\..\libs\ble\libbtstack_central.a(le_device_db_memory.o)
 .rodata.str1.4
                0x0000000000000000        0x4 ..\..\libs\ble\libbtstack_central.a(le_device_db_memory.o)
 .text.le.db.add
                0x0000000000000000       0xe4 ..\..\libs\ble\libbtstack_central.a(le_device_db_memory.o)
 .text.le.db.dump
                0x0000000000000000       0x6a ..\..\libs\ble\libbtstack_central.a(le_device_db_memory.o)
 .text.le.db.get_index
                0x0000000000000000       0x1c ..\..\libs\ble\libbtstack_central.a(le_device_db_memory.o)
 .data          0x0000000000000000        0x0 ..\..\libs\ble\libbtstack_central.a(gatt_server.o)
 .bss           0x0000000000000000        0x0 ..\..\libs\ble\libbtstack_central.a(gatt_server.o)
 .text.stack.send.ntf_kick
                0x0000000000000000        0x8 ..\..\libs\ble\libbtstack_central.a(gatt_server.o)
 .data          0x0000000000000000        0x0 ..\..\libs\ble\libbtstack_central.a(gatt_client.o)
 .bss           0x0000000000000000        0x0 ..\..\libs\ble\libbtstack_central.a(gatt_client.o)
 .text.client.set.sm_level
                0x0000000000000000        0xa ..\..\libs\ble\libbtstack_central.a(gatt_client.o)
 .text.client.stop_listening
                0x0000000000000000       0x14 ..\..\libs\ble\libbtstack_central.a(gatt_client.o)
 .text.sm.client
                0x0000000000000000      0x1a4 ..\..\libs\ble\libbtstack_central.a(gatt_client.o)
 .text.client.deserialize_characteristic_descriptor
                0x0000000000000000       0x4e ..\..\libs\ble\libbtstack_central.a(gatt_client.o)
 .text.client.get_character_uuid16
                0x0000000000000000       0x22 ..\..\libs\ble\libbtstack_central.a(gatt_client.o)
 .text.client.get_character_uuid128
                0x0000000000000000       0x42 ..\..\libs\ble\libbtstack_central.a(gatt_client.o)
 .text.client.write_cmd
                0x0000000000000000       0x24 ..\..\libs\ble\libbtstack_central.a(gatt_client.o)
 .text.client.read_req
                0x0000000000000000       0x44 ..\..\libs\ble\libbtstack_central.a(gatt_client.o)
 .text.client.read_blob
                0x0000000000000000       0x22 ..\..\libs\ble\libbtstack_central.a(gatt_client.o)
 .text.client.discover_secondary_services
                0x0000000000000000       0x4c ..\..\libs\ble\libbtstack_central.a(gatt_client.o)
 .text.client.find_services_uuid16
                0x0000000000000000       0x6a ..\..\libs\ble\libbtstack_central.a(gatt_client.o)
 .text.client.find_services_uuid128
                0x0000000000000000       0x6e ..\..\libs\ble\libbtstack_central.a(gatt_client.o)
 .text.client.find_included_services
                0x0000000000000000       0x4e ..\..\libs\ble\libbtstack_central.a(gatt_client.o)
 .text.client.find_character_uuid16
                0x0000000000000000       0x90 ..\..\libs\ble\libbtstack_central.a(gatt_client.o)
 .text.client.find_character_uuid128
                0x0000000000000000       0x92 ..\..\libs\ble\libbtstack_central.a(gatt_client.o)
 .text.client.discover_characteristic_descriptors
                0x0000000000000000       0x5e ..\..\libs\ble\libbtstack_central.a(gatt_client.o)
 .text.client.read_value
                0x0000000000000000        0xc ..\..\libs\ble\libbtstack_central.a(gatt_client.o)
 .text.client.read_value_uuid16
                0x0000000000000000       0x66 ..\..\libs\ble\libbtstack_central.a(gatt_client.o)
 .text.client.read_value_uuid128
                0x0000000000000000       0x68 ..\..\libs\ble\libbtstack_central.a(gatt_client.o)
 .text.client.read_long_value
                0x0000000000000000       0x16 ..\..\libs\ble\libbtstack_central.a(gatt_client.o)
 .text.client.read_multiple
                0x0000000000000000       0x48 ..\..\libs\ble\libbtstack_central.a(gatt_client.o)
 .text.client.write_long_value
                0x0000000000000000       0x62 ..\..\libs\ble\libbtstack_central.a(gatt_client.o)
 .text.client.reliable_write_long
                0x0000000000000000       0x52 ..\..\libs\ble\libbtstack_central.a(gatt_client.o)
 .text.client.read_characteristic
                0x0000000000000000       0x50 ..\..\libs\ble\libbtstack_central.a(gatt_client.o)
 .text.client.read_long_characteristic_descriptor
                0x0000000000000000       0x62 ..\..\libs\ble\libbtstack_central.a(gatt_client.o)
 .text.client.write_character_desc
                0x0000000000000000       0x60 ..\..\libs\ble\libbtstack_central.a(gatt_client.o)
 .text.client.write_long_character_desc
                0x0000000000000000       0x70 ..\..\libs\ble\libbtstack_central.a(gatt_client.o)
 .text.client.prepare_write
                0x0000000000000000       0x56 ..\..\libs\ble\libbtstack_central.a(gatt_client.o)
 .text.client.execute_write
                0x0000000000000000       0x3c ..\..\libs\ble\libbtstack_central.a(gatt_client.o)
 .text.client.cancel_write
                0x0000000000000000       0x3c ..\..\libs\ble\libbtstack_central.a(gatt_client.o)
 .ble_buf.read  0x0000000000000000        0x6 ..\..\libs\ble\libbtstack_central.a(gatt_client.o)
 .data          0x0000000000000000        0x0 ..\..\libs\ble\libbtstack_central.a(att_server.o)
 .bss           0x0000000000000000        0x0 ..\..\libs\ble\libbtstack_central.a(att_server.o)
 .text.sm.server
                0x0000000000000000      0x210 ..\..\libs\ble\libbtstack_central.a(att_server.o)
 .text.server.register_service
                0x0000000000000000       0x42 ..\..\libs\ble\libbtstack_central.a(att_server.o)
 .text.server.init
                0x0000000000000000       0x84 ..\..\libs\ble\libbtstack_central.a(att_server.o)
 .text.server.packet_handler
                0x0000000000000000      0x1dc ..\..\libs\ble\libbtstack_central.a(att_server.o)
 .text.att.event_handler
                0x0000000000000000      0x1aa ..\..\libs\ble\libbtstack_central.a(att_server.o)
 .com_text.att.event_handler
                0x0000000000000000       0x26 ..\..\libs\ble\libbtstack_central.a(att_server.o)
 .ble_buf.att   0x0000000000000000       0x10 ..\..\libs\ble\libbtstack_central.a(att_server.o)
 .data          0x0000000000000000        0x0 ..\..\libs\ble\libbtstack_central.a(att_dispatch.o)
 .bss           0x0000000000000000        0x0 ..\..\libs\ble\libbtstack_central.a(att_dispatch.o)
 .text.att.is_register_client
                0x0000000000000000        0xe ..\..\libs\ble\libbtstack_central.a(att_dispatch.o)
 .text.att.register_server
                0x0000000000000000       0x1a ..\..\libs\ble\libbtstack_central.a(att_dispatch.o)
 .text.att.server_mtu
                0x0000000000000000       0x14 ..\..\libs\ble\libbtstack_central.a(att_dispatch.o)
 .data          0x0000000000000000        0x0 ..\..\libs\ble\libbtstack_central.a(att_db.o)
 .bss           0x0000000000000000        0x0 ..\..\libs\ble\libbtstack_central.a(att_db.o)
 .text.att.dump
                0x0000000000000000       0x5c ..\..\libs\ble\libbtstack_central.a(att_db.o)
 .text.gatt.get_client_config
                0x0000000000000000      0x122 ..\..\libs\ble\libbtstack_central.a(att_db.o)
 .data          0x0000000000000000        0x0 ..\..\libs\ble\libbtstack_central.a(ad_parser.o)
 .bss           0x0000000000000000        0x0 ..\..\libs\ble\libbtstack_central.a(ad_parser.o)
 .data          0x0000000000000000        0x0 ..\..\libs\ble\libbtstack_central.a(hci_transport_h3_controller.o)
 .bss           0x0000000000000000       0x20 ..\..\libs\ble\libbtstack_central.a(hci_transport_h3_controller.o)
 .text.stack.h3c
                0x0000000000000000      0x1dc ..\..\libs\ble\libbtstack_central.a(hci_transport_h3_controller.o)
 .rodata.str1.4
                0x0000000000000000       0x16 ..\..\libs\ble\libbtstack_central.a(hci_transport_h3_controller.o)
 .com_text.stack.h3c
                0x0000000000000000       0x48 ..\..\libs\ble\libbtstack_central.a(hci_transport_h3_controller.o)
 .com_text.stack.util
                0x0000000000000000      0x136 ..\..\libs\ble\libbtstack_central.a(hci_transport_h3_controller.o)
 .text.btstack.hci.h3c.init
                0x0000000000000000       0x12 ..\..\libs\ble\libbtstack_central.a(hci_transport_h3_controller.o)
 .rodata        0x0000000000000000       0x20 ..\..\libs\ble\libbtstack_central.a(hci_transport_h3_controller.o)
 .com_rodata.stack.h3
                0x0000000000000000        0x2 ..\..\libs\ble\libbtstack_central.a(hci_transport_h3_controller.o)
 .hci.h3.huart  0x0000000000000000      0x10c ..\..\libs\ble\libbtstack_central.a(hci_transport_h3_controller.o)
 .sbss          0x0000000000000000       0x1c ..\..\libs\ble\libbtstack_central.a(hci_transport_h3_controller.o)
 .data          0x0000000000000000        0x0 ..\..\libs\ble\libbtstack_central.a(hci_transport_dummy.o)
 .bss           0x0000000000000000        0x0 ..\..\libs\ble\libbtstack_central.a(hci_transport_dummy.o)
 .data          0x0000000000000000        0x0 ..\..\libs\ble\libbtstack_central.a(btstack_hal.o)
 .bss           0x0000000000000000        0x0 ..\..\libs\ble\libbtstack_central.a(btstack_hal.o)
 .com_text.stack.uart_isr
                0x0000000000000000       0x6c ..\..\libs\ble\libbtstack_central.a(btstack_hal.o)
 .text.stack.hal
                0x0000000000000000       0xa4 ..\..\libs\ble\libbtstack_central.a(btstack_hal.o)
 .com_text.stack.util
                0x0000000000000000       0x12 ..\..\libs\ble\libbtstack_central.a(btstack_hal.o)
 .sbss          0x0000000000000000        0x8 ..\..\libs\ble\libbtstack_central.a(btstack_hal.o)
 .data          0x0000000000000000        0x0 ..\..\libs\ble\libbtstack_central.a(btstack_api.o)
 .bss           0x0000000000000000        0x0 ..\..\libs\ble\libbtstack_central.a(btstack_api.o)
 .com_text.ret.bb.sleep
                0x0000000000000000       0x1e ..\..\libs\ble\libbtstack_central.a(btstack_api.o)
 .com_sleep.sleep
                0x0000000000000000        0x8 ..\..\libs\ble\libbtstack_central.a(btstack_api.o)
 .data          0x0000000000000000        0x0 ..\..\libs\ble\libbtstack_central.a(ble_api.o)
 .bss           0x0000000000000000        0x0 ..\..\libs\ble\libbtstack_central.a(ble_api.o)
 .text.ble.api.conn.update
                0x0000000000000000       0xb8 ..\..\libs\ble\libbtstack_central.a(ble_api.o)
 .text.stack.sleep
                0x0000000000000000       0xac ..\..\libs\ble\libbtstack_central.a(ble_api.o)
 .text.ble.api.max_mtu
                0x0000000000000000        0x8 ..\..\libs\ble\libbtstack_central.a(ble_api.o)
 .text.ble.api.adv_dis
                0x0000000000000000        0x2 ..\..\libs\ble\libbtstack_central.a(ble_api.o)
 .text.ble.api.adv_en
                0x0000000000000000        0x2 ..\..\libs\ble\libbtstack_central.a(ble_api.o)
 .text.ble.api.adv_is_en
                0x0000000000000000        0x8 ..\..\libs\ble\libbtstack_central.a(ble_api.o)
 .text.ble.api.adv_data.set
                0x0000000000000000        0x4 ..\..\libs\ble\libbtstack_central.a(ble_api.o)
 .text.ble.api.scan
                0x0000000000000000        0x4 ..\..\libs\ble\libbtstack_central.a(ble_api.o)
 .text.ble.api.adv_interval.set
                0x0000000000000000        0x4 ..\..\libs\ble\libbtstack_central.a(ble_api.o)
 .text.ble.api.adv.adv_interval.get
                0x0000000000000000        0x4 ..\..\libs\ble\libbtstack_central.a(ble_api.o)
 .text.ble.api.conn.ll_update
                0x0000000000000000        0xa ..\..\libs\ble\libbtstack_central.a(ble_api.o)
 .text.ble.api.conn_param.get
                0x0000000000000000        0x8 ..\..\libs\ble\libbtstack_central.a(ble_api.o)
 .text.ble.api.latency.dis
                0x0000000000000000        0x4 ..\..\libs\ble\libbtstack_central.a(ble_api.o)
 .text.ble.api.latency.en
                0x0000000000000000        0x4 ..\..\libs\ble\libbtstack_central.a(ble_api.o)
 .text.ble.api.adv_param.set
                0x0000000000000000        0x4 ..\..\libs\ble\libbtstack_central.a(ble_api.o)
 .text.ble.api.adv
                0x0000000000000000        0x4 ..\..\libs\ble\libbtstack_central.a(ble_api.o)
 .text.ble.api.rpa
                0x0000000000000000        0x2 ..\..\libs\ble\libbtstack_central.a(ble_api.o)
 .text.ble.api.rpa_en
                0x0000000000000000        0x2 ..\..\libs\ble\libbtstack_central.a(ble_api.o)
 .text.ble.api.rpa_add
                0x0000000000000000        0x2 ..\..\libs\ble\libbtstack_central.a(ble_api.o)
 .text.ble.api.rpa_dev
                0x0000000000000000        0x2 ..\..\libs\ble\libbtstack_central.a(ble_api.o)
 .text.ble.api.wlist_add
                0x0000000000000000        0x2 ..\..\libs\ble\libbtstack_central.a(ble_api.o)
 .text.ble.api.wlist_dev
                0x0000000000000000        0x2 ..\..\libs\ble\libbtstack_central.a(ble_api.o)
 .text.ble.api.wlist
                0x0000000000000000        0x4 ..\..\libs\ble\libbtstack_central.a(ble_api.o)
 .text.ble.api.sm.passkey
                0x0000000000000000       0x2c ..\..\libs\ble\libbtstack_central.a(ble_api.o)
 .text.ble.api.sm_req
                0x0000000000000000        0xe ..\..\libs\ble\libbtstack_central.a(ble_api.o)
 .text.ble.bond.delete_addr
                0x0000000000000000        0x8 ..\..\libs\ble\libbtstack_central.a(ble_api.o)
 .text.ble.bond.delete_index
                0x0000000000000000        0x8 ..\..\libs\ble\libbtstack_central.a(ble_api.o)
 .text.ble.bond.delete_all
                0x0000000000000000        0x8 ..\..\libs\ble\libbtstack_central.a(ble_api.o)
 .text.ble.bond.get_cnt
                0x0000000000000000       0x1c ..\..\libs\ble\libbtstack_central.a(ble_api.o)
 .text.ble.bond.get_info
                0x0000000000000000        0x8 ..\..\libs\ble\libbtstack_central.a(ble_api.o)
 .text.ble.bond.get_index
                0x0000000000000000        0x8 ..\..\libs\ble\libbtstack_central.a(ble_api.o)
 .text.ble.api.get_rssi
                0x0000000000000000        0x8 ..\..\libs\ble\libbtstack_central.a(ble_api.o)
 .text.ble.set_static_addr
                0x0000000000000000       0x48 ..\..\libs\ble\libbtstack_central.a(ble_api.o)
 .text.ble.single_mode
                0x0000000000000000       0x48 ..\..\libs\ble\libbtstack_central.a(ble_api.o)
 .data          0x0000000000000000        0x0 ..\..\libs\ble\libbtstack_central.a(txpkt.o)
 .bss           0x0000000000000000        0x0 ..\..\libs\ble\libbtstack_central.a(txpkt.o)
 .text          0x0000000000000000        0x0 ..\..\libs\ble\libbtstack_central.a(platform.o)
 .data          0x0000000000000000        0x0 ..\..\libs\ble\libbtstack_central.a(platform.o)
 .bss           0x0000000000000000        0x0 ..\..\libs\ble\libbtstack_central.a(platform.o)
 .com_text.bb.dbg.bt21
                0x0000000000000000        0x4 ..\..\libs\ble\libbtstack_central.a(platform.o)
 .data          0x0000000000000000        0x0 ..\..\libs\ble\libbtstack_central.a(rf.o)
 .bss           0x0000000000000000        0x0 ..\..\libs\ble\libbtstack_central.a(rf.o)
 .com_text.bb.isr.lv
                0x0000000000000000       0x3e ..\..\libs\ble\libbtstack_central.a(rf.o)
 .com_text.bb.isr.dbm
                0x0000000000000000       0x12 ..\..\libs\ble\libbtstack_central.a(rf.o)
 .com_sleep.bb  0x0000000000000000       0xae ..\..\libs\ble\libbtstack_central.a(rf.o)
 .btmem.rf.dc   0x0000000000000000       0x48 ..\..\libs\ble\libbtstack_central.a(rf.o)
 .com_rodata.bb.tbl
                0x0000000000000000        0x8 ..\..\libs\ble\libbtstack_central.a(rf.o)
 .sbss          0x0000000000000000        0x1 ..\..\libs\ble\libbtstack_central.a(rf.o)
 .data          0x0000000000000000        0x0 ..\..\libs\ble\libbtstack_central.a(hct_proc.o)
 .bss           0x0000000000000000        0x0 ..\..\libs\ble\libbtstack_central.a(hct_proc.o)
 .data          0x0000000000000000        0x0 ..\..\libs\ble\libbtstack_central.a(hct.o)
 .bss           0x0000000000000000        0x0 ..\..\libs\ble\libbtstack_central.a(hct.o)
 .data          0x0000000000000000        0x0 ..\..\libs\ble\libbtstack_central.a(mgr_hci.o)
 .bss           0x0000000000000000        0x0 ..\..\libs\ble\libbtstack_central.a(mgr_hci.o)
 .data          0x0000000000000000        0x0 ..\..\libs\ble\libbtstack_central.a(mgr.o)
 .bss           0x0000000000000000        0x0 ..\..\libs\ble\libbtstack_central.a(mgr.o)
 .data          0x0000000000000000        0x0 ..\..\libs\ble\libbtstack_central.a(ll_scan.o)
 .bss           0x0000000000000000        0x0 ..\..\libs\ble\libbtstack_central.a(ll_scan.o)
 .text          0x0000000000000000        0x0 ..\..\libs\ble\libbtstack_central.a(ll.o)
 .data          0x0000000000000000        0x0 ..\..\libs\ble\libbtstack_central.a(ll.o)
 .bss           0x0000000000000000        0x0 ..\..\libs\ble\libbtstack_central.a(ll.o)
 .data          0x0000000000000000        0x0 ..\..\libs\ble\libbtstack_central.a(ble_hal.o)
 .bss           0x0000000000000000        0x0 ..\..\libs\ble\libbtstack_central.a(ble_hal.o)
 .data          0x0000000000000000        0x0 ..\..\libs\ble\libbtstack_central.a(ble_con.o)
 .bss           0x0000000000000000        0x0 ..\..\libs\ble\libbtstack_central.a(ble_con.o)
 .com_rodata.bb.tbl
                0x0000000000000000       0x10 ..\..\libs\ble\libbtstack_central.a(ble_con.o)
 .data          0x0000000000000000        0x0 ..\..\libs\ble\libbtstack_central.a(ble_buf.o)
 .text          0x0000000000000000       0x3e ..\..\libs\ble\libbtstack_central.a(bb_utils.o)
 .data          0x0000000000000000        0x0 ..\..\libs\ble\libbtstack_central.a(bb_utils.o)
 .bss           0x0000000000000000        0x0 ..\..\libs\ble\libbtstack_central.a(bb_utils.o)
 .com_rodata.bb.tbl.r2m
                0x0000000000000000        0x4 ..\..\libs\ble\libbtstack_central.a(bb_utils.o)
 .com_rodata.bb.tbl.rate.dur
                0x0000000000000000        0x5 ..\..\libs\ble\libbtstack_central.a(bb_utils.o)
 .srodata       0x0000000000000000        0x5 ..\..\libs\ble\libbtstack_central.a(bb_utils.o)
 .data          0x0000000000000000        0x0 ..\..\libs\ble\libbtstack_central.a(bb_int.o)
 .bss           0x0000000000000000        0x0 ..\..\libs\ble\libbtstack_central.a(bb_int.o)
 .com_text.bb.hs_get
                0x0000000000000000       0x22 ..\..\libs\ble\libbtstack_central.a(bb_int.o)
 .com_sleep.bb  0x0000000000000000      0x1d2 ..\..\libs\ble\libbtstack_central.a(bb_int.o)
 .data          0x0000000000000000        0x0 ..\..\libs\ble\libbtstack_central.a(bb.o)
 .bss           0x0000000000000000        0x0 ..\..\libs\ble\libbtstack_central.a(bb.o)
 .text          0x0000000000000000        0x0 ..\..\libs\ble\libbtstack_central.a(periph.o)
 .data          0x0000000000000000        0x0 ..\..\libs\ble\libbtstack_central.a(periph.o)
 .bss           0x0000000000000000        0x0 ..\..\libs\ble\libbtstack_central.a(periph.o)
 .text.huart    0x0000000000000000        0x4 ..\..\libs\ble\libbtstack_central.a(periph.o)
 .com_text.huart
                0x0000000000000000       0x10 ..\..\libs\ble\libbtstack_central.a(periph.o)
 .comment       0x0000000000000000       0x13 ..\..\libs\ble\libbtstack_central.a(periph.o)
 .riscv.attributes
                0x0000000000000000       0x32 ..\..\libs\ble\libbtstack_central.a(periph.o)
 .data          0x0000000000000000        0x0 ..\..\libs\ble\libbtstack_central.a(extern_ble.o)
 .bss           0x0000000000000000        0x0 ..\..\libs\ble\libbtstack_central.a(extern_ble.o)
 .sbss          0x0000000000000000        0x1 ..\..\libs\ble\libbtstack_central.a(extern_ble.o)
 .data          0x0000000000000000        0x0 ..\..\libs\ble\libbtstack_central.a(l2cap.o)
 .bss           0x0000000000000000        0x0 ..\..\libs\ble\libbtstack_central.a(l2cap.o)
 .text.stack.l2cap.connectionless
                0x0000000000000000       0x58 ..\..\libs\ble\libbtstack_central.a(l2cap.o)
 .text.l2cap.mtu_max
                0x0000000000000000        0x6 ..\..\libs\ble\libbtstack_central.a(l2cap.o)
 .text.l2cap.mtu_set
                0x0000000000000000       0x18 ..\..\libs\ble\libbtstack_central.a(l2cap.o)
 .text          0x0000000000000000       0x18 ..\..\libs\ble\libbtstack_central.a(hci_dump.o)
 .data          0x0000000000000000        0xc ..\..\libs\ble\libbtstack_central.a(hci_dump.o)
 .bss           0x0000000000000000        0x0 ..\..\libs\ble\libbtstack_central.a(hci_dump.o)
 .rodata.str1.4
                0x0000000000000000       0x12 ..\..\libs\ble\libbtstack_central.a(hci_dump.o)
 .text.stack.util
                0x0000000000000000       0x82 ..\..\libs\ble\libbtstack_central.a(hci_dump.o)
 .text          0x0000000000000000        0x0 ..\..\libs\ble\libbtstack_central.a(hci_cmd.o)
 .data          0x0000000000000000        0x0 ..\..\libs\ble\libbtstack_central.a(hci_cmd.o)
 .bss           0x0000000000000000        0x0 ..\..\libs\ble\libbtstack_central.a(hci_cmd.o)
 .rodata.stack.hci_send.ch
                0x0000000000000000        0x8 ..\..\libs\ble\libbtstack_central.a(hci_cmd.o)
 .rodata.stack.hci_send.chm
                0x0000000000000000        0x8 ..\..\libs\ble\libbtstack_central.a(hci_cmd.o)
 .rodata.stack.hci_send.featrue
                0x0000000000000000        0x8 ..\..\libs\ble\libbtstack_central.a(hci_cmd.o)
 .rodata.stack.hci_send.read_sugg_len
                0x0000000000000000        0x8 ..\..\libs\ble\libbtstack_central.a(hci_cmd.o)
 .rodata.stack.hci_send.rx_test
                0x0000000000000000        0x8 ..\..\libs\ble\libbtstack_central.a(hci_cmd.o)
 .rodata.stack.hci_send.set_len
                0x0000000000000000        0x8 ..\..\libs\ble\libbtstack_central.a(hci_cmd.o)
 .rodata.stack.hci_send.sup_sta
                0x0000000000000000        0x8 ..\..\libs\ble\libbtstack_central.a(hci_cmd.o)
 .rodata.stack.hci_send.test_end
                0x0000000000000000        0x8 ..\..\libs\ble\libbtstack_central.a(hci_cmd.o)
 .rodata.stack.hci_send.tx_test
                0x0000000000000000        0x8 ..\..\libs\ble\libbtstack_central.a(hci_cmd.o)
 .srodata       0x0000000000000000        0x8 ..\..\libs\ble\libbtstack_central.a(hci_cmd.o)
 .data          0x0000000000000000        0x0 ..\..\libs\ble\libbtstack_central.a(btstack_run_loop.o)
 .bss           0x0000000000000000        0x0 ..\..\libs\ble\libbtstack_central.a(btstack_run_loop.o)
 .com_text.stack.api
                0x0000000000000000        0xc ..\..\libs\ble\libbtstack_central.a(btstack_run_loop.o)
 .data          0x0000000000000000        0x0 ..\..\libs\ble\libbtstack_central.a(btstack_memory.o)
 .text.stack.memory
                0x0000000000000000       0x12 ..\..\libs\ble\libbtstack_central.a(btstack_memory.o)
 .text.stack.setup
                0x0000000000000000        0x2 ..\..\libs\ble\libbtstack_central.a(btstack_memory.o)
 .data          0x0000000000000000        0x0 ..\..\libs\ble\libbtstack_central.a(btstack_main.o)
 .bss           0x0000000000000000        0x0 ..\..\libs\ble\libbtstack_central.a(btstack_main.o)
 .data          0x0000000000000000        0x0 ..\..\libs\ble\libbtstack_central.a(nanos.o)
 .bss           0x0000000000000000        0x0 ..\..\libs\ble\libbtstack_central.a(nanos.o)
 .com_text.ret.bb
                0x0000000000000000        0x2 ..\..\libs\ble\libbtstack_central.a(nanos.o)
 .data          0x0000000000000000        0x0 ..\..\libs\ble\libbtstack_central.a(bb_sche.o)
 .com_sleep.bb  0x0000000000000000        0xa ..\..\libs\ble\libbtstack_central.a(bb_sche.o)
 .data          0x0000000000000000        0x0 ..\..\libs\ble\libbtstack_central.a(patch.o)
 .bss           0x0000000000000000        0x0 ..\..\libs\ble\libbtstack_central.a(patch.o)
 .text          0x0000000000000000        0x0 ..\..\libs\ble\libbtstack_central.a(bb_dbg.o)
 .data          0x0000000000000000        0x0 ..\..\libs\ble\libbtstack_central.a(bb_dbg.o)
 .bss           0x0000000000000000        0x0 ..\..\libs\ble\libbtstack_central.a(bb_dbg.o)
 .com_text.spi_init
                0x0000000000000000       0x60 ..\..\libs\ble\libbtstack_central.a(bb_dbg.o)
 .com_text.bb.putc
                0x0000000000000000       0x60 ..\..\libs\ble\libbtstack_central.a(bb_dbg.o)
 .text          0x0000000000000000        0x0 ..\..\libs\ble\libbtstack_central.a(bb_clk.o)
 .data          0x0000000000000000        0x0 ..\..\libs\ble\libbtstack_central.a(bb_clk.o)
 .bss           0x0000000000000000        0x0 ..\..\libs\ble\libbtstack_central.a(bb_clk.o)
 .text          0x0000000000000000        0x0 ..\..\libs\ble\libbtstack_central.a(aes.o)
 .data          0x0000000000000000        0x0 ..\..\libs\ble\libbtstack_central.a(aes.o)
 .com_text.bb.isr
                0x0000000000000000       0x28 ..\..\libs\ble\libbtstack_central.a(aes.o)
 .text.bb.aes.ecpy
                0x0000000000000000       0xe8 ..\..\libs\ble\libbtstack_central.a(aes.o)
 .data          0x0000000000000000        0x0 ..\..\libs\ble\libbtstack_central.a(extern.o)
 .bss           0x0000000000000000        0x0 ..\..\libs\ble\libbtstack_central.a(extern.o)
 .text.bsp.param
                0x0000000000000000        0x2 ..\..\libs\ble\libbtstack_central.a(extern.o)
 .com_sleep.sleep
                0x0000000000000000        0x2 ..\..\libs\ble\libbtstack_central.a(extern.o)
 .com_sleep.bb  0x0000000000000000        0x8 ..\..\libs\ble\libbtstack_central.a(extern.o)
 .com_text.ble.phy
                0x0000000000000000        0x4 ..\..\libs\ble\libbtstack_central.a(extern.o)
 .data          0x0000000000000000        0x0 ..\..\libs\ble\libbtstack_central.a(vs.o)
 .bss           0x0000000000000000        0x0 ..\..\libs\ble\libbtstack_central.a(vs.o)
 .bss           0x0000000000000000        0x0 ..\..\libs\ble\libbtstack_central.a(rf_mate.o)
 .text.rf.vddvco.set
                0x0000000000000000       0x18 ..\..\libs\ble\libbtstack_central.a(rf_mate.o)
 .text.rf.vddvco.get
                0x0000000000000000        0xa ..\..\libs\ble\libbtstack_central.a(rf_mate.o)
 .text.rf.pll.set
                0x0000000000000000       0x12 ..\..\libs\ble\libbtstack_central.a(rf_mate.o)
 .text.rf.tx_pwr.set
                0x0000000000000000      0x10a ..\..\libs\ble\libbtstack_central.a(rf_mate.o)
 .data          0x0000000000000000        0x0 ..\..\libs\ble\libbtstack_central.a(scan_hook.o)
 .bss           0x0000000000000000        0x0 ..\..\libs\ble\libbtstack_central.a(scan_hook.o)
 .data          0x0000000000000000        0x0 ..\..\libs\ble\libbtstack_central.a(ble_hook.o)
 .bss           0x0000000000000000        0x0 ..\..\libs\ble\libbtstack_central.a(ble_hook.o)
 .text          0x0000000000000000        0x0 ..\..\libs\ble\libbtstack_central.a(hct_tl.o)
 .data          0x0000000000000000        0x0 ..\..\libs\ble\libbtstack_central.a(hct_tl.o)
 .bss           0x0000000000000000        0x0 ..\..\libs\ble\libbtstack_central.a(hct_tl.o)
 .com_text.bb.sleep
                0x0000000000000000        0x4 ..\..\libs\ble\libbtstack_central.a(hct_tl.o)
 .comment       0x0000000000000000       0x13 ..\..\libs\ble\libbtstack_central.a(hct_tl.o)
 .riscv.attributes
                0x0000000000000000       0x32 ..\..\libs\ble\libbtstack_central.a(hct_tl.o)
 .data          0x0000000000000000        0x0 ..\..\libs\ble\libbtstack_central.a(hct_msg.o)
 .bss           0x0000000000000000        0x0 ..\..\libs\ble\libbtstack_central.a(hct_msg.o)
 .data          0x0000000000000000        0x0 ..\..\libs\ble\libbtstack_central.a(mgr_test.o)
 .bss           0x0000000000000000        0x0 ..\..\libs\ble\libbtstack_central.a(mgr_test.o)
 .data          0x0000000000000000        0x0 ..\..\libs\ble\libbtstack_central.a(mgr_proc.o)
 .bss           0x0000000000000000        0x0 ..\..\libs\ble\libbtstack_central.a(mgr_proc.o)
 .data          0x0000000000000000        0x0 ..\..\libs\ble\libbtstack_central.a(mgr_init.o)
 .bss           0x0000000000000000        0x0 ..\..\libs\ble\libbtstack_central.a(mgr_init.o)
 .data          0x0000000000000000        0x0 ..\..\libs\ble\libbtstack_central.a(ll_proc.o)
 .bss           0x0000000000000000        0x0 ..\..\libs\ble\libbtstack_central.a(ll_proc.o)
 .data          0x0000000000000000        0x0 ..\..\libs\ble\libbtstack_central.a(ll_phy_upd.o)
 .bss           0x0000000000000000        0x0 ..\..\libs\ble\libbtstack_central.a(ll_phy_upd.o)
 .data          0x0000000000000000        0x0 ..\..\libs\ble\libbtstack_central.a(ll_length.o)
 .bss           0x0000000000000000        0x0 ..\..\libs\ble\libbtstack_central.a(ll_length.o)
 .data          0x0000000000000000        0x0 ..\..\libs\ble\libbtstack_central.a(ll_feature.o)
 .bss           0x0000000000000000        0x0 ..\..\libs\ble\libbtstack_central.a(ll_feature.o)
 .data          0x0000000000000000        0x0 ..\..\libs\ble\libbtstack_central.a(ll_encrypt.o)
 .bss           0x0000000000000000        0x0 ..\..\libs\ble\libbtstack_central.a(ll_encrypt.o)
 .data          0x0000000000000000        0x0 ..\..\libs\ble\libbtstack_central.a(ll_disconnect.o)
 .bss           0x0000000000000000        0x0 ..\..\libs\ble\libbtstack_central.a(ll_disconnect.o)
 .data          0x0000000000000000        0x0 ..\..\libs\ble\libbtstack_central.a(ll_con_upd.o)
 .bss           0x0000000000000000        0x0 ..\..\libs\ble\libbtstack_central.a(ll_con_upd.o)
 .data          0x0000000000000000        0x0 ..\..\libs\ble\libbtstack_central.a(ll_cntl.o)
 .bss           0x0000000000000000        0x0 ..\..\libs\ble\libbtstack_central.a(ll_cntl.o)
 .text          0x0000000000000000        0x0 ..\..\libs\ble\libbtstack_central.a(ll_clk_acc.o)
 .data          0x0000000000000000        0x0 ..\..\libs\ble\libbtstack_central.a(ll_clk_acc.o)
 .bss           0x0000000000000000        0x0 ..\..\libs\ble\libbtstack_central.a(ll_clk_acc.o)
 .data          0x0000000000000000        0x0 ..\..\libs\ble\libbtstack_central.a(ll_chmap_upd.o)
 .bss           0x0000000000000000        0x0 ..\..\libs\ble\libbtstack_central.a(ll_chmap_upd.o)
 .data          0x0000000000000000        0x0 ..\..\libs\ble\libbtstack_central.a(ble_test.o)
 .bss           0x0000000000000000        0x0 ..\..\libs\ble\libbtstack_central.a(ble_test.o)
 .data          0x0000000000000000        0x0 ..\..\libs\ble\libbtstack_central.a(ble_scan.o)
 .bss           0x0000000000000000        0x0 ..\..\libs\ble\libbtstack_central.a(ble_scan.o)
 .com_rodata.bb.tbl
                0x0000000000000000        0x7 ..\..\libs\ble\libbtstack_central.a(ble_scan.o)
 .data          0x0000000000000000        0x0 ..\..\libs\ble\libbtstack_central.a(ble_init.o)
 .bss           0x0000000000000000        0x0 ..\..\libs\ble\libbtstack_central.a(ble_init.o)
 .com_rodata.bb.tbl
                0x0000000000000000        0x8 ..\..\libs\ble\libbtstack_central.a(ble_init.o)
 .data          0x0000000000000000        0x0 ..\..\libs\ble\libbtstack_central.a(ble.o)
 .bss           0x0000000000000000        0x0 ..\..\libs\ble\libbtstack_central.a(ble.o)
 .text          0x0000000000000000        0x0 ..\..\libs\ble\libbtstack_central.a(bb_sleep.o)
 .data          0x0000000000000000        0x0 ..\..\libs\ble\libbtstack_central.a(bb_sleep.o)
 .bss           0x0000000000000000        0x0 ..\..\libs\ble\libbtstack_central.a(bb_sleep.o)
 .com_sleep.bb  0x0000000000000000       0xa2 ..\..\libs\ble\libbtstack_central.a(bb_sleep.o)
 .comment       0x0000000000000000       0x13 ..\..\libs\ble\libbtstack_central.a(bb_sleep.o)
 .riscv.attributes
                0x0000000000000000       0x32 ..\..\libs\ble\libbtstack_central.a(bb_sleep.o)
 .text          0x0000000000000000        0x0 ..\..\libs\ble\libbtstack_central.a(bb_alarm.o)
 .data          0x0000000000000000        0x0 ..\..\libs\ble\libbtstack_central.a(bb_alarm.o)
 .bss           0x0000000000000000        0x0 ..\..\libs\ble\libbtstack_central.a(bb_alarm.o)
 .com_text.bb.isr.nest
                0x0000000000000000        0xa ..\..\libs\ble\libbtstack_central.a(bb_alarm.o)
 .com_text.bb.timer.check
                0x0000000000000000       0x20 ..\..\libs\ble\libbtstack_central.a(bb_alarm.o)
 .com_text.bb.timer.push
                0x0000000000000000       0x78 ..\..\libs\ble\libbtstack_central.a(bb_alarm.o)
 .text          0x0000000000000000        0x0 ..\..\libs\ble\libbtstack_central.a(l2cap_signaling.o)
 .data          0x0000000000000000        0x0 ..\..\libs\ble\libbtstack_central.a(l2cap_signaling.o)
 .bss           0x0000000000000000        0x0 ..\..\libs\ble\libbtstack_central.a(l2cap_signaling.o)
 .text          0x0000000000000000        0x0 ..\..\libs\ble\libbtstack_central.a(btstack_memory_pool.o)
 .data          0x0000000000000000        0x0 ..\..\libs\ble\libbtstack_central.a(btstack_memory_pool.o)
 .bss           0x0000000000000000        0x0 ..\..\libs\ble\libbtstack_central.a(btstack_memory_pool.o)
 .text          0x0000000000000000        0x0 ..\..\libs\ble\libbtstack_central.a(patch_asm.o)
 .data          0x0000000000000000        0x0 ..\..\libs\ble\libbtstack_central.a(patch_asm.o)
 .bss           0x0000000000000000        0x0 ..\..\libs\ble\libbtstack_central.a(patch_asm.o)
 .data          0x0000000000000000        0x0 ..\..\libs\ble\libbtstack_central.a(vs_proc.o)
 .bss           0x0000000000000000        0x0 ..\..\libs\ble\libbtstack_central.a(vs_proc.o)
 .text          0x0000000000000000        0x0 ..\..\libs\ble\libbtstack_central.a(vs_fcc.o)
 .data          0x0000000000000000        0x0 ..\..\libs\ble\libbtstack_central.a(vs_fcc.o)
 .bss           0x0000000000000000        0x0 ..\..\libs\ble\libbtstack_central.a(vs_fcc.o)
 .data          0x0000000000000000        0x0 ..\..\libs\ble\libbtstack_central.a(ll_version.o)
 .bss           0x0000000000000000        0x0 ..\..\libs\ble\libbtstack_central.a(ll_version.o)
 .data          0x0000000000000000        0x0 ..\..\libs\ble\libbtstack_central.a(ble_sync.o)
 .bss           0x0000000000000000        0x0 ..\..\libs\ble\libbtstack_central.a(ble_sync.o)

Memory Configuration

Name             Origin             Length             Attributes
init             0x0000000010000000 0x0000000000000200
flash            0x0000000010000200 0x000000000003e000 xr
stack            0x0000000000010800 0x0000000000000400
sram             0x0000000000010c00 0x0000000000005400
pdn_comm         0x0000000000010c00 0x0000000000000400
*default*        0x0000000000000000 0xffffffffffffffff

Linker script and memory map

LOAD Output\obj\driver\driver_clk.o
LOAD Output\obj\driver\driver_gpio.o
LOAD Output\obj\driver\driver_hsuart.o
LOAD Output\obj\driver\driver_keyscan.o
LOAD Output\obj\driver\driver_ledc.o
LOAD Output\obj\driver\driver_lowpwr.o
LOAD Output\obj\driver\driver_rtc.o
LOAD Output\obj\driver\driver_saradc.o
LOAD Output\obj\driver\driver_spi.o
LOAD Output\obj\driver\driver_tmr.o
LOAD Output\obj\driver\driver_uart.o
LOAD Output\obj\driver\driver_wdt.o
LOAD Output\obj\project\ble_peripheral\app\func.o
LOAD Output\obj\project\ble_peripheral\app\func_bt.o
LOAD Output\obj\project\ble_peripheral\app\func_idle.o
LOAD Output\obj\project\ble_peripheral\app\func_iodm.o
LOAD Output\obj\project\ble_peripheral\app\func_le_bqb_rf.o
LOAD Output\obj\project\ble_peripheral\app\func_le_fcc.o
LOAD Output\obj\project\ble_peripheral\app\func_lowpwr.o
LOAD Output\obj\project\ble_peripheral\app\func_tbox.o
LOAD Output\obj\project\ble_peripheral\ble\ble_adv.o
LOAD Output\obj\project\ble_peripheral\ble\ble_alarm.o
LOAD Output\obj\project\ble_peripheral\ble\ble_client.o
LOAD Output\obj\project\ble_peripheral\ble\ble_fota_service.o
LOAD Output\obj\project\ble_peripheral\ble\ble_init.o
LOAD Output\obj\project\ble_peripheral\ble\ble_proc.o
LOAD Output\obj\project\ble_peripheral\ble\ble_profile.o
LOAD Output\obj\project\ble_peripheral\ble\ble_service.o
LOAD Output\obj\project\ble_peripheral\ble\ble_user_service.o
LOAD Output\obj\project\ble_peripheral\bsp\bsp_huart.o
LOAD Output\obj\project\ble_peripheral\bsp\bsp_huart_iodm.o
LOAD Output\obj\project\ble_peripheral\bsp\bsp_io_key.o
LOAD Output\obj\project\ble_peripheral\bsp\bsp_key.o
LOAD Output\obj\project\ble_peripheral\bsp\bsp_param.o
LOAD Output\obj\project\ble_peripheral\bsp\bsp_saradc.o
LOAD Output\obj\project\ble_peripheral\bsp\bsp_saradc_key.o
LOAD Output\obj\project\ble_peripheral\bsp\bsp_saradc_tsen.o
LOAD Output\obj\project\ble_peripheral\bsp\bsp_saradc_vbat.o
LOAD Output\obj\project\ble_peripheral\bsp\bsp_sys.o
LOAD Output\obj\project\ble_peripheral\bsp\bsp_uart_debug.o
LOAD Output\obj\project\ble_peripheral\bsp\bsp_uart_transfer.o
LOAD Output\obj\project\ble_peripheral\main.o
LOAD Output\obj\project\ble_peripheral\prod_test\iodm\prod_test_iodm.o
LOAD Output\obj\project\ble_peripheral\prod_test\prod_test.o
LOAD Output\obj\project\ble_peripheral\prod_test\tbox\prod_test_tbox.o
LOAD Output\obj\project\ble_peripheral\prod_test\tbox\tbox_key.o
LOAD Output\obj\project\ble_peripheral\strong_ble.o
LOAD Output\obj\project\ble_peripheral\strong_symbol.o
LOAD Output\obj\project\ble_peripheral\user\user_main.o
                0x000000000003e000                __max_flash_size = 0x3e000
                0x0000000010000000                __base = 0x10000000
                0x0000000000010600                __cache_stack_vma = 0x10600
                0x0000000000000200                __cache_stack_size = 0x200
                0x0000000000010800                __stack_vma = 0x10800
                0x0000000000000400                __stack_ram_size = 0x400
                0x0000000000010c00                __sram_vma = 0x10c00
                0x0000000000005400                __sram_ram_size = 0x5400
                0x0000000000014100                __comm_vma = __comm_start
                0x0000000000000400                __pdn_comm_ram_size = 0x400
                0x0000000000010c00                __pdn_comm_vma = __sram_vma

.init           0x0000000010000000       0x4e
 *(.reset)
 .reset         0x0000000010000000       0x4e ..\..\libs\cpu\libplatform.a(reset.o)
                0x0000000010000000                _start

.bss            0x0000000000010c00     0x3500
                0x0000000000010c00                __bss_start = .
 *(.btmem.bthw)
 .btmem.bthw    0x0000000000010c00      0x780 ..\..\libs\ble\libbtstack_central.a(bb.o)
                0x0000000000010c00                bthw_mem
 *(.btmem*)
 .btmem.cache.stack.hci
                0x0000000000011380      0x10b ..\..\libs\ble\libbtstack_central.a(hci.o)
 *fill*         0x000000000001148b        0x1 
 .btmem.stack.hci_buf
                0x000000000001148c      0x1e4 ..\..\libs\ble\libbtstack_central.a(hci.o)
 .btmem.stack.util
                0x0000000000011670       0x12 ..\..\libs\ble\libbtstack_central.a(btstack_util.o)
 *fill*         0x0000000000011682        0x2 
 .btmem.hci.transport.h3
                0x0000000000011684        0x4 ..\..\libs\ble\libbtstack_central.a(hci_transport_h3_controller.o)
                0x0000000000011684                p_hci_transport
 .btmem.hct.env
                0x0000000000011688       0x40 ..\..\libs\ble\libbtstack_central.a(hct_proc.o)
 .btmem.bb.hci  0x00000000000116c8        0x2 ..\..\libs\ble\libbtstack_central.a(hct.o)
                0x00000000000116c8                hci_env
 *fill*         0x00000000000116ca        0x2 
 .btmem.ble.lm  0x00000000000116cc      0x154 ..\..\libs\ble\libbtstack_central.a(mgr.o)
                0x00000000000116cc                mgr_env
 .btmem.ble.lc  0x0000000000011820        0x8 ..\..\libs\ble\libbtstack_central.a(ll.o)
                0x0000000000011820                ll_env
 .btmem.ble.hal
                0x0000000000011828      0x127 ..\..\libs\ble\libbtstack_central.a(ble_hal.o)
                0x0000000000011828                ble_env
                0x0000000000011944                ble_exp_sync_pos_tab
 *fill*         0x000000000001194f        0x1 
 .btmem.ble.con
                0x0000000000011950        0x8 ..\..\libs\ble\libbtstack_central.a(ble_con.o)
                0x0000000000011950                ble_con_env
 .btmem.ble.buf
                0x0000000000011958       0x30 ..\..\libs\ble\libbtstack_central.a(ble_buf.o)
 .btmem.bb.env  0x0000000000011988       0x60 ..\..\libs\ble\libbtstack_central.a(bb_int.o)
                0x0000000000011988                bb_env
 .btmem.alloc.bb.buf
                0x00000000000119e8      0x51c ..\..\libs\ble\libbtstack_central.a(bb.o)
 .btmem.bb.buf  0x0000000000011f04      0x454 ..\..\libs\ble\libbtstack_central.a(bb.o)
 .btmem.bb.rf   0x0000000000012358        0x3 ..\..\libs\ble\libbtstack_central.a(bb.o)
                0x0000000000012358                rf_api
 *fill*         0x000000000001235b        0x1 
 .btmem.stack   0x000000000001235c       0x14 ..\..\libs\ble\libbtstack_central.a(btstack_run_loop.o)
 .btmem.bb.buf  0x0000000000012370       0x34 ..\..\libs\ble\libbtstack_central.a(nanos.o)
 .btmem.ble.test
                0x00000000000123a4        0x4 ..\..\libs\ble\libbtstack_central.a(ble_test.o)
 .btmem.ble.scan
                0x00000000000123a8        0x8 ..\..\libs\ble\libbtstack_central.a(ble_scan.o)
 .btmem.ble.init
                0x00000000000123b0        0x4 ..\..\libs\ble\libbtstack_central.a(ble_init.o)
 .btmem.bb.ble.tbl
                0x00000000000123b4       0x10 ..\..\libs\ble\libbtstack_central.a(ble.o)
 .btmem.bb.timer
                0x00000000000123c4        0x8 ..\..\libs\ble\libbtstack_central.a(bb_alarm.o)
 .btmem.bb.vs   0x00000000000123cc        0xd ..\..\libs\ble\libbtstack_central.a(vs_proc.o)
                0x00000000000123cc                vs_env
 *(.osmem*)
 *fill*         0x00000000000123d9        0x3 
 .osmem         0x00000000000123dc      0xc48 Output\obj\project\ble_peripheral\strong_symbol.o
                0x00000000000123dc                mem_heap
 *(COMMON)
 COMMON         0x0000000000013024      0x2ac Output\obj\project\ble_peripheral\ble\ble_client.o
                0x0000000000013024                server_info
                0x00000000000132cc                REPORT_TYPE
 COMMON         0x00000000000132d0      0x304 Output\obj\project\ble_peripheral\ble\ble_user_service.o
                0x00000000000132d0                ble_user_cb
 COMMON         0x00000000000135d4       0x37 Output\obj\project\ble_peripheral\bsp\bsp_sys.o
                0x00000000000135d4                tmr5ms_cnt
                0x00000000000135d8                xcfg_cb
 *(.bss*)
 *fill*         0x000000000001360b        0x1 
 .bss.periph.saradc
                0x000000000001360c       0x24 Output\obj\driver\driver_saradc.o
 .bss           0x0000000000013630       0x10 Output\obj\project\ble_peripheral\ble\ble_client.o
 .bss           0x0000000000013640      0x200 Output\obj\project\ble_peripheral\bsp\bsp_uart_transfer.o
 .bss           0x0000000000013840        0xc Output\obj\project\ble_peripheral\user\user_main.o
 .bss.cm        0x000000000001384c      0x14c ..\..\libs\cpu\libplatform.a(cm.o)
                0x000000000001384c                cm
 .bss.sys       0x0000000000013998       0x18 ..\..\libs\cpu\libplatform.a(main.o)
                0x0000000000013998                sys
 .bss.irq_tbl   0x00000000000139b0       0x88 ..\..\libs\cpu\libplatform.a(interrupt.o)
 .bss.sys.timer
                0x0000000000013a38        0x8 ..\..\libs\cpu\libplatform.a(interrupt.o)
 .bss.btstack   0x0000000000013a40        0x4 ..\..\libs\cpu\libplatform.a(startup.o)
                0x0000000000013a40                pmq_btstack
 .bss           0x0000000000013a44       0x30 ..\..\libs\ble\libbtstack_central.a(sm.o)
 .bss.hct.env   0x0000000000013a74       0x18 ..\..\libs\ble\libbtstack_central.a(hct_proc.o)
 .bss           0x0000000000013a8c       0x50 ..\..\libs\ble\libbtstack_central.a(ble_buf.o)
 .bss.stack.l2cap
                0x0000000000013adc       0x3c ..\..\libs\ble\libbtstack_central.a(l2cap.o)
 .bss           0x0000000000013b18       0x6c ..\..\libs\ble\libbtstack_central.a(btstack_memory.o)
 .bss           0x0000000000013b84      0x128 ..\..\libs\ble\libbtstack_central.a(bb_sche.o)
 .bss           0x0000000000013cac        0xc ..\..\libs\ble\libbtstack_central.a(aes.o)
                0x0000000000013cac                aes_env
 .bss.bb.timer  0x0000000000013cb8        0x1 ..\..\libs\ble\libbtstack_central.a(bb_alarm.o)
 *(.sbss*)
 *fill*         0x0000000000013cb9        0x3 
 .sbss          0x0000000000013cbc        0x4 Output\obj\project\ble_peripheral\ble\ble_client.o
 .sbss          0x0000000000013cc0        0x4 Output\obj\project\ble_peripheral\ble\ble_init.o
                0x0000000000013cc0                cfg_bt_work_mode
 .sbss          0x0000000000013cc4        0xc Output\obj\project\ble_peripheral\bsp\bsp_uart_transfer.o
 .sbss          0x0000000000013cd0        0x8 Output\obj\project\ble_peripheral\user\user_main.o
                0x0000000000013cd0                user_data
 .sbss.spi_baud_r
                0x0000000000013cd8        0x4 ..\..\libs\cpu\libplatform.a(os_flash.o)
                0x0000000000013cd8                spi_baud_r
 .sbss.spi_baud_w
                0x0000000000013cdc        0x4 ..\..\libs\cpu\libplatform.a(os_flash.o)
                0x0000000000013cdc                spi_baud_w
 .sbss.pmutex_clk
                0x0000000000013ce0        0x4 ..\..\libs\cpu\libplatform.a(startup.o)
                0x0000000000013ce0                pmutex_clk
 .sbss.pmutex_cm
                0x0000000000013ce4        0x4 ..\..\libs\cpu\libplatform.a(startup.o)
                0x0000000000013ce4                pmutex_cm
 .sbss.psem_btstack
                0x0000000000013ce8        0x4 ..\..\libs\cpu\libplatform.a(startup.o)
                0x0000000000013ce8                psem_btstack
 .sbss.soft_timer_isr_en
                0x0000000000013cec        0x4 ..\..\libs\cpu\libplatform.a(startup.o)
                0x0000000000013cec                soft_timer_isr_en
 .sbss.fot_update_success
                0x0000000000013cf0        0x1 ..\..\libs\cpu\libplatform.a(fot_pack.o)
 *fill*         0x0000000000013cf1        0x7 
 .sbss.lock_cb  0x0000000000013cf8        0x8 ..\..\libs\cpu\libplatform.a(lock.o)
 .sbss.sys_trim
                0x0000000000013d00        0x8 ..\..\libs\cpu\libplatform.a(voltage_trim.o)
                0x0000000000013d00                sys_trim
 .sbss          0x0000000000013d08       0x11 ..\..\libs\ble\libbtstack_central.a(sm.o)
 *fill*         0x0000000000013d19        0x3 
 .sbss          0x0000000000013d1c        0x4 ..\..\libs\ble\libbtstack_central.a(gatt_client.o)
 .sbss          0x0000000000013d20        0x4 ..\..\libs\ble\libbtstack_central.a(att_server.o)
 .sbss          0x0000000000013d24        0xc ..\..\libs\ble\libbtstack_central.a(att_dispatch.o)
 .sbss          0x0000000000013d30       0x10 ..\..\libs\ble\libbtstack_central.a(att_db.o)
 .sbss          0x0000000000013d40        0x2 ..\..\libs\ble\libbtstack_central.a(btstack_api.o)
                0x0000000000013d40                btstack_cb
 .sbss          0x0000000000013d42        0x1 ..\..\libs\ble\libbtstack_central.a(ble_api.o)
 *fill*         0x0000000000013d43        0x1 
 .sbss          0x0000000000013d44        0x2 ..\..\libs\ble\libbtstack_central.a(hct_proc.o)
 *fill*         0x0000000000013d46        0x2 
 .sbss          0x0000000000013d48        0x8 ..\..\libs\ble\libbtstack_central.a(ble_buf.o)
 .sbss          0x0000000000013d50        0x1 ..\..\libs\ble\libbtstack_central.a(bb.o)
 *fill*         0x0000000000013d51        0x1 
 .sbss          0x0000000000013d52        0x2 ..\..\libs\ble\libbtstack_central.a(l2cap.o)
 .sbss          0x0000000000013d54        0x4 ..\..\libs\ble\libbtstack_central.a(btstack_memory.o)
 .sbss          0x0000000000013d58        0xc ..\..\libs\ble\libbtstack_central.a(btstack_main.o)
 .sbss          0x0000000000013d64        0x8 ..\..\libs\ble\libbtstack_central.a(bb_sche.o)
                0x0000000000013d64                ss_params
 .sbss          0x0000000000013d6c        0x1 ..\..\libs\ble\libbtstack_central.a(mgr_proc.o)
 *fill*         0x0000000000013d6d        0x3 
 .sbss          0x0000000000013d70        0x2 ..\..\libs\ble\libbtstack_central.a(ll_proc.o)
 *(.buf*)
 *fill*         0x0000000000013d72        0x2 
 .buf.func_cb   0x0000000000013d74        0x2 Output\obj\project\ble_peripheral\app\func.o
                0x0000000000013d74                func_cb
 *fill*         0x0000000000013d76        0x2 
 .buf.bsp.sys_cb
                0x0000000000013d78        0x8 Output\obj\project\ble_peripheral\bsp\bsp_sys.o
                0x0000000000013d78                sys_cb
 *(.ble_cache*)
 .ble_cache.att
                0x0000000000013d80       0x8c Output\obj\project\ble_peripheral\ble\ble_init.o
                0x0000000000013d80                ble_tx_pool
 .ble_cache.att
                0x0000000000013e0c       0x10 ..\..\libs\ble\libbtstack_central.a(txpkt.o)
                0x0000000000013e0c                txpkt_cb
 .ble_cache.sm.addr
                0x0000000000013e1c        0x6 ..\..\libs\ble\libbtstack_central.a(sm.o)
 *fill*         0x0000000000013e22        0x2 
 .ble_cache.sm.aes
                0x0000000000013e24        0x8 ..\..\libs\ble\libbtstack_central.a(sm.o)
 .ble_cache.sm.irk
                0x0000000000013e2c       0x10 ..\..\libs\ble\libbtstack_central.a(sm.o)
 .ble_cache.sm.rand
                0x0000000000013e3c        0x4 ..\..\libs\ble\libbtstack_central.a(sm.o)
 .ble_cache.sm.sta
                0x0000000000013e40        0x8 ..\..\libs\ble\libbtstack_central.a(sm.o)
 *(.ble_buf*)
 .ble_buf.var   0x0000000000013e48        0x2 Output\obj\project\ble_peripheral\ble\ble_init.o
                0x0000000000013e48                ble_cb
 *fill*         0x0000000000013e4a        0x2 
 .ble_buf.att   0x0000000000013e4c       0x28 ..\..\libs\ble\libbtstack_central.a(gatt_client.o)
 *(.fot_data.*)
 *(.tbox.*)
 .tbox.voice_enc_buf
                0x0000000000013e74      0x21c Output\obj\project\ble_peripheral\bsp\bsp_uart_transfer.o
 *(.notch_iir*)
 *(.prod_test*)
 *(.fcc.huart_buf)
 *(.hci.h3*)
                0x0000000000014100                . = ALIGN (0x100)
 *fill*         0x0000000000014090       0x70 
                0x0000000000014100                __bss_end = .
                0x0000000000003500                __bss_size = (__bss_end - __bss_start)

.comm           0x0000000000014100      0xd00 load address 0x0000000010000200
                0x0000000000014100                __comm_start = .
 *(.vector)
 .vector        0x0000000000014100       0xc8 ..\..\libs\cpu\libplatform.a(reset.o)
                0x00000000000141a0                _exception_isr
                0x00000000000141a2                nop_isr
 *(.com_text*)
 .com_text.sleep_tick
                0x00000000000141c8        0x2 Output\obj\project\ble_peripheral\app\func_lowpwr.o
                0x00000000000141c8                lowpwr_tout_ticks
 .com_text.timer
                0x00000000000141ca       0x54 Output\obj\project\ble_peripheral\bsp\bsp_sys.o
                0x00000000000141ca                usr_tmr1ms_isr_callback
                0x00000000000141cc                usr_tmr5ms_callback
 .com_text.isr  0x000000000001421e       0x78 Output\obj\project\ble_peripheral\bsp\bsp_uart_transfer.o
                0x000000000001421e                uart_isr
                0x0000000000014272                uart_timeout_1ms_isr
 .com_text.ble.phy
                0x0000000000014296        0x4 Output\obj\project\ble_peripheral\strong_ble.o
                0x0000000000014296                ble_phy_2M_enable
 .com_text.printf
                0x000000000001429a        0x2 Output\obj\project\ble_peripheral\strong_symbol.o
                0x000000000001429a                uart_debug_putchar
 .com_text.spiflash
                0x000000000001429c       0x1c Output\obj\project\ble_peripheral\strong_symbol.o
                0x000000000001429c                os_spiflash_addr_check
 .com_text.spiflash
                0x00000000000142b8       0x90 ..\..\libs\cpu\libplatform.a(os_flash.o)
                0x00000000000142bc                os_spiflash_addr_check_2
                0x00000000000142f2                os_spiflash_program
                0x0000000000014324                os_spiflash_erase
 .com_text.delay
                0x0000000000014348       0x54 ..\..\libs\cpu\libplatform.a(main.o)
                0x0000000000014348                delay_5ms
                0x0000000000014362                delay_ms
                0x000000000001437a                delay_us
                0x0000000000014392                delay
 .com_text.irq  0x000000000001439c       0x70 ..\..\libs\cpu\libplatform.a(interrupt.o)
                0x000000000001439c                tick0_isr
                0x00000000000143f2                tick_get
                0x00000000000143fa                tick_check_expire
 .com_text.trim.lvd_set
                0x000000000001440c       0x3e ..\..\libs\cpu\libplatform.a(pmu.o)
                0x000000000001440c                pmu_set_lvd
                0x0000000000014438                pmu_set_vbg
 .com_text.patch
                0x000000000001444a        0xa ..\..\libs\cpu\libplatform.a(reset.o)
                0x000000000001444a                spiflash_erase_patch
 .com_text.spiflash.erase
                0x0000000000014454       0x34 ..\..\libs\cpu\libplatform.a(spiflash.o)
                0x0000000000014454                spiflash_erase_patch_do
 .com_text.exception
                0x0000000000014488        0xa ..\..\libs\cpu\libplatform.a(debug.o)
                0x0000000000014488                exception_isr
 .com_text.exception.hook
                0x0000000000014492        0x4 ..\..\libs\cpu\libplatform.a(debug.o)
                0x0000000000014492                sys_error_hook
 .com_text.sys  0x0000000000014496        0x2 ..\..\libs\cpu\libplatform.a(s_sys.o)
                0x0000000000014496                dummy_func
 .com_text.stack.run_loop
                0x0000000000014498        0x4 ..\..\libs\cpu\libplatform.a(weak_symbol.o)
                0x000000000001449a                thread_nanos_task_execute
 .com_text.stack.api
                0x000000000001449c       0x24 ..\..\libs\cpu\libplatform.a(bt.o)
                0x000000000001449c                ble_send_msg_do
 .com_text.stack.thread
                0x00000000000144c0       0x32 ..\..\libs\cpu\libplatform.a(bt.o)
                0x00000000000144c0                thread_btstack_pend
                0x00000000000144e2                thread_btstack_post
 .com_text.stack.run_loop
                0x00000000000144f2       0x3a ..\..\libs\cpu\libplatform.a(bt.o)
                0x00000000000144f2                thread_btstack_entry
 .com_text.stack.hci.conn
                0x000000000001452c        0x8 ..\..\libs\ble\libbtstack_central.a(hci.o)
                0x000000000001452c                hci_get_connections
 .com_text.stack.hci
                0x0000000000014534       0x3a ..\..\libs\ble\libbtstack_central.a(hci.o)
                0x0000000000014534                hci_connection_for_handle
                0x0000000000014556                hci_att_connection_for_handle
                0x0000000000014566                hci_get_outgoing_packet_buffer
 .com_text.hci  0x000000000001456e        0x4 ..\..\libs\ble\libbtstack_central.a(hci_transport_h3_controller.o)
                0x000000000001456e                hci_is_sleep
 .com_text.stack.ticks
                0x0000000000014572        0xa ..\..\libs\ble\libbtstack_central.a(btstack_hal.o)
                0x0000000000014574                sys_tick_handler
 .com_text.isr  0x000000000001457c       0x24 ..\..\libs\ble\libbtstack_central.a(btstack_hal.o)
                0x000000000001457c                bt_timer_isr
 .com_text.stack.api
                0x00000000000145a0       0x62 ..\..\libs\ble\libbtstack_central.a(btstack_api.o)
                0x00000000000145a0                ble_get_status
                0x00000000000145ac                btstack_message
 .com_text.txpkt.list.push_back
                0x0000000000014602        0xa ..\..\libs\ble\libbtstack_central.a(txpkt.o)
                0x0000000000014602                txpkt_list_push_back
 .com_text.bb.dbg.ble
                0x000000000001460c        0x4 ..\..\libs\ble\libbtstack_central.a(platform.o)
                0x000000000001460c                bb_ll_tx_cb
                0x000000000001460e                bb_ll_rx_cb
 .com_text.bb.utils.dummy
                0x0000000000014610        0x6 ..\..\libs\ble\libbtstack_central.a(platform.o)
                0x0000000000014610                dummy_void
                0x0000000000014612                dummy_false
 .com_text.bb.isr.rssi
                0x0000000000014616        0xa ..\..\libs\ble\libbtstack_central.a(rf.o)
                0x0000000000014616                rf_rssi_calc_dbm
 .com_text.bb.rf
                0x0000000000014620       0x26 ..\..\libs\ble\libbtstack_central.a(rf.o)
                0x0000000000014620                rf_hal_init
 .com_text.bb.buf
                0x0000000000014646       0x24 ..\..\libs\ble\libbtstack_central.a(hct_proc.o)
                0x0000000000014646                hct_block_is_reserved
 .com_text.ble.isr.con.end
                0x000000000001466a       0x9a ..\..\libs\ble\libbtstack_central.a(ble_con.o)
                0x000000000001466a                ble_con_rx_end
 .com_text.ble.isr.con.rx_desc
                0x0000000000014704        0x2 ..\..\libs\ble\libbtstack_central.a(ble_con.o)
                0x0000000000014704                ble_con_rx_desc
 .com_text.bb.buf
                0x0000000000014706       0xbc ..\..\libs\ble\libbtstack_central.a(ble_buf.o)
                0x0000000000014706                ble_buf_acl_tx_alloc
                0x0000000000014750                ble_buf_acl_tx_free_do
                0x0000000000014762                ble_buf_acl_tx_free
 .com_text.bb.patch
                0x00000000000147c2       0x24 ..\..\libs\ble\libbtstack_central.a(ble_buf.o)
                0x00000000000147c2                bb_patch1
                0x00000000000147c4                bb_patch3
 .com_text.bb.isr
                0x00000000000147e6       0x7c ..\..\libs\ble\libbtstack_central.a(bb_int.o)
                0x0000000000014818                bb_isr
                0x0000000000014856                bb_hal_isr
 .com_text.bb.run_loop
                0x0000000000014862       0x30 ..\..\libs\ble\libbtstack_central.a(bb.o)
                0x0000000000014862                bb_run_loop
 .com_text.stack.run_loop
                0x0000000000014892       0x74 ..\..\libs\ble\libbtstack_central.a(btstack_run_loop.o)
                0x0000000000014892                btstack_cmp_abs_tick
                0x0000000000014898                btstack_run_loop_execute_once
 .com_text.ret.stack.thread
                0x0000000000014906        0xa ..\..\libs\ble\libbtstack_central.a(btstack_run_loop.o)
                0x0000000000014906                btstack_run_loop_embedded_trigger
 .com_text.stack.ticks
                0x0000000000014910       0x1e ..\..\libs\ble\libbtstack_central.a(btstack_run_loop.o)
 .com_text.bb.nanos.trigger
                0x000000000001492e        0x2 ..\..\libs\ble\libbtstack_central.a(btstack_run_loop.o)
                0x000000000001492e                thread_nanos_task_trigger
 .com_text.stack.handler
                0x0000000000014930       0x1e ..\..\libs\ble\libbtstack_central.a(btstack_main.o)
 .com_text.md.nanos
                0x000000000001494e       0x14 ..\..\libs\ble\libbtstack_central.a(nanos.o)
                0x000000000001494e                nanos_event_set
 .com_text.nanos.malloc
                0x0000000000014962        0xc ..\..\libs\ble\libbtstack_central.a(nanos.o)
                0x0000000000014962                nanos_sys_malloc
 .com_text.nanos.free
                0x000000000001496e        0xa ..\..\libs\ble\libbtstack_central.a(nanos.o)
                0x000000000001496e                nanos_sys_free
 .com_text.bb.frag
                0x0000000000014978       0x2a ..\..\libs\ble\libbtstack_central.a(bb_sche.o)
 .com_text.bb.prog
                0x00000000000149a2       0x30 ..\..\libs\ble\libbtstack_central.a(bb_sche.o)
 .com_text.ble.isr.con.end
                0x00000000000149d2       0x18 ..\..\libs\ble\libbtstack_central.a(patch.o)
                0x00000000000149d2                bb_patch2_do
 .com_text.bb.isr
                0x00000000000149ea        0xe ..\..\libs\ble\libbtstack_central.a(bb_clk.o)
                0x00000000000149ea                bb_lpcycles_2_hus_hook
 .com_text.ble.isr
                0x00000000000149f8       0xac ..\..\libs\ble\libbtstack_central.a(ble_hook.o)
                0x00000000000149f8                ble_isr_hook
 .com_text.bb.isr
                0x0000000000014aa4       0x34 ..\..\libs\ble\libbtstack_central.a(ble.o)
                0x0000000000014aa4                ble_isr
 .com_text.bb.isr.timer
                0x0000000000014ad8       0x50 ..\..\libs\ble\libbtstack_central.a(bb_alarm.o)
 .com_text.bb.patch
                0x0000000000014b28       0x1a ..\..\libs\ble\libbtstack_central.a(patch_asm.o)
                0x0000000000014b28                bb_patch2
 .com_text.bb.patch.trc
                0x0000000000014b42       0x1e ..\..\libs\ble\libbtstack_central.a(patch_asm.o)
                0x0000000000014b42                ll_cntl_tx_check_fix_cb
 *(.com_rodata*)
 .com_rodata.bb.tbl
                0x0000000000014b60        0xc ..\..\libs\ble\libbtstack_central.a(hct_proc.o)
 .com_rodata.bb.tbl
                0x0000000000014b6c       0x18 ..\..\libs\ble\libbtstack_central.a(ble_buf.o)
 .com_rodata.bb.tbl
                0x0000000000014b84       0x10 ..\..\libs\ble\libbtstack_central.a(bb_utils.o)
                0x0000000000014b84                bb_sca2ppm
 .com_rodata.bb.tbl.bits
                0x0000000000014b94       0x10 ..\..\libs\ble\libbtstack_central.a(bb_utils.o)
                0x0000000000014b94                one_bits
 .com_rodata.bb.tbl.i2m
                0x0000000000014ba4        0x4 ..\..\libs\ble\libbtstack_central.a(bb_utils.o)
                0x0000000000014ba4                bb_phy_value_to_mask
 .com_rodata.bb.tbl.phy.i2r
                0x0000000000014ba8        0x4 ..\..\libs\ble\libbtstack_central.a(bb_utils.o)
                0x0000000000014ba8                bb_phy_to_rate
 .com_rodata.bb.tbl.phy.m2i
                0x0000000000014bac        0x5 ..\..\libs\ble\libbtstack_central.a(bb_utils.o)
                0x0000000000014bac                bb_phy_mask_to_value
 *fill*         0x0000000000014bb1        0x3 
 .com_rodata.bb.tbl.phy.r2i
                0x0000000000014bb4        0x5 ..\..\libs\ble\libbtstack_central.a(bb_utils.o)
                0x0000000000014bb4                bb_rate_to_phy
 *fill*         0x0000000000014bb9        0x3 
 .com_rodata.bb.err
                0x0000000000014bbc        0xd ..\..\libs\ble\libbtstack_central.a(bb_int.o)
                0x0000000000014bbc                str_bb_err
 *fill*         0x0000000000014bc9        0x3 
 .com_rodata.bb.tbl
                0x0000000000014bcc       0x16 ..\..\libs\ble\libbtstack_central.a(bb.o)
                0x0000000000014bcc                bb_priority
 *fill*         0x0000000000014be2        0x2 
 .com_rodata.bb.tbl
                0x0000000000014be4        0xc ..\..\libs\ble\libbtstack_central.a(mgr_proc.o)
                0x0000000000014be4                mgr_msg_env
 .com_rodata.bb.tbl
                0x0000000000014bf0        0xc ..\..\libs\ble\libbtstack_central.a(ll_proc.o)
                0x0000000000014bf0                ll_msg_env
 .com_rodata.bb.err
                0x0000000000014bfc        0xf ..\..\libs\ble\libbtstack_central.a(ble.o)
                0x0000000000014bfc                str_ble_err
 *fill*         0x0000000000014c0b        0x1 
 .com_rodata.bb.tbl
                0x0000000000014c0c        0xc ..\..\libs\ble\libbtstack_central.a(vs_proc.o)
                0x0000000000014c0c                vs_msg_env
 *debug.o(.rodata*)
 *(.com_periph.*)
 .com_periph.uart.send
                0x0000000000014c18        0x8 Output\obj\driver\driver_uart.o
                0x0000000000014c18                uart_send_data
 .com_periph.uart.recv
                0x0000000000014c20       0x14 Output\obj\driver\driver_uart.o
                0x0000000000014c20                uart_receive_data
 .com_periph.uart.get_flag
                0x0000000000014c34       0x18 Output\obj\driver\driver_uart.o
                0x0000000000014c34                uart_get_flag
 .com_periph.uart.clear_flag
                0x0000000000014c4c       0x2a Output\obj\driver\driver_uart.o
                0x0000000000014c4c                uart_clear_flag
 .com_periph.uart.send
                0x0000000000014c76       0x32 Output\obj\project\ble_peripheral\bsp\bsp_uart_transfer.o
                0x0000000000014c76                uart_transfer_tx_buff
 *(.data*)
 .data          0x0000000000014ca8       0x28 ..\..\libs\ble\libbtstack_central.a(rf_mate.o)
                0x0000000000014cb4                rf_init_cb
 *(.sdata*)
 .sdata         0x0000000000014cd0        0x1 Output\obj\project\ble_peripheral\strong_symbol.o
                0x0000000000014cd0                cfg_spiflash_speed_up_en
 *fill*         0x0000000000014cd1        0x3 
 .sdata.cpu_gprs
                0x0000000000014cd4        0x4 ..\..\libs\cpu\libplatform.a(debug.o)
                0x0000000000014cd4                cpu_gprs
 .sdata         0x0000000000014cd8        0xc ..\..\libs\ble\libbtstack_central.a(btstack_hal.o)
 .sdata         0x0000000000014ce4        0x1 ..\..\libs\ble\libbtstack_central.a(rf_mate.o)
 *(.notch_iir_text*)
                0x0000000000014e00                . = ALIGN (0x200)
 *fill*         0x0000000000014ce5      0x11b 
                0x0000000000014e00                __comm_end = .
                0x0000000000000d00                __comm_size = (__comm_end - __comm_start)

.pdn_comm       0x0000000000010c00      0x200 load address 0x0000000010000f00
 *(.com_pwroff*)
 .com_pwroff.mode2
                0x0000000000010c00      0x188 Output\obj\driver\driver_lowpwr.o
                0x0000000000010c00                pwroff_mode2_final
                0x0000000000010c9a                lowpwr_pwroff_mode2_do
                0x0000000000010e00                . = ALIGN (0x200)
 *fill*         0x0000000000010d88       0x78 

.flash          0x0000000010001200    0x12800
                0x0000000010001200                __code_start_app_proc = .
 *(.text.app.proc.*)
 .text.app.proc.func
                0x0000000010001200       0x18 Output\obj\project\ble_peripheral\app\func.o
                0x0000000010001200                func_process
 .text.app.proc.msg
                0x0000000010001218        0x8 Output\obj\project\ble_peripheral\app\func_bt.o
                0x0000000010001218                func_bt_message
 .text.app.proc.bt
                0x0000000010001220        0xe Output\obj\project\ble_peripheral\app\func_bt.o
                0x0000000010001220                func_bt_sub_process
                0x0000000010001222                func_bt_process
 .text.app.proc.ble
                0x000000001000122e        0x2 Output\obj\project\ble_peripheral\ble\ble_proc.o
                0x000000001000122e                ble_app_proc
 .text.app.proc.test
                0x0000000010001230        0x2 Output\obj\project\ble_peripheral\prod_test\prod_test.o
                0x0000000010001230                prod_test_process
                0x0000000010001400                . = ALIGN (0x200)
 *fill*         0x0000000010001232      0x1ce 
                0x0000000010001400                __code_end_app_proc = .
                0x0000000010001400                __code_start_stack_send = .
 *(.text.stack.send.*)
 .text.stack.send.txpkt
                0x0000000010001400      0x1de ..\..\libs\ble\libbtstack_central.a(txpkt.o)
                0x0000000010001400                txpkt_send
                0x00000000100014c2                txpkt_event_send
                0x00000000100014f6                txpkt_server_send_tick
                0x0000000010001504                txpkt_client_send_tick
 .text.stack.send.hci
                0x00000000100015de       0xe6 ..\..\libs\ble\libbtstack_central.a(hci.o)
                0x0000000010001680                hci_send_acl_packet_buffer
 .text.stack.send.ntf_do
                0x00000000100016c4       0x4e ..\..\libs\ble\libbtstack_central.a(gatt_server.o)
 .text.stack.send.ntf
                0x0000000010001712       0x16 ..\..\libs\ble\libbtstack_central.a(gatt_server.o)
                0x0000000010001712                ble_send_notify_packet
                0x0000000010001724                ble_notify_for_handle
 .text.stack.send.server
                0x0000000010001728       0x8c ..\..\libs\ble\libbtstack_central.a(gatt_server.o)
                0x0000000010001728                att_event_server_txpkt_send
                0x000000001000179c                btstack_ble_server_send_req
 .text.stack.send.client
                0x00000000100017b4       0x6e ..\..\libs\ble\libbtstack_central.a(gatt_client.o)
                0x00000000100017b4                att_event_client_txpkt_send
 .text.stack.send.server
                0x0000000010001822       0x1e ..\..\libs\ble\libbtstack_central.a(att_server.o)
                0x0000000010001822                att_server_request_can_send_now_event
 .text.stack.send.ntf
                0x0000000010001840       0x52 ..\..\libs\ble\libbtstack_central.a(att_server.o)
                0x0000000010001840                att_server_notify
 .text.stack.send.dispatch_server
                0x0000000010001892        0xc ..\..\libs\ble\libbtstack_central.a(att_dispatch.o)
                0x0000000010001892                att_dispatch_server_request_can_send_now_event
 .text.stack.send.ntf
                0x000000001000189e       0x3e ..\..\libs\ble\libbtstack_central.a(att_db.o)
                0x000000001000189e                att_prepare_handle_value_notification
 .text.stack.send.kick
                0x00000000100018dc       0x1a ..\..\libs\ble\libbtstack_central.a(ble_api.o)
                0x00000000100018dc                ble_send_kick
 .text.stack.send.l2cap
                0x00000000100018f6       0x6e ..\..\libs\ble\libbtstack_central.a(l2cap.o)
                0x00000000100018f6                l2cap_request_can_send_fix_channel_now_event
                0x000000001000191c                l2cap_send_prepared_connectionless
 .text.stack.send.acl
                0x0000000010001964       0xe0 ..\..\libs\ble\libbtstack_central.a(ll_proc.o)
                0x0000000010001964                hci_acl_data_func
                0x0000000010001c00                . = ALIGN (0x200)
 *fill*         0x0000000010001a44      0x1bc 
                0x0000000010001c00                __code_end_stack_send = .
                0x0000000010001c00                __code_start_sleep_send = .
 *(.com_sleep*)
 .com_sleep.rf.txpwr
                0x0000000010001c00        0x8 Output\obj\project\ble_peripheral\strong_ble.o
                0x0000000010001c00                bt_rf_get_tx_pwr
 .com_sleep.bb.putc
                0x0000000010001c08        0x2 ..\..\libs\ble\libbtstack_central.a(bb_dbg.o)
                0x0000000010001c08                bb_dbg_init
 .com_sleep.rfphy
                0x0000000010001c0a        0x4 ..\..\libs\ble\libbtstack_central.a(extern.o)
                0x0000000010001c0a                ble_rf_fix_poor_tx_mod_enable
 .com_sleep.rfphy
                0x0000000010001c0e      0x102 ..\..\libs\ble\libbtstack_central.a(rf_mate.o)
                0x0000000010001c8a                rfphy_txrx_init
 .com_sleep.rfphy.init
                0x0000000010001d10       0x6a ..\..\libs\ble\libbtstack_central.a(rf_mate.o)
                0x0000000010001d10                rfphy_init
 .com_sleep.rf  0x0000000010001d7a       0x36 ..\..\libs\ble\libbtstack_central.a(rf_mate.o)
                0x0000000010001d7a                modem_init
                0x0000000010001e00                . = ALIGN (0x200)
 *fill*         0x0000000010001db0       0x50 
                0x0000000010001e00                __code_end_sleep_send = .
 *(.text*)
 .text.clk_gate0_cmd
                0x0000000010001e00       0x16 Output\obj\driver\driver_clk.o
                0x0000000010001e00                clk_gate0_cmd
 .text.clk_uart_clk_set
                0x0000000010001e16       0x16 Output\obj\driver\driver_clk.o
                0x0000000010001e16                clk_uart_clk_set
 .text.clk_uart_clk_get
                0x0000000010001e2c       0x32 Output\obj\driver\driver_clk.o
                0x0000000010001e2c                clk_uart_clk_get
 .text.gpio_init
                0x0000000010001e5e      0x13a Output\obj\driver\driver_gpio.o
                0x0000000010001e5e                gpio_init
 .text.gpio_func_mapping_config
                0x0000000010001f98       0xac Output\obj\driver\driver_gpio.o
                0x0000000010001f98                gpio_func_mapping_config
 .text.wko_io_config
                0x0000000010002044       0x3e Output\obj\driver\driver_gpio.o
                0x0000000010002044                wko_io_config
 .text.wk0_edge_capture_config
                0x0000000010002082       0x60 Output\obj\driver\driver_gpio.o
                0x0000000010002082                wk0_edge_capture_config
 .text.gpio_edge_capture_config
                0x00000000100020e2       0xd4 Output\obj\driver\driver_gpio.o
                0x00000000100020e2                gpio_edge_capture_config
 .text.lowpwr_get_wakeup_source
                0x00000000100021b6       0x88 Output\obj\driver\driver_lowpwr.o
                0x00000000100021b6                lowpwr_get_wakeup_source
 .text.lowpwr_wakeup_disable
                0x000000001000223e       0x38 Output\obj\driver\driver_lowpwr.o
                0x000000001000223e                lowpwr_wakeup_disable
 .text.lowpwr_wk0_wakeup_config
                0x0000000010002276       0x72 Output\obj\driver\driver_lowpwr.o
                0x0000000010002276                lowpwr_wk0_wakeup_config
 .text.lowpwr_gpio_wakeup_config
                0x00000000100022e8       0x3c Output\obj\driver\driver_lowpwr.o
                0x00000000100022e8                lowpwr_gpio_wakeup_config
 .text.lowpwr_wakeup_config
                0x0000000010002324       0xd8 Output\obj\driver\driver_lowpwr.o
                0x0000000010002324                lowpwr_wakeup_config
 .text.saradc_deinit
                0x00000000100023fc       0xca Output\obj\driver\driver_saradc.o
                0x00000000100023fc                saradc_deinit
 .text.uart_init
                0x00000000100024c6       0x46 Output\obj\driver\driver_uart.o
                0x00000000100024c6                uart_init
 .text.uart_cmd
                0x000000001000250c       0x10 Output\obj\driver\driver_uart.o
                0x000000001000250c                uart_cmd
 .text.uart_pic_config
                0x000000001000251c       0x50 Output\obj\driver\driver_uart.o
                0x000000001000251c                uart_pic_config
 .text.func.msg
                0x000000001000256c        0x2 Output\obj\project\ble_peripheral\app\func.o
                0x000000001000256c                func_message
 .text.func     0x000000001000256e       0x40 Output\obj\project\ble_peripheral\app\func.o
                0x000000001000256e                func_enter
                0x0000000010002570                func_exit
                0x000000001000257a                func_run
 .text.func.msg
                0x00000000100025ae        0xc Output\obj\project\ble_peripheral\app\func_bt.o
                0x00000000100025ae                func_bt_message_do
 .text.func.bt  0x00000000100025ba       0x52 Output\obj\project\ble_peripheral\app\func_bt.o
                0x00000000100025ba                func_bt_init
                0x00000000100025bc                func_bt_enter
                0x00000000100025ce                func_bt_exit
                0x00000000100025e6                func_bt
 .text.func.idle.msg
                0x000000001000260c        0xc Output\obj\project\ble_peripheral\app\func_idle.o
                0x000000001000260c                func_idle_message
 .text.func.idle
                0x0000000010002618       0x2c Output\obj\project\ble_peripheral\app\func_idle.o
                0x0000000010002618                func_idle_process
                0x000000001000261c                func_idle
 .text.lowpwr_pwroff_wakeup_config
                0x0000000010002644       0x1a Output\obj\project\ble_peripheral\app\func_lowpwr.o
                0x0000000010002644                lowpwr_pwroff_wakeup_config
 .text.lowpwr.pwroff
                0x000000001000265e       0x30 Output\obj\project\ble_peripheral\app\func_lowpwr.o
                0x000000001000265e                func_pwroff
 .text.ble_att_read_callback
                0x000000001000268e        0x4 Output\obj\project\ble_peripheral\ble\ble_client.o
 .text.ble_client_event_callback
                0x0000000010002692      0x304 Output\obj\project\ble_peripheral\ble\ble_client.o
                0x0000000010002692                ble_client_event_callback
 .text.ble_client_notify_callback
                0x0000000010002996       0x16 Output\obj\project\ble_peripheral\ble\ble_client.o
 .text.ble_client_init
                0x00000000100029ac       0x2c Output\obj\project\ble_peripheral\ble\ble_client.o
                0x00000000100029ac                ble_client_init
 .text.ble_set_work_mode
                0x00000000100029d8        0x8 Output\obj\project\ble_peripheral\ble\ble_init.o
                0x00000000100029d8                ble_set_work_mode
 .text.ble_txpkt_init
                0x00000000100029e0        0xe Output\obj\project\ble_peripheral\ble\ble_init.o
                0x00000000100029e0                ble_txpkt_init
 .text.ble_scan_param_init
                0x00000000100029ee       0x2c Output\obj\project\ble_peripheral\ble\ble_init.o
                0x00000000100029ee                ble_scan_param_init
 .text.ble_central_init
                0x0000000010002a1a       0x18 Output\obj\project\ble_peripheral\ble\ble_init.o
                0x0000000010002a1a                ble_central_init
 .text.bsp_ble_init
                0x0000000010002a32       0x22 Output\obj\project\ble_peripheral\ble\ble_init.o
                0x0000000010002a32                bsp_ble_init
 .text.service_notify_event
                0x0000000010002a54       0x42 Output\obj\project\ble_peripheral\ble\ble_user_service.o
                0x0000000010002a54                service_notify_event
 .text.bsp.param
                0x0000000010002a96       0x18 Output\obj\project\ble_peripheral\bsp\bsp_param.o
                0x0000000010002a96                bsp_param_init
                0x0000000010002aa2                bsp_param_write
                0x0000000010002aa6                bsp_param_read
                0x0000000010002aaa                bsp_param_sync
 .text.sys_ram_info_dump
                0x0000000010002aae        0x2 Output\obj\project\ble_peripheral\bsp\bsp_sys.o
                0x0000000010002aae                sys_ram_info_dump
 .text.bsp.sys.init
                0x0000000010002ab0       0x88 Output\obj\project\ble_peripheral\bsp\bsp_sys.o
                0x0000000010002ab0                bsp_sys_init
 .text.ble_notify_buff_write_byte
                0x0000000010002b38       0x22 Output\obj\project\ble_peripheral\bsp\bsp_uart_transfer.o
 .text.uart_cmd_buff_write_byte
                0x0000000010002b5a       0x22 Output\obj\project\ble_peripheral\bsp\bsp_uart_transfer.o
                0x0000000010002b5a                uart_cmd_buff_write_byte
 .text.uart_cmd_buff_read_last_byte
                0x0000000010002b7c       0x1c Output\obj\project\ble_peripheral\bsp\bsp_uart_transfer.o
                0x0000000010002b7c                uart_cmd_buff_read_last_byte
 .text.uart_cmd_buff_error
                0x0000000010002b98       0x34 Output\obj\project\ble_peripheral\bsp\bsp_uart_transfer.o
                0x0000000010002b98                uart_cmd_buff_error
 .text.uart_send_cmd
                0x0000000010002bcc      0x106 Output\obj\project\ble_peripheral\bsp\bsp_uart_transfer.o
                0x0000000010002bcc                uart_send_cmd
 .text.uart_transfer_init
                0x0000000010002cd2       0xc4 Output\obj\project\ble_peripheral\bsp\bsp_uart_transfer.o
                0x0000000010002cd2                uart_transfer_init
 .text.uart_transfer_rx_event
                0x0000000010002d96      0x13e Output\obj\project\ble_peripheral\bsp\bsp_uart_transfer.o
                0x0000000010002d96                uart_transfer_rx_event
 .text.startup.main
                0x0000000010002ed4       0x32 Output\obj\project\ble_peripheral\main.o
                0x0000000010002ed4                main
 .text.prod_test_init
                0x0000000010002f06        0x2 Output\obj\project\ble_peripheral\prod_test\prod_test.o
                0x0000000010002f06                prod_test_init
 .text.hci_fcc_init
                0x0000000010002f08        0x2 Output\obj\project\ble_peripheral\strong_ble.o
                0x0000000010002f08                hci_fcc_init
 .text.bt_uart_isr
                0x0000000010002f0a        0x4 Output\obj\project\ble_peripheral\strong_ble.o
                0x0000000010002f0a                bt_uart_isr
 .text.ble_sm_client_event_do
                0x0000000010002f0e        0x2 Output\obj\project\ble_peripheral\strong_ble.o
                0x0000000010002f0e                ble_sm_client_event_do
 .text.sm_send_security_request
                0x0000000010002f10        0x2 Output\obj\project\ble_peripheral\strong_ble.o
                0x0000000010002f10                sm_send_security_request
 .text.sm_request_pairing
                0x0000000010002f12        0x2 Output\obj\project\ble_peripheral\strong_ble.o
                0x0000000010002f12                sm_request_pairing
 .text.sm_passkey_input
                0x0000000010002f14        0x2 Output\obj\project\ble_peripheral\strong_ble.o
                0x0000000010002f14                sm_passkey_input
 .text.sm_passkey_input_get
                0x0000000010002f16        0x4 Output\obj\project\ble_peripheral\strong_ble.o
                0x0000000010002f16                sm_passkey_input_get
 .text.ble_get_local_bd_addr
                0x0000000010002f1a       0x14 Output\obj\project\ble_peripheral\strong_ble.o
                0x0000000010002f1a                ble_get_local_bd_addr
 .text.bt_rf_get_param
                0x0000000010002f2e       0x16 Output\obj\project\ble_peripheral\strong_ble.o
                0x0000000010002f2e                bt_rf_get_param
 .text.ble_get_link_info
                0x0000000010002f44        0x6 Output\obj\project\ble_peripheral\strong_ble.o
                0x0000000010002f44                ble_get_link_info
 .text.ble_put_link_info
                0x0000000010002f4a       0x10 Output\obj\project\ble_peripheral\strong_ble.o
                0x0000000010002f4a                ble_put_link_info
 .text.ble_mtu_exchange_enabled
                0x0000000010002f5a        0x4 Output\obj\project\ble_peripheral\strong_ble.o
                0x0000000010002f5a                ble_mtu_exchange_enabled
 .text.ble_sm_pairing_support
                0x0000000010002f5e        0x4 Output\obj\project\ble_peripheral\strong_ble.o
                0x0000000010002f5e                ble_sm_pairing_support
 .text.ble_rx_exit_sleep
                0x0000000010002f62        0x4 Output\obj\project\ble_peripheral\strong_ble.o
                0x0000000010002f62                ble_rx_exit_sleep
 .text.ble_feature_exchange_enabled
                0x0000000010002f66        0x4 Output\obj\project\ble_peripheral\strong_ble.o
                0x0000000010002f66                ble_feature_exchange_enabled
 .text.ble_length_request_enabled
                0x0000000010002f6a        0x4 Output\obj\project\ble_peripheral\strong_ble.o
                0x0000000010002f6a                ble_length_request_enabled
 .text.ble_phy_update_enable
                0x0000000010002f6e        0x4 Output\obj\project\ble_peripheral\strong_ble.o
                0x0000000010002f6e                ble_phy_update_enable
 .text.mem_heap_size_get
                0x0000000010002f72        0x8 Output\obj\project\ble_peripheral\strong_symbol.o
                0x0000000010002f72                mem_heap_size_get
 .text.thread_cfg_get
                0x0000000010002f7a        0xa Output\obj\project\ble_peripheral\strong_symbol.o
                0x0000000010002f7a                thread_cfg_get
 .text.thread_create_callback
                0x0000000010002f84        0x4 Output\obj\project\ble_peripheral\strong_symbol.o
                0x0000000010002f84                thread_create_callback
 .text.xosc_get_xcfg
                0x0000000010002f88       0x20 Output\obj\project\ble_peripheral\strong_symbol.o
                0x0000000010002f88                xosc_get_xcfg
 .text.param_xosc_read
                0x0000000010002fa8        0x8 Output\obj\project\ble_peripheral\strong_symbol.o
                0x0000000010002fa8                param_xosc_read
 .text.sys_clk_change_callback
                0x0000000010002fb0        0x2 Output\obj\project\ble_peripheral\strong_symbol.o
                0x0000000010002fb0                sys_clk_change_callback
 .text.uart_debug_init_callback
                0x0000000010002fb2        0xc Output\obj\project\ble_peripheral\strong_symbol.o
                0x0000000010002fb2                uart_debug_init_callback
 .text.user_data_write
                0x0000000010002fbe       0x1a Output\obj\project\ble_peripheral\user\user_main.o
                0x0000000010002fbe                user_data_write
 .text.user_data_read
                0x0000000010002fd8       0x4a Output\obj\project\ble_peripheral\user\user_main.o
                0x0000000010002fd8                user_data_read
 .text.ble_scan_re_en_delay_set
                0x0000000010003022       0x26 Output\obj\project\ble_peripheral\user\user_main.o
                0x0000000010003022                ble_scan_re_en_delay_set
 .text.delay_check
                0x0000000010003048       0x2e Output\obj\project\ble_peripheral\user\user_main.o
                0x0000000010003048                delay_check
 .text.user_init
                0x0000000010003076        0x2 Output\obj\project\ble_peripheral\user\user_main.o
                0x0000000010003076                user_init
 .text.user_main
                0x0000000010003078        0x2 Output\obj\project\ble_peripheral\user\user_main.o
                0x0000000010003078                user_main
 .text.cm_loadpage
                0x000000001000307a       0xb0 ..\..\libs\cpu\libplatform.a(cm.o)
 .text.cm_next_freepage
                0x000000001000312a       0x54 ..\..\libs\cpu\libplatform.a(cm.o)
 .text.cm_loadparam
                0x000000001000317e        0x4 ..\..\libs\cpu\libplatform.a(cm.o)
                0x000000001000317e                cm_loadparam
 .text.cm_factory
                0x0000000010003182        0xa ..\..\libs\cpu\libplatform.a(cm.o)
                0x0000000010003182                cm_factory
 .text.cm_addr_check
                0x000000001000318c        0x4 ..\..\libs\cpu\libplatform.a(cm.o)
                0x000000001000318c                cm_addr_check
 .text.cm_writepage
                0x0000000010003190       0x28 ..\..\libs\cpu\libplatform.a(cm.o)
 .text.cm_movepage
                0x00000000100031b8       0x50 ..\..\libs\cpu\libplatform.a(cm.o)
 .text.cm_erase
                0x0000000010003208       0x1c ..\..\libs\cpu\libplatform.a(cm.o)
 .text.cm_release
                0x0000000010003224       0xfa ..\..\libs\cpu\libplatform.a(cm.o)
 .text.cm_savepage
                0x000000001000331e       0xda ..\..\libs\cpu\libplatform.a(cm.o)
 .text.cm_check_loadpage
                0x00000000100033f8       0xb0 ..\..\libs\cpu\libplatform.a(cm.o)
 .text.cm_sync  0x00000000100034a8       0x3e ..\..\libs\cpu\libplatform.a(cm.o)
                0x00000000100034a8                cm_sync
 .text.cm_read  0x00000000100034e6       0x42 ..\..\libs\cpu\libplatform.a(cm.o)
                0x00000000100034e6                cm_read
 .text.cm_write
                0x0000000010003528       0x5e ..\..\libs\cpu\libplatform.a(cm.o)
                0x0000000010003528                cm_write
 .text.cm_init  0x0000000010003586      0x1e4 ..\..\libs\cpu\libplatform.a(cm.o)
                0x0000000010003586                cm_init
 .text.xcfg_init
                0x000000001000376a       0x4c ..\..\libs\cpu\libplatform.a(xcfg.o)
                0x000000001000376a                xcfg_init
 .text.platform_main
                0x00000000100037b6      0x154 ..\..\libs\cpu\libplatform.a(main.o)
                0x00000000100037b6                platform_main
 .text.main_startup
                0x000000001000390a        0xe ..\..\libs\cpu\libplatform.a(main.o)
                0x000000001000390a                main_startup
 .text.register_isr
                0x0000000010003918       0x38 ..\..\libs\cpu\libplatform.a(interrupt.o)
                0x0000000010003918                register_isr
 .text.sys_irq_init
                0x0000000010003950       0x8a ..\..\libs\cpu\libplatform.a(interrupt.o)
                0x0000000010003950                sys_irq_init
 .text.soft_irq_init
                0x00000000100039da       0x44 ..\..\libs\cpu\libplatform.a(interrupt.o)
                0x00000000100039da                soft_irq_init
 .text.bthw_irq_init
                0x0000000010003a1e        0xe ..\..\libs\cpu\libplatform.a(interrupt.o)
                0x0000000010003a1e                bthw_irq_init
 .text.sys_timer_init
                0x0000000010003a2c       0x5e ..\..\libs\cpu\libplatform.a(interrupt.o)
                0x0000000010003a2c                sys_timer_init
 .text.thread_btstack_create
                0x0000000010003a8a       0x82 ..\..\libs\cpu\libplatform.a(startup.o)
                0x0000000010003a8a                thread_btstack_create
 .text.thread_main_entry
                0x0000000010003b0c       0x2e ..\..\libs\cpu\libplatform.a(startup.o)
 .text.startup.init
                0x0000000010003b3a      0x100 ..\..\libs\cpu\libplatform.a(startup.o)
                0x0000000010003b3a                platform_init
                0x0000000010003b42                sys_startup
 .text.bt_set_timer_enable
                0x0000000010003c3a       0x18 ..\..\libs\cpu\libplatform.a(startup.o)
                0x0000000010003c3a                bt_set_timer_enable
 .text.sys_set_tmr_enable
                0x0000000010003c52       0x22 ..\..\libs\cpu\libplatform.a(startup.o)
                0x0000000010003c52                sys_set_tmr_enable
 .text.sys_hook_init
                0x0000000010003c74        0x2 ..\..\libs\cpu\libplatform.a(sys_hook.o)
                0x0000000010003c74                sys_hook_init
 .text.pll0_vco_band_trimming
                0x0000000010003c76      0x176 ..\..\libs\cpu\libplatform.a(pll.o)
                0x0000000010003c76                pll0_vco_band_trimming
 .text.pll0_init
                0x0000000010003dec       0x62 ..\..\libs\cpu\libplatform.a(pll.o)
                0x0000000010003dec                pll0_init
 .text.pll0_disable
                0x0000000010003e4e       0x16 ..\..\libs\cpu\libplatform.a(pll.o)
                0x0000000010003e4e                pll0_disable
 .text.pmu_set_buck_mode
                0x0000000010003e64       0x48 ..\..\libs\cpu\libplatform.a(pmu.o)
                0x0000000010003e64                pmu_set_buck_mode
 .text.pmu_voltage_configure
                0x0000000010003eac       0x48 ..\..\libs\cpu\libplatform.a(pmu.o)
                0x0000000010003eac                pmu_voltage_configure
 .text.pmu_init
                0x0000000010003ef4      0x2e4 ..\..\libs\cpu\libplatform.a(pmu.o)
                0x0000000010003ef4                pmu_init
 .text.debug_set
                0x00000000100041d8       0x20 ..\..\libs\cpu\libplatform.a(debug.o)
                0x00000000100041d8                debug_set
 .text.ota_pack_is_update_success
                0x00000000100041f8       0x10 ..\..\libs\cpu\libplatform.a(fot_pack.o)
                0x00000000100041f8                ota_pack_is_update_success
 .text.lock_init
                0x0000000010004208       0x10 ..\..\libs\cpu\libplatform.a(lock.o)
                0x0000000010004208                lock_init
 .text.patch_init
                0x0000000010004218       0x5a ..\..\libs\cpu\libplatform.a(patch.o)
                0x0000000010004218                patch_init
 .text.udivmoddi4
                0x0000000010004272       0x96 ..\..\libs\cpu\libplatform.a(sys.o)
 .text.sys_rst_init
                0x0000000010004308       0x94 ..\..\libs\cpu\libplatform.a(sys.o)
                0x0000000010004308                sys_rst_init
 .text.sys_rst_dump
                0x000000001000439c       0x74 ..\..\libs\cpu\libplatform.a(sys.o)
                0x000000001000439c                sys_rst_dump
 .text.rc2m_clk_nhz_cal
                0x0000000010004410       0xda ..\..\libs\cpu\libplatform.a(sys.o)
                0x0000000010004410                rc2m_clk_nhz_cal
 .text.sys_get_rand_key_init
                0x00000000100044ea        0xa ..\..\libs\cpu\libplatform.a(sys.o)
                0x00000000100044ea                sys_get_rand_key_init
 .text.xosc_init
                0x00000000100044f4       0x92 ..\..\libs\cpu\libplatform.a(sys.o)
                0x00000000100044f4                xosc_init
 .text.__udivdi3
                0x0000000010004586        0x6 ..\..\libs\cpu\libplatform.a(sys.o)
                0x0000000010004586                __udivdi3
 .text.sys_clk_cacl_curr
                0x000000001000458c       0x18 ..\..\libs\cpu\libplatform.a(sys_clk.o)
 *fill*         0x00000000100045a4       0x5c 
 .text.set_sys_clk_do
                0x0000000010004600      0x1f2 ..\..\libs\cpu\libplatform.a(sys_clk.o)
                0x0000000010004600                set_sys_clk_do
 .text.sys_clk  0x00000000100047f2      0x1ca ..\..\libs\cpu\libplatform.a(sys_clk.o)
                0x00000000100047f2                sys_clk_get_cur
                0x00000000100047fa                sys_clk_set_do
 .text.sys_clk_set
                0x00000000100049bc       0x60 ..\..\libs\cpu\libplatform.a(sys_clk.o)
                0x00000000100049bc                sys_clk_set
 *fill*         0x0000000010004a1c        0x0 
 .text.sys_clk.table
                0x0000000010004a1c       0x16 ..\..\libs\cpu\libplatform.a(sys_clk.o)
                0x0000000010004a1c                sysclk_info_tbl
 .text.voltage.trim
                0x0000000010004a32       0xaa ..\..\libs\cpu\libplatform.a(voltage_trim.o)
                0x0000000010004a32                voltage_trim_value_init
 .text.xosc_24m_div_get
                0x0000000010004adc        0x4 ..\..\libs\cpu\libplatform.a(weak_symbol.o)
                0x0000000010004adc                xosc_24m_div_get
 .text.freq_det_init
                0x0000000010004ae0       0x3a ..\..\libs\cpu\libplatform.a(freq_det.o)
                0x0000000010004ae0                freq_det_init
 .text          0x0000000010004b1a       0x4e ..\..\libs\ble\libbtstack_central.a(txpkt.o)
                0x0000000010004b1a                txpkt_list_is_empty
                0x0000000010004b26                txpkt_init
                0x0000000010004b56                txpkt_get_available_len
 .text.txpkt.flush
                0x0000000010004b68       0x4a ..\..\libs\ble\libbtstack_central.a(txpkt.o)
                0x0000000010004b68                txpkt_free_for_handle
 .text          0x0000000010004bb2      0x34a ..\..\libs\ble\libbtstack_central.a(hci.o)
                0x0000000010004bb2                hci_get_state
                0x0000000010004bba                ble_get_scan_sta
                0x0000000010004bc2                hci_shutdown_connection
                0x0000000010004be8                gap_le_get_own_address
                0x0000000010004c1e                hci_le_set_own_address_type
                0x0000000010004c32                hci_le_random_address_set
                0x0000000010004c40                le_handle_advertisement_report
                0x0000000010004cac                gap_set_connection_parameters
                0x0000000010004cc4                gap_get_connection_parameters
                0x0000000010004cec                gap_get_connection_parameters_for_handle
                0x0000000010004d22                gap_start_scan
                0x0000000010004d48                gap_stop_scan
                0x0000000010004d6a                gap_set_scan_parameters
                0x0000000010004d7e                gap_set_scan_parameters_do
                0x0000000010004daa                gap_set_connection_outgoing_addr
                0x0000000010004dc8                gap_update_connection_parameters_do
                0x0000000010004e00                gap_update_connection_parameters
                0x0000000010004e34                gap_advertisements_set_data
                0x0000000010004e36                gap_scan_response_set_data
                0x0000000010004e38                gap_advertisements_enable
                0x0000000010004e3a                gap_ext_advertisements_set_data
                0x0000000010004e3c                gap_ext_scan_response_set_data
                0x0000000010004e3e                gap_ext_advertisements_enable
                0x0000000010004e40                gap_ext_advertisements_set_params
                0x0000000010004e42                ble_per_advertisements_set_data
                0x0000000010004e44                ble_per_advertisements_enable
                0x0000000010004e46                ble_per_advertisements_add_device_list
                0x0000000010004e48                ble_per_advertisements_creat_sync
                0x0000000010004e4a                ble_per_advertisements_creat_sync_cancel
                0x0000000010004e4c                ble_per_advertisements_terminate_sync
                0x0000000010004e4e                gap_create_connect
                0x0000000010004e8c                gap_disconnect
                0x0000000010004ede                hci_rx_flush
                0x0000000010004ee0                hci_packet_send_finish
 .text.stack.hci_init
                0x0000000010004efc       0x88 ..\..\libs\ble\libbtstack_central.a(hci.o)
                0x0000000010004f1c                hci_power_control
 .text.stack.handler.acl
                0x0000000010004f84       0x14 ..\..\libs\ble\libbtstack_central.a(hci.o)
 .text.stack.setup
                0x0000000010004f98       0xc2 ..\..\libs\ble\libbtstack_central.a(hci.o)
                0x0000000010004fde                hci_add_event_handler
                0x0000000010004ff0                hci_register_acl_packet_handler
                0x0000000010004ff8                hci_init
 .text.stack.hci
                0x000000001000505a      0x214 ..\..\libs\ble\libbtstack_central.a(hci.o)
                0x00000000100050aa                hci_number_free_acl_slots_for_handle
                0x00000000100050c2                hci_can_send_command_packet_now
                0x0000000010005100                hci_can_send_acl_le_packet_now
                0x000000001000513e                hci_can_send_prepared_acl_packet_now
                0x000000001000514c                hci_can_send_acl_packet_now
                0x000000001000515a                hci_is_packet_buffer_reserved
                0x0000000010005162                hci_reserve_packet_buffer
                0x000000001000519a                hci_release_packet_buffer
 .text.stack.hci.conn
                0x000000001000526e       0xcc ..\..\libs\ble\libbtstack_central.a(hci.o)
                0x000000001000526e                get_free_hci_connection
                0x000000001000528a                create_connection_for_bd_addr_and_type
                0x0000000010005302                hci_connection_for_bd_addr_and_type
 .text.ble.hci  0x000000001000533a      0x184 ..\..\libs\ble\libbtstack_central.a(hci.o)
                0x000000001000533a                ble_event_cmd_complete
                0x00000000100053aa                ble_event_meta
 .text.stack.hci_send
                0x00000000100054be       0xd0 ..\..\libs\ble\libbtstack_central.a(hci.o)
                0x00000000100054be                hci_send_cmd_packet
                0x000000001000554c                hci_send_cmd
 .text.stack.hci.run
                0x000000001000558e      0x184 ..\..\libs\ble\libbtstack_central.a(hci.o)
 .text.stack.hci_rx
                0x0000000010005712       0xdc ..\..\libs\ble\libbtstack_central.a(hci.o)
 .text.stack.hci_emit
                0x00000000100057ee       0x2c ..\..\libs\ble\libbtstack_central.a(hci.o)
                0x00000000100057ee                hci_emit_state
 .text          0x000000001000581a       0x42 ..\..\libs\ble\libbtstack_central.a(btstack_util.o)
                0x000000001000581a                log_info_hexdump
                0x000000001000581c                log_info_key
                0x000000001000581e                uuid_add_bluetooth_prefix
                0x0000000010005840                uuid_has_bluetooth_prefix
 .text.stack.util
                0x000000001000585c      0x126 ..\..\libs\ble\libbtstack_central.a(btstack_util.o)
                0x000000001000585c                bd_addr_cmp
                0x0000000010005862                bd_addr_copy
                0x0000000010005868                big_endian_read_16
                0x0000000010005878                big_endian_read_32
                0x0000000010005898                big_endian_store_16
                0x00000000100058ac                big_endian_store_32
                0x00000000100058e0                reverse_bytes
                0x00000000100058fc                reverse_24
                0x0000000010005900                reverse_48
                0x0000000010005904                reverse_56
                0x0000000010005908                reverse_64
                0x000000001000590c                reverse_128
                0x0000000010005910                reverse_256
                0x0000000010005916                reverse_bd_addr
                0x0000000010005918                btstack_min
                0x000000001000591e                btstack_max
                0x0000000010005924                char_for_nibble
                0x000000001000594a                nibble_for_char
 .text.stack.hci_dump
                0x0000000010005982       0x50 ..\..\libs\ble\libbtstack_central.a(btstack_util.o)
                0x0000000010005982                bd_addr_to_str
 .text.sm.aes   0x00000000100059d2       0x3a ..\..\libs\ble\libbtstack_central.a(sm.o)
 .text.sm.get_handle
                0x0000000010005a0c       0x16 ..\..\libs\ble\libbtstack_central.a(sm.o)
 .text.sm.rau_run
                0x0000000010005a22       0x90 ..\..\libs\ble\libbtstack_central.a(sm.o)
 .text.gap.rau.update
                0x0000000010005ab2       0x38 ..\..\libs\ble\libbtstack_central.a(sm.o)
 .text.sm.is_null
                0x0000000010005aea       0x1c ..\..\libs\ble\libbtstack_central.a(sm.o)
                0x0000000010005aea                sm_is_null
 .text.sm.hdl   0x0000000010005b06       0x12 ..\..\libs\ble\libbtstack_central.a(sm.o)
                0x0000000010005b06                sm_add_event_handler
 .text.sm.deinit
                0x0000000010005b18        0x8 ..\..\libs\ble\libbtstack_central.a(sm.o)
                0x0000000010005b18                sm_deinit
 .text.sm.key_size
                0x0000000010005b20       0x20 ..\..\libs\ble\libbtstack_central.a(sm.o)
                0x0000000010005b20                sm_encryption_key_size
 .text.sm.auth  0x0000000010005b40       0x20 ..\..\libs\ble\libbtstack_central.a(sm.o)
                0x0000000010005b40                sm_authenticated
 .text.gap.rau.mode
                0x0000000010005b60       0x66 ..\..\libs\ble\libbtstack_central.a(sm.o)
                0x0000000010005b60                gap_random_address_set_mode
 .text.gap.rau_set
                0x0000000010005bc6       0x28 ..\..\libs\ble\libbtstack_central.a(sm.o)
                0x0000000010005bc6                gap_random_address_set
 .text.sm.addr  0x0000000010005bee        0xc ..\..\libs\ble\libbtstack_central.a(sm.o)
                0x0000000010005bee                gap_random_address_get
 .text.sm.reconnect
                0x0000000010005bfa       0x48 ..\..\libs\ble\libbtstack_central.a(sm.o)
                0x0000000010005bfa                gap_reconnect_security_setup_active
 .text          0x0000000010005c42       0x36 ..\..\libs\ble\libbtstack_central.a(le_device_db_memory.o)
                0x0000000010005c42                le_device_db_count
 .text.le.db.max
                0x0000000010005c78        0x4 ..\..\libs\ble\libbtstack_central.a(le_device_db_memory.o)
                0x0000000010005c78                ble_bonding_info_max_count
 .text.le.db.set
                0x0000000010005c7c      0x114 ..\..\libs\ble\libbtstack_central.a(le_device_db_memory.o)
                0x0000000010005c7c                le_device_db_info_save_for_index
                0x0000000010005ca4                le_device_db_info_set
 .text.le.db.read
                0x0000000010005d90       0x2c ..\..\libs\ble\libbtstack_central.a(le_device_db_memory.o)
                0x0000000010005d90                le_device_db_info_load_for_index
 .text.le.db.init
                0x0000000010005dbc       0x52 ..\..\libs\ble\libbtstack_central.a(le_device_db_memory.o)
                0x0000000010005dbc                le_device_db_init
 .text.le.db    0x0000000010005e0e      0x144 ..\..\libs\ble\libbtstack_central.a(le_device_db_memory.o)
                0x0000000010005e0e                le_device_db_info
                0x0000000010005e5e                le_device_db_encryption_set
                0x0000000010005ec6                le_device_db_encryption_get
 .text          0x0000000010005f52       0x24 ..\..\libs\ble\libbtstack_central.a(gatt_server.o)
                0x0000000010005f52                att_server_send_func_get
 .text.ble.indicate
                0x0000000010005f76       0x6c ..\..\libs\ble\libbtstack_central.a(gatt_server.o)
                0x0000000010005f76                ble_send_indicate_packet
                0x0000000010005f8a                ble_indicate_for_handle
 *fill*         0x0000000010005fe2        0x2 
 .text          0x0000000010005fe4     0x196a ..\..\libs\ble\libbtstack_central.a(gatt_client.o)
                0x0000000010006546                att_client_register_handler
                0x0000000010006696                gatt_client_is_ready
                0x0000000010006b3c                gatt_client_listen_for_characteristic_value_updates
                0x0000000010006b60                gatt_client_init
                0x0000000010006bc2                gatt_client_write_value_of_characteristic_without_response
                0x0000000010006c2a                gatt_client_write_value_of_characteristic
                0x0000000010006c7c                ble_service_query_result_get_service
                0x0000000010006c84                ble_characteristic_query_result_get_characteristic
                0x0000000010006c8c                ble_client_write_client_characteristic_configuration
                0x0000000010006cfc                att_client_send_func_get
                0x0000000010007880                gatt_client_read_value_of_characteristic_using_value_handle
                0x00000000100078de                gatt_client_write_client_characteristic_configuration
 .text.client.get_context
                0x000000001000794e       0x18 ..\..\libs\ble\libbtstack_central.a(gatt_client.o)
                0x000000001000794e                gatt_client_get_context_for_handle
 .text.client.request_can_send
                0x0000000010007966       0x28 ..\..\libs\ble\libbtstack_central.a(gatt_client.o)
                0x0000000010007966                att_client_request_can_send_now_event
 .text.client.write_req
                0x000000001000798e       0x6c ..\..\libs\ble\libbtstack_central.a(gatt_client.o)
                0x000000001000798e                att_write_request
                0x00000000100079da                ble_write_req_for_character
 .text.client.deserialize_service
                0x00000000100079fa       0x48 ..\..\libs\ble\libbtstack_central.a(gatt_client.o)
                0x00000000100079fa                gatt_client_deserialize_service
 .text.client.deserialize_characteristic
                0x0000000010007a42       0x58 ..\..\libs\ble\libbtstack_central.a(gatt_client.o)
                0x0000000010007a42                gatt_client_deserialize_characteristic
 .text.client.send_req
                0x0000000010007a9a       0x16 ..\..\libs\ble\libbtstack_central.a(gatt_client.o)
                0x0000000010007a9a                btstack_ble_client_send_req
 .text.client.find_services
                0x0000000010007ab0       0x48 ..\..\libs\ble\libbtstack_central.a(gatt_client.o)
                0x0000000010007ab0                gatt_client_discover_primary_services
                0x0000000010007aec                ble_client_discover_primary_services
 .text.client.find_character
                0x0000000010007af8       0x54 ..\..\libs\ble\libbtstack_central.a(gatt_client.o)
                0x0000000010007af8                gatt_client_discover_characteristics_for_service
                0x0000000010007b3e                ble_client_discover_characteristics_for_service
 .text.client.read_long_value_offset
                0x0000000010007b4c       0x3a ..\..\libs\ble\libbtstack_central.a(gatt_client.o)
                0x0000000010007b4c                gatt_client_read_long_value_of_characteristic_using_value_handle_with_offset
 .text          0x0000000010007b86      0x1ae ..\..\libs\ble\libbtstack_central.a(att_server.o)
                0x0000000010007ca2                att_server_handler_list_init
                0x0000000010007caa                att_server_can_send_packet_now
 .text.server.indicate
                0x0000000010007d34       0x98 ..\..\libs\ble\libbtstack_central.a(att_server.o)
                0x0000000010007d34                att_server_indicate
 .text.server.mtu_get
                0x0000000010007dcc       0x24 ..\..\libs\ble\libbtstack_central.a(att_server.o)
                0x0000000010007dcc                ble_att_get_mtu
 .text          0x0000000010007df0      0x1da ..\..\libs\ble\libbtstack_central.a(att_dispatch.o)
                0x0000000010007ee6                att_dispatch_connected_event
                0x0000000010007f3c                att_dispatch_disconnected_event
                0x0000000010007f64                att_dispatch_connect_param_update_event
                0x0000000010007f92                att_dispatch_encryption_change_event
                0x0000000010007fc2                att_dispatch_sm_event
 .text.att.register_client
                0x0000000010007fca       0x14 ..\..\libs\ble\libbtstack_central.a(att_dispatch.o)
                0x0000000010007fca                att_dispatch_register_client
 .text.att.dispatch_server
                0x0000000010007fde        0x6 ..\..\libs\ble\libbtstack_central.a(att_dispatch.o)
                0x0000000010007fde                att_dispatch_can_send_now
 .text.att.dispatch_client
                0x0000000010007fe4        0xe ..\..\libs\ble\libbtstack_central.a(att_dispatch.o)
                0x0000000010007fe4                att_dispatch_client_request_can_send_now_event
 .text.att.client_mtu
                0x0000000010007ff2        0xe ..\..\libs\ble\libbtstack_central.a(att_dispatch.o)
                0x0000000010007ff2                att_dispatch_client_mtu_exchanged
 *fill*         0x0000000010008000        0x0 
 .text          0x0000000010008000      0xddc ..\..\libs\ble\libbtstack_central.a(att_db.o)
                0x00000000100081fa                att_uuid_for_handle
                0x0000000010008224                att_set_db
                0x000000001000822c                att_set_read_callback
                0x0000000010008234                att_set_write_callback
                0x000000001000823c                handle_exchange_mtu_request
                0x0000000010008264                att_clear_transaction_queue
                0x0000000010008280                att_prepare_handle_value_indication
                0x00000000100082be                att_handle_request
                0x0000000010008c88                gatt_server_get_get_handle_range_for_service_with_uuid16
                0x0000000010008d0e                gatt_server_get_value_handle_for_characteristic_with_uuid16
                0x0000000010008d50                gatt_server_get_client_configuration_handle_for_characteristic_with_uuid16
 .text.att.mtu_request
                0x0000000010008ddc       0x3a ..\..\libs\ble\libbtstack_central.a(att_db.o)
                0x0000000010008ddc                att_exchange_mtu_request
 .text.att_server.mtu_rsp
                0x0000000010008e16       0x2a ..\..\libs\ble\libbtstack_central.a(att_db.o)
                0x0000000010008e16                handle_exchange_mtu_response
 .text          0x0000000010008e40      0x206 ..\..\libs\ble\libbtstack_central.a(ad_parser.o)
                0x0000000010008e40                ad_iterator_init
                0x0000000010008e4c                ad_iterator_has_more
                0x0000000010008e5a                ad_iterator_next
                0x0000000010008e78                ad_iterator_get_data_len
                0x0000000010008e8a                ad_iterator_get_data_type
                0x0000000010008e98                ad_iterator_get_data
                0x0000000010008ea4                ad_data_contains_uuid16
                0x0000000010008f3c                ad_data_contains_uuid128
                0x0000000010008fda                ble_adv_report_info_analyse
 .text          0x0000000010009046        0x2 ..\..\libs\ble\libbtstack_central.a(hci_transport_h3_controller.o)
                0x0000000010009046                hci_init_var
 .text          0x0000000010009048       0x12 ..\..\libs\ble\libbtstack_central.a(hci_transport_dummy.o)
                0x0000000010009048                hci_iodm_init
                0x000000001000904a                hci_transport_setup
 .text          0x000000001000905a       0x18 ..\..\libs\ble\libbtstack_central.a(btstack_hal.o)
                0x000000001000905a                hal_tick_init
                0x0000000010009060                hal_tick_set_handler
 .text          0x0000000010009072       0xe8 ..\..\libs\ble\libbtstack_central.a(btstack_api.o)
                0x0000000010009072                btstack_ble_enable_adv
                0x00000000100090c4                btstack_ble_enable_scan
                0x00000000100090c8                btstack_ble_disable_scan
                0x00000000100090cc                btstack_ble_set_scan_param
                0x00000000100090d0                btstack_ble_conn_by_addr
                0x00000000100090f4                btstack_ble_sm_passkey_input
                0x000000001000910a                btstack_ble_sm_send_security_request
                0x000000001000910e                btstack_ble_single_tone_mode_enter
                0x000000001000912a                btstack_ble_set_random_static_addr
                0x000000001000913a                btstack_ble_add_dev_to_white_list
                0x000000001000913c                btstack_ble_rmv_dev_from_white_list
                0x000000001000913e                btstack_ble_disable_adv
                0x0000000010009140                btstack_ble_set_adv_param
                0x0000000010009142                btstack_ble_set_ext_adv_param
                0x0000000010009144                btstack_ble_rslv_enable
                0x0000000010009146                btstack_ble_rslv_renew_to_set
                0x0000000010009148                btstack_ble_add_dev_to_ral_list
                0x000000001000914a                btstack_ble_rmv_dev_from_ral_list
                0x000000001000914c                btstack_var_init
                0x0000000010009156                btstack_ble_get_conn_rssi
 .text.stack.sleep
                0x000000001000915a       0x24 ..\..\libs\ble\libbtstack_central.a(btstack_api.o)
                0x000000001000915a                btstack_exit_sleep
                0x0000000010009166                btstack_enter_sleep
 .text.ble.hci  0x000000001000917e       0xb4 ..\..\libs\ble\libbtstack_central.a(btstack_api.o)
                0x000000001000917e                btstack_ble_set_adv_interval
                0x0000000010009180                btstack_ble_disconnect
                0x000000001000919a                btstack_ble_ll_update_conn_param
                0x000000001000922e                btstack_ble_set_adv_data
                0x0000000010009230                btstack_ble_set_scan_rsp_data
 .text.stack.setup
                0x0000000010009232       0x4c ..\..\libs\ble\libbtstack_central.a(btstack_api.o)
 .text.stack.api
                0x000000001000927e       0x34 ..\..\libs\ble\libbtstack_central.a(btstack_api.o)
                0x000000001000929e                btstack_init
 .text          0x00000000100092b2       0x40 ..\..\libs\ble\libbtstack_central.a(ble_api.o)
                0x00000000100092de                ble_msg_free_prepare
 .text.stack.api
                0x00000000100092f2       0x56 ..\..\libs\ble\libbtstack_central.a(ble_api.o)
                0x00000000100092f2                btstack_deinit
                0x000000001000931a                ble_setup
 .text.ble.api.discon
                0x0000000010009348        0xe ..\..\libs\ble\libbtstack_central.a(ble_api.o)
                0x0000000010009348                ble_disconnect
 .text.ble.api.scan.dis
                0x0000000010009356        0xc ..\..\libs\ble\libbtstack_central.a(ble_api.o)
                0x0000000010009356                ble_scan_dis
 .text.ble.api.scan.en
                0x0000000010009362        0xc ..\..\libs\ble\libbtstack_central.a(ble_api.o)
                0x0000000010009362                ble_scan_en
 .text.ble.api.scan.set
                0x000000001000936e       0x2c ..\..\libs\ble\libbtstack_central.a(ble_api.o)
                0x000000001000936e                ble_set_scan_param
 .text.ble.api.conn_do
                0x000000001000939a       0x84 ..\..\libs\ble\libbtstack_central.a(ble_api.o)
                0x000000001000939a                ble_connect_by_addr
 .text.ble.api.regist
                0x000000001000941e        0x6 ..\..\libs\ble\libbtstack_central.a(ble_api.o)
                0x000000001000941e                ble_init_callback_register
                0x0000000010009422                ble_vs_tbox_init_callback_register
 .text          0x0000000010009424       0x44 ..\..\libs\ble\libbtstack_central.a(txpkt.o)
                0x0000000010009424                txpkt_mem_init
                0x000000001000943e                txpkt_malloc
                0x000000001000944a                txpkt_free
                0x0000000010009454                txpkt_list_pop_front
                0x000000001000945e                txpkt_list_extract
 .text          0x0000000010009468       0x8e ..\..\libs\ble\libbtstack_central.a(rf.o)
                0x0000000010009468                rf_off
                0x0000000010009494                rf_reset
                0x0000000010009496                rf_init
 .text.rf.tx_tone
                0x00000000100094f6       0x54 ..\..\libs\ble\libbtstack_central.a(rf.o)
                0x00000000100094f6                rf_single_tone_enter
 .text          0x000000001000954a      0x402 ..\..\libs\ble\libbtstack_central.a(hct_proc.o)
                0x00000000100098ac                hct_register_handler_evt
                0x00000000100098b4                hct_register_handler_acl
                0x00000000100098bc                hct_acl_block_request
                0x000000001000990c                hct_init_do
 *fill*         0x000000001000994c       0x34 
 .text          0x0000000010009980      0x2dc ..\..\libs\ble\libbtstack_central.a(hct.o)
                0x0000000010009980                hct_init
                0x0000000010009990                hci_send_2_host
                0x00000000100099c4                hci_cmd_send_2_controller
                0x0000000010009a74                hci_acl_send_2_controller
                0x0000000010009b80                hci_malloc_for_cmd_tmpl
                0x0000000010009bd2                hci_malloc_for_acl_tx
                0x0000000010009bf0                hci_ble_conhdl_register
                0x0000000010009bfe                hci_ble_conhdl_unregister
 .text          0x0000000010009c5c      0x164 ..\..\libs\ble\libbtstack_central.a(mgr_hci.o)
                0x0000000010009dac                hci_le_rd_buff_size
 .text.le.mgr   0x0000000010009dc0       0x38 ..\..\libs\ble\libbtstack_central.a(mgr_hci.o)
                0x0000000010009dc0                hci_command_mgr_func
 .text          0x0000000010009df8      0x4a0 ..\..\libs\ble\libbtstack_central.a(mgr.o)
                0x0000000010009df8                mgr_cmd_cmp_send
                0x0000000010009e20                mgr_cmd_stat_send
                0x0000000010009e48                mgr_is_dev_connected
                0x0000000010009eb2                mgr_ral_is_empty
                0x0000000010009eb6                mgr_ch_map_update
                0x000000001000a016                mgr_init
                0x000000001000a11a                mgr_clk_acc_set
                0x000000001000a158                mgr_link_disc
                0x000000001000a18c                mgr_master_ch_map_get
                0x000000001000a194                mgr_le_evt_mask_check
                0x000000001000a1ae                mgr_le_get_features
                0x000000001000a20a                mgr_le_get_tbox_feat
                0x000000001000a218                mgr_plan_elt_get
                0x000000001000a226                mgr_act_get_free
                0x000000001000a276                mgr_act_set_free
 .text          0x000000001000a298      0x438 ..\..\libs\ble\libbtstack_central.a(ll_scan.o)
                0x000000001000a298                hci_le_set_scan_param_cmd_func
                0x000000001000a3f2                hci_le_set_scan_en_cmd_func
 .text.le.ll_scan
                0x000000001000a6d0      0x60c ..\..\libs\ble\libbtstack_central.a(ll_scan.o)
                0x000000001000a6d0                ble_adv_rep_ind_func
                0x000000001000ac4c                ble_scan_end_ind_func
 .text.le.ll_cntl
                0x000000001000acdc       0x68 ..\..\libs\ble\libbtstack_central.a(ll.o)
                0x000000001000acdc                ll_init
 .text.le.ll_cntl.start
                0x000000001000ad44      0x242 ..\..\libs\ble\libbtstack_central.a(ll.o)
                0x000000001000ad44                ll_start
 .text          0x000000001000af86      0x29e ..\..\libs\ble\libbtstack_central.a(ble_hal.o)
                0x000000001000af86                ble_get_rslv_var
                0x000000001000af8a                ble_hal_init
                0x000000001000b17e                ble_ch_assess_data_get
                0x000000001000b186                ble_aa_gen
 *fill*         0x000000001000b224       0xdc 
 .text          0x000000001000b300      0x56c ..\..\libs\ble\libbtstack_central.a(ble_con.o)
                0x000000001000b300                ble_con_start_do
                0x000000001000b328                ble_con_start
                0x000000001000b700                ble_con_stop
                0x000000001000b780                ble_con_offset_get
                0x000000001000b7ba                ble_con_peer_sca_set
 .text.le.con   0x000000001000b86c       0x84 ..\..\libs\ble\libbtstack_central.a(ble_con.o)
                0x000000001000b86c                ble_get_con_var
                0x000000001000b874                ble_get_con_rssi
                0x000000001000b88a                ble_con_init
 .text          0x000000001000b8f0      0x130 ..\..\libs\ble\libbtstack_central.a(ble_buf.o)
                0x000000001000b8f0                ble_buf_init_do
                0x000000001000b9d6                ble_buf_init
 *fill*         0x000000001000ba20       0x20 
 .text.bb.buf   0x000000001000ba40       0x98 ..\..\libs\ble\libbtstack_central.a(ble_buf.o)
                0x000000001000ba40                ble_buf_acl_tx_elt_get
                0x000000001000ba80                ble_buf_acl_tx_elt_set
 .text.le.stack
                0x000000001000bad8       0x28 ..\..\libs\ble\libbtstack_central.a(ble_buf.o)
                0x000000001000bad8                ble_msg_malloc
                0x000000001000bae0                ble_msg_free
                0x000000001000bae8                ble_msg_wrap
                0x000000001000baf6                ble_msg_unwrap
 .text          0x000000001000bb00      0x110 ..\..\libs\ble\libbtstack_central.a(bb_int.o)
                0x000000001000bb00                bb_sleep_init
                0x000000001000bb02                bb_driver_init
 *fill*         0x000000001000bc10       0xf0 
 .text.bb.aes   0x000000001000bd00       0xf4 ..\..\libs\ble\libbtstack_central.a(bb_int.o)
                0x000000001000bd00                bb_aes_encrypt
 .text          0x000000001000bdf4      0x292 ..\..\libs\ble\libbtstack_central.a(bb.o)
                0x000000001000be16                bb_rand_init
                0x000000001000be1e                bb_get_heap_info
                0x000000001000be30                bb_var_init
                0x000000001000be38                bb_nanos_mem_init
                0x000000001000be7e                bb_reset
                0x000000001000bf0a                bb_init
                0x000000001000c02a                bb_off
 .text          0x000000001000c086       0x32 ..\..\libs\ble\libbtstack_central.a(extern_ble.o)
                0x000000001000c0ae                ble_sync_link_info
                0x000000001000c0b4                hci_event_debug_en
 .text          0x000000001000c0b8       0x60 ..\..\libs\ble\libbtstack_central.a(l2cap.o)
                0x000000001000c102                l2cap_register_packet_handler
                0x000000001000c10a                l2cap_max_le_mtu
 .text.stk.l2cap.txreq
                0x000000001000c118       0x96 ..\..\libs\ble\libbtstack_central.a(l2cap.o)
 .text.stack.l2cap
                0x000000001000c1ae      0x118 ..\..\libs\ble\libbtstack_central.a(l2cap.o)
                0x000000001000c2aa                l2cap_get_outgoing_buffer
                0x000000001000c2bc                l2cap_reserve_packet_buffer
                0x000000001000c2c2                l2cap_release_packet_buffer
 .text.stack.handler.l2cap
                0x000000001000c2c6      0x160 ..\..\libs\ble\libbtstack_central.a(l2cap.o)
                0x000000001000c422                l2cap_can_send_fixed_channel_packet_now
 .text.stack.setup
                0x000000001000c426       0x70 ..\..\libs\ble\libbtstack_central.a(l2cap.o)
                0x000000001000c426                l2cap_init
                0x000000001000c474                l2cap_register_fixed_channel
 .text.stack.setup
                0x000000001000c496        0x2 ..\..\libs\ble\libbtstack_central.a(hci_dump.o)
                0x000000001000c496                hci_dump_open
 *fill*         0x000000001000c498        0x0 
 .text.stack.hci_send
                0x000000001000c498      0x322 ..\..\libs\ble\libbtstack_central.a(hci_cmd.o)
                0x000000001000c498                hci_cmd_create_from_template
 .text          0x000000001000c7ba        0x2 ..\..\libs\ble\libbtstack_central.a(btstack_run_loop.o)
                0x000000001000c7ba                thread_nanos_task_create
 *fill*         0x000000001000c7bc       0x44 
 .text.stack.run_loop
                0x000000001000c800      0x16a ..\..\libs\ble\libbtstack_central.a(btstack_run_loop.o)
                0x000000001000c800                btstack_run_loop_set_timer_handler
                0x000000001000c804                btstack_run_loop_set_data_source_handler
                0x000000001000c808                btstack_run_loop_set_data_source_fd
                0x000000001000c80c                btstack_run_loop_get_data_source_fd
                0x000000001000c810                btstack_run_loop_enable_data_source_callbacks
                0x000000001000c81c                btstack_run_loop_disable_data_source_callbacks
                0x000000001000c82c                btstack_run_loop_add_data_source
                0x000000001000c83e                btstack_run_loop_remove_data_source
                0x000000001000c850                btstack_run_loop_set_timer
                0x000000001000c86a                btstack_run_loop_set_timer_context
                0x000000001000c86e                btstack_run_loop_get_timer_context
                0x000000001000c880                btstack_run_loop_set_trig_ticks
                0x000000001000c8bc                btstack_run_loop_add_timer
                0x000000001000c8ec                btstack_run_loop_remove_timer
                0x000000001000c924                btstack_run_loop_get_ticks
                0x000000001000c92e                btstack_run_loop_ticks_for_ms
                0x000000001000c934                btstack_run_loop_get_time_ms
                0x000000001000c940                btstack_run_loop_timer_dump
 .text.stack.setup
                0x000000001000c96a       0x32 ..\..\libs\ble\libbtstack_central.a(btstack_run_loop.o)
                0x000000001000c96a                btstack_run_loop_init
 .text          0x000000001000c99c       0x2c ..\..\libs\ble\libbtstack_central.a(btstack_memory.o)
                0x000000001000c99c                btstack_memory_gatt_client_get
                0x000000001000c9a6                btstack_memory_gatt_client_free
                0x000000001000c9b2                btstack_memory_gatt_client_init
 .text          0x000000001000c9c8        0xa ..\..\libs\ble\libbtstack_central.a(btstack_main.o)
                0x000000001000c9c8                btstack_ble_set_init_callback
                0x000000001000c9d0                btstack_ble_vs_tbox_set_init_callback
 .text.stack.handler
                0x000000001000c9d2       0x3c ..\..\libs\ble\libbtstack_central.a(btstack_main.o)
 .text.stack.ble.setup
                0x000000001000ca0e        0x4 ..\..\libs\ble\libbtstack_central.a(btstack_main.o)
                0x000000001000ca0e                btstack_ble_init
 .text.stack.setup
                0x000000001000ca12       0x34 ..\..\libs\ble\libbtstack_central.a(btstack_main.o)
                0x000000001000ca12                btstack_main
 .text          0x000000001000ca46       0x76 ..\..\libs\ble\libbtstack_central.a(nanos.o)
                0x000000001000ca46                nanos_init
                0x000000001000ca7c                nanos_var_init
 .text          0x000000001000cabc       0x34 ..\..\libs\ble\libbtstack_central.a(bb_sche.o)
                0x000000001000cabc                bb_sche_frag_ble_dur_set
                0x000000001000cace                bb_sche_init
 .text          0x000000001000caf0       0xae ..\..\libs\ble\libbtstack_central.a(patch.o)
                0x000000001000caf0                bb_patch_dummy
                0x000000001000caf2                bb_patch_init
 .text.bb.aes   0x000000001000cb9e      0x19a ..\..\libs\ble\libbtstack_central.a(aes.o)
                0x000000001000cb9e                aes_init
                0x000000001000cbe8                aes_alloc
                0x000000001000cc0a                aes_start
                0x000000001000cc48                aes_encrypt
                0x000000001000cc94                aes_rand
                0x000000001000ccd0                aes_result_handler
 .text          0x000000001000cd38       0x38 ..\..\libs\ble\libbtstack_central.a(extern.o)
                0x000000001000cd4e                bt_rf_get_fcc_param
                0x000000001000cd56                private_freq_bands_hook
                0x000000001000cd5a                private_access_code_hook
                0x000000001000cd64                ble_tbox_feature_req_enabled
                0x000000001000cd68                ble_chmap_instant_pass_discon
                0x000000001000cd6c                ble_adv_duration_get
 .text          0x000000001000cd70       0x9c ..\..\libs\ble\libbtstack_central.a(vs.o)
                0x000000001000cd70                vs_init
                0x000000001000cdac                vs_reset_complete_evt
 .text          0x000000001000ce0c      0x2ca ..\..\libs\ble\libbtstack_central.a(rf_mate.o)
                0x000000001000cef2                rfphy_tx
                0x000000001000d0a4                rfphy_test
                0x000000001000d0a6                ble_rf_external_pa_init
 .text.rfphy.other
                0x000000001000d0d6       0x8a ..\..\libs\ble\libbtstack_central.a(rf_mate.o)
 .text.rf.param.init
                0x000000001000d160       0xf4 ..\..\libs\ble\libbtstack_central.a(rf_mate.o)
 .text.bb.rf    0x000000001000d254       0x7a ..\..\libs\ble\libbtstack_central.a(rf_mate.o)
                0x000000001000d254                rfphy_sw_ctrl
                0x000000001000d284                rfphy_tx_pwr
 .text.bb.phy.tx
                0x000000001000d2ce       0x8c ..\..\libs\ble\libbtstack_central.a(rf_mate.o)
                0x000000001000d2ce                rfphy_tx_tone
 .text          0x000000001000d35a        0x4 ..\..\libs\ble\libbtstack_central.a(scan_hook.o)
                0x000000001000d35a                ble_scan_end_ind_hook
 .text          0x000000001000d35e        0x2 ..\..\libs\ble\libbtstack_central.a(ble_hook.o)
                0x000000001000d35e                ble_hal_init_hook
 .text          0x000000001000d360      0x112 ..\..\libs\ble\libbtstack_central.a(hct_msg.o)
                0x000000001000d360                hci_look_for_cmd_desc
                0x000000001000d3ea                hci_look_for_evt_desc
                0x000000001000d42c                hci_look_for_dbg_evt_desc
                0x000000001000d430                hci_look_for_le_evt_desc
 .text          0x000000001000d472      0x220 ..\..\libs\ble\libbtstack_central.a(mgr_test.o)
                0x000000001000d494                ble_test_end_ind_func
                0x000000001000d4d6                hci_le_rx_test_v1_cmd_func
                0x000000001000d51c                hci_le_tx_test_v1_cmd_func
                0x000000001000d580                hci_le_rx_test_v2_cmd_func
                0x000000001000d5e0                hci_le_tx_test_v2_cmd_func
                0x000000001000d656                hci_le_test_end_cmd_func
 .text          0x000000001000d692       0x54 ..\..\libs\ble\libbtstack_central.a(mgr_proc.o)
 .text          0x000000001000d6e6      0xc0a ..\..\libs\ble\libbtstack_central.a(mgr_init.o)
                0x000000001000d6e6                hci_le_create_con_cmd_func
                0x000000001000dad0                hci_le_ext_create_con_cmd_func
                0x000000001000deba                hci_le_create_con_cancel_cmd_func
                0x000000001000df2c                ble_init_end_ind_func
 .text          0x000000001000e2f0      0x236 ..\..\libs\ble\libbtstack_central.a(ll_proc.o)
                0x000000001000e310                hci_command_ll_func
                0x000000001000e348                ble_acl_rx_ind_func
                0x000000001000e4bc                ble_acl_tx_cfm_func
                0x000000001000e4cc                ll_cmd_cmp_send
                0x000000001000e4fe                ll_cmd_stat_send
 *fill*         0x000000001000e526        0x2 
 .text          0x000000001000e528      0xa26 ..\..\libs\ble\libbtstack_central.a(ll_phy_upd.o)
                0x000000001000edee                ll_op_phy_upd_ind_func
                0x000000001000ee8a                ble_phy_upd_cfm_func
                0x000000001000eeca                ll_phy_upd_proc_start
 .text.le.ll_cntl.pdu
                0x000000001000ef4e      0x264 ..\..\libs\ble\libbtstack_central.a(ll_phy_upd.o)
                0x000000001000ef4e                ll_phy_req_func
                0x000000001000f024                ll_phy_rsp_func
                0x000000001000f0be                ll_phy_update_ind_func
 .text          0x000000001000f1b2      0x3ae ..\..\libs\ble\libbtstack_central.a(ll_length.o)
                0x000000001000f456                ll_op_length_upd_ind_func
                0x000000001000f4c4                ll_length_proc_start_for_param
                0x000000001000f52c                ll_length_proc_start
 .text.le.ll_cntl.pdu
                0x000000001000f560      0x214 ..\..\libs\ble\libbtstack_central.a(ll_length.o)
                0x000000001000f560                ll_length_req_func
                0x000000001000f6d2                ll_length_rsp_func
 .text          0x000000001000f774      0x2c6 ..\..\libs\ble\libbtstack_central.a(ll_feature.o)
                0x000000001000f93a                ll_op_feats_exch_ind_func
                0x000000001000f9b6                ll_feature_exchange_proc_start
                0x000000001000fa06                ble_ll_feature_exchange_get
 .text.le.ll_cntl.pdu
                0x000000001000fa3a      0x168 ..\..\libs\ble\libbtstack_central.a(ll_feature.o)
                0x000000001000fa3a                ll_feature_req_func
                0x000000001000faae                ll_slave_feature_req_func
                0x000000001000fb22                ll_feature_rsp_func
 *fill*         0x000000001000fba2        0x2 
 .text          0x000000001000fba4      0xc6c ..\..\libs\ble\libbtstack_central.a(ll_encrypt.o)
                0x000000001001047a                hci_le_en_enc_cmd_func
                0x000000001001055e                hci_le_ltk_req_reply_cmd_func
                0x00000000100105dc                hci_le_ltk_req_neg_reply_cmd_func
                0x0000000010010676                ll_encrypt_ind_func
                0x00000000100107a0                ll_op_encrypt_ind_func
 .text.le.ll_cntl.pdu
                0x0000000010010810      0x348 ..\..\libs\ble\libbtstack_central.a(ll_encrypt.o)
                0x0000000010010810                ll_pause_enc_req_func
                0x0000000010010896                ll_pause_enc_rsp_func
                0x0000000010010902                ll_enc_req_func
                0x0000000010010a1c                ll_enc_rsp_func
                0x0000000010010aa2                ll_start_enc_req_func
                0x0000000010010afe                ll_start_enc_rsp_func
 .text          0x0000000010010b58      0x110 ..\..\libs\ble\libbtstack_central.a(ll_disconnect.o)
                0x0000000010010b58                ll_stopped_ind_func
                0x0000000010010bb8                hci_disconnect_cmd_func
 *fill*         0x0000000010010c68        0x0 
 .text          0x0000000010010c68      0xd3e ..\..\libs\ble\libbtstack_central.a(ll_con_upd.o)
                0x00000000100115b4                hci_le_con_upd_cmd_func
                0x000000001001173e                ll_op_con_upd_ind_func
                0x00000000100117e0                ble_con_param_upd_cfm_func
                0x0000000010011858                ble_con_offset_upd_ind_func
                0x00000000100118aa                ll_con_move_cb
 .text.le.ll_cntl.pdu
                0x00000000100119a6      0x332 ..\..\libs\ble\libbtstack_central.a(ll_con_upd.o)
                0x00000000100119a6                ll_con_update_ind_func
                0x0000000010011b16                ll_con_param_req_func
                0x0000000010011c3a                ll_con_param_rsp_func
 .text          0x0000000010011cd8      0x198 ..\..\libs\ble\libbtstack_central.a(ll_cntl.o)
                0x0000000010011cd8                ble_cntl_rx_ind_func
 .text.le.ll_cntl.pdu
                0x0000000010011e70       0x1a ..\..\libs\ble\libbtstack_central.a(ll_cntl.o)
 .text.le.ll_cntl.send
                0x0000000010011e8a       0xa2 ..\..\libs\ble\libbtstack_central.a(ll_cntl.o)
                0x0000000010011e8a                ll_cntl_send
 .text.le.ll_cntl.pdu
                0x0000000010011f2c      0x112 ..\..\libs\ble\libbtstack_central.a(ll_clk_acc.o)
                0x0000000010011f2c                ll_clk_acc_req_func
                0x0000000010011f86                ll_clk_acc_rsp_func
 .text          0x000000001001203e      0x348 ..\..\libs\ble\libbtstack_central.a(ll_chmap_upd.o)
                0x0000000010012276                ll_op_ch_map_upd_ind_func
                0x00000000100122de                mgr_ch_map_update_ind_func
                0x000000001001235e                ble_ch_map_upd_cfm_func
 .text.le.ll_cntl.pdu
                0x0000000010012386      0x1da ..\..\libs\ble\libbtstack_central.a(ll_chmap_upd.o)
                0x0000000010012386                ll_channel_map_ind_func
                0x00000000100124b6                ll_min_used_channels_ind_func
 .text          0x0000000010012560       0x28 ..\..\libs\ble\libbtstack_central.a(ble_test.o)
                0x0000000010012560                ble_test_init
                0x0000000010012580                ble_get_test_var
 .text.bb.ble.test.start
                0x0000000010012588       0x2e ..\..\libs\ble\libbtstack_central.a(ble_test.o)
                0x0000000010012588                ble_test_start
 .text          0x00000000100125b6       0x84 ..\..\libs\ble\libbtstack_central.a(ble_scan.o)
                0x00000000100125b6                ble_get_scan_var
                0x00000000100125be                ble_get_ssync_var
                0x00000000100125c6                ble_scan_init
 .text          0x000000001001263a       0x72 ..\..\libs\ble\libbtstack_central.a(ble_init.o)
                0x000000001001263a                ble_init_init
                0x00000000100126a4                ble_get_init_var
 .text          0x00000000100126ac       0x42 ..\..\libs\ble\libbtstack_central.a(ble.o)
                0x00000000100126ac                ble_init
 .text.ble.var.init
                0x00000000100126ee       0x56 ..\..\libs\ble\libbtstack_central.a(ble.o)
                0x00000000100126ee                ble_var_init
 .text.bb.timer.ind
                0x0000000010012744       0x24 ..\..\libs\ble\libbtstack_central.a(bb_alarm.o)
                0x0000000010012744                bb_timer_end_ind
 .text.bb.timer.init
                0x0000000010012768       0xcc ..\..\libs\ble\libbtstack_central.a(bb_alarm.o)
                0x0000000010012768                bb_timer_init
 .text.stack.l2cap_sig
                0x0000000010012834      0x126 ..\..\libs\ble\libbtstack_central.a(l2cap_signaling.o)
                0x0000000010012834                l2cap_create_signaling_le
 .text.stack.memory
                0x000000001001295a       0x46 ..\..\libs\ble\libbtstack_central.a(btstack_memory_pool.o)
                0x000000001001295a                btstack_memory_pool_get
                0x0000000010012966                btstack_memory_pool_free
                0x000000001001297a                btstack_memory_pool_create
 .text          0x00000000100129a0       0xb6 ..\..\libs\ble\libbtstack_central.a(vs_proc.o)
 .text.bb.vs.fcc_ble.do
                0x0000000010012a56       0x8a ..\..\libs\ble\libbtstack_central.a(vs_fcc.o)
                0x0000000010012a56                vs_ble_test_do
 .text.bb.vs.fcc
                0x0000000010012ae0       0xc2 ..\..\libs\ble\libbtstack_central.a(vs_fcc.o)
                0x0000000010012ae0                vs_ble_test
                0x0000000010012ae4                vs_fcc_test_cmd
 .text          0x0000000010012ba2       0x60 ..\..\libs\ble\libbtstack_central.a(ll_version.o)
                0x0000000010012bce                ble_ll_version_get
 .text.le.ll_cntl.pdu
                0x0000000010012c02      0x14e ..\..\libs\ble\libbtstack_central.a(ll_version.o)
                0x0000000010012c02                ll_version_ind_func
 .text          0x0000000010012d50        0x4 ..\..\libs\ble\libbtstack_central.a(ble_sync.o)
                0x0000000010012d50                ble_get_sync_var
 *(.rodata*)
 *fill*         0x0000000010012d54        0x0 
 .rodata.str1.4
                0x0000000010012d54       0x3b Output\obj\driver\driver_lowpwr.o
 *fill*         0x0000000010012d8f        0x1 
 .rodata        0x0000000010012d90       0x10 Output\obj\project\ble_peripheral\strong_symbol.o
 .rodata.cm_next_freepage.str1.4
                0x0000000010012da0        0xc ..\..\libs\cpu\libplatform.a(cm.o)
 .rodata.cm_movepage.str1.4
                0x0000000010012dac       0x10 ..\..\libs\cpu\libplatform.a(cm.o)
 .rodata.cm_release.str1.4
                0x0000000010012dbc       0x22 ..\..\libs\cpu\libplatform.a(cm.o)
 *fill*         0x0000000010012dde        0x2 
 .rodata.cm_savepage.str1.4
                0x0000000010012de0       0x13 ..\..\libs\cpu\libplatform.a(cm.o)
 *fill*         0x0000000010012df3        0x1 
 .rodata.cm_check_loadpage.str1.4
                0x0000000010012df4       0x3b ..\..\libs\cpu\libplatform.a(cm.o)
 *fill*         0x0000000010012e2f        0x1 
 .rodata.cm_init.str1.4
                0x0000000010012e30       0x30 ..\..\libs\cpu\libplatform.a(cm.o)
 .rodata.platform_main.str1.4
                0x0000000010012e60       0x10 ..\..\libs\cpu\libplatform.a(main.o)
 .rodata.thread_btstack_create.str1.4
                0x0000000010012e70        0xc ..\..\libs\cpu\libplatform.a(startup.o)
 .rodata.startup.init.str1.4
                0x0000000010012e7c       0x2b ..\..\libs\cpu\libplatform.a(startup.o)
 *fill*         0x0000000010012ea7        0x1 
 .rodata.pll0_vco_band_trimming.str1.4
                0x0000000010012ea8       0x20 ..\..\libs\cpu\libplatform.a(pll.o)
 .rodata.patch_init.str1.4
                0x0000000010012ec8       0x1b ..\..\libs\cpu\libplatform.a(patch.o)
 *fill*         0x0000000010012ee3        0x1 
 .rodata.sys_rst_dump.str1.4
                0x0000000010012ee4       0x45 ..\..\libs\cpu\libplatform.a(sys.o)
 *fill*         0x0000000010012f29        0x3 
 .rodata.str1.4
                0x0000000010012f2c       0x79 ..\..\libs\ble\libbtstack_central.a(hci.o)
 *fill*         0x0000000010012fa5        0x3 
 .rodata        0x0000000010012fa8       0x20 ..\..\libs\ble\libbtstack_central.a(btstack_util.o)
                0x0000000010012fb8                bluetooth_base_uuid
 .rodata        0x0000000010012fc8       0x14 ..\..\libs\ble\libbtstack_central.a(gatt_client.o)
 .rodata        0x0000000010012fdc       0x10 ..\..\libs\ble\libbtstack_central.a(att_db.o)
 .rodata        0x0000000010012fec       0x20 ..\..\libs\ble\libbtstack_central.a(hci_transport_dummy.o)
 .rodata.str1.4
                0x000000001001300c       0x19 ..\..\libs\ble\libbtstack_central.a(btstack_api.o)
 *fill*         0x0000000010013025        0x3 
 .rodata        0x0000000010013028       0x21 ..\..\libs\ble\libbtstack_central.a(btstack_api.o)
 *fill*         0x0000000010013049        0x3 
 .rodata.stack.api
                0x000000001001304c       0x94 ..\..\libs\ble\libbtstack_central.a(btstack_api.o)
                0x000000001001304c                btstack_basic_tbl
                0x000000001001305c                btstack_ctl_tbl
                0x00000000100130d0                btstack_api_tbl
 .rodata.str1.4
                0x00000000100130e0        0x9 ..\..\libs\ble\libbtstack_central.a(hct_proc.o)
 *fill*         0x00000000100130e9        0x3 
 .rodata        0x00000000100130ec       0x4c ..\..\libs\ble\libbtstack_central.a(hct_proc.o)
 .rodata.le.mgr_cntl.tbl
                0x0000000010013138       0x70 ..\..\libs\ble\libbtstack_central.a(mgr_hci.o)
                0x0000000010013138                mgr_hci_cmd_tbl
 .rodata        0x00000000100131a8       0x1c ..\..\libs\ble\libbtstack_central.a(ll_scan.o)
 .rodata.bb.tbl
                0x00000000100131c4        0x7 ..\..\libs\ble\libbtstack_central.a(ble_hal.o)
 *fill*         0x00000000100131cb        0x1 
 .rodata.bb.tbl
                0x00000000100131cc        0x8 ..\..\libs\ble\libbtstack_central.a(ble_con.o)
                0x00000000100131cc                connect_req_dur_tab
 .rodata.bb.tbl
                0x00000000100131d4       0x10 ..\..\libs\ble\libbtstack_central.a(bb_utils.o)
                0x00000000100131d4                null_array
 .rodata.str1.4
                0x00000000100131e4       0x21 ..\..\libs\ble\libbtstack_central.a(bb.o)
 *fill*         0x0000000010013205        0x3 
 .rodata        0x0000000010013208       0x24 ..\..\libs\ble\libbtstack_central.a(bb.o)
                0x0000000010013208                bb_hook
 .rodata.stack.l2cap
                0x000000001001322c        0x2 ..\..\libs\ble\libbtstack_central.a(l2cap.o)
 *fill*         0x000000001001322e        0x2 
 .rodata.str1.4
                0x0000000010013230       0xb7 ..\..\libs\ble\libbtstack_central.a(hci_cmd.o)
                                         0xd3 (size before relaxing)
 *fill*         0x00000000100132e7        0x1 
 .rodata.btstakc.hci
                0x00000000100132e8        0x8 ..\..\libs\ble\libbtstack_central.a(hci_cmd.o)
                0x00000000100132e8                hci_num_of_packet_complete
 .rodata.stack.hci_send
                0x00000000100132f0      0x120 ..\..\libs\ble\libbtstack_central.a(hci_cmd.o)
                0x00000000100132f0                hci_le_write_rf_path_compensation
                0x00000000100132f8                hci_le_read_rf_path_compensation
                0x0000000010013300                hci_le_transmit_power
                0x0000000010013308                hci_le_read_periodic_adv_list_size
                0x0000000010013310                hci_le_set_default_phy
                0x0000000010013318                hci_le_long_term_key_negative_reply
                0x0000000010013320                hci_le_long_term_key_request_reply
                0x0000000010013328                hci_le_rand
                0x0000000010013330                hci_le_encrypt
                0x0000000010013338                hci_le_connection_update
                0x0000000010013340                hci_le_add_device_to_per_adv_list
                0x0000000010013348                hci_le_per_advertising_terminate_sync
                0x0000000010013350                hci_le_per_advertising_creat_sync_cancel
                0x0000000010013358                hci_le_per_advertising_creat_sync
                0x0000000010013360                hci_ext_creat_connection
                0x0000000010013368                hci_le_set_ext_scan_enable
                0x0000000010013370                hci_le_set_ext_scan_parameters
                0x0000000010013378                hci_le_set_per_advertise_enable
                0x0000000010013380                hci_le_set_per_advertising_data
                0x0000000010013388                hci_le_set_per_advertising_parameters
                0x0000000010013390                hci_le_set_ext_advertise_enable
                0x0000000010013398                hci_le_set_ext_scan_response_data
                0x00000000100133a0                hci_le_set_ext_advertising_data
                0x00000000100133a8                hci_le_set_ext_advertising_parameters
                0x00000000100133b0                hci_le_set_advertise_enable
                0x00000000100133b8                hci_le_set_scan_response_data
                0x00000000100133c0                hci_le_set_advertising_data
                0x00000000100133c8                hci_le_set_advertising_parameters
                0x00000000100133d0                hci_le_set_random_address
                0x00000000100133d8                hci_le_read_buffer_size
                0x00000000100133e0                hci_le_start_encryption
                0x00000000100133e8                hci_le_create_connection_cancel
                0x00000000100133f0                hci_le_create_connection
                0x00000000100133f8                hci_le_set_scan_enable
                0x0000000010013400                hci_le_set_scan_parameters
                0x0000000010013408                hci_disconnect
 .rodata        0x0000000010013410       0x24 ..\..\libs\ble\libbtstack_central.a(bb_sche.o)
 .rodata.bb.tbl
                0x0000000010013434       0x81 ..\..\libs\ble\libbtstack_central.a(rf_mate.o)
 *fill*         0x00000000100134b5        0x3 
 .rodata        0x00000000100134b8       0xe0 ..\..\libs\ble\libbtstack_central.a(hct_msg.o)
                0x00000000100134b8                hci_cmd_desc_root_tab
                0x00000000100134f8                hci_evt_desc_tab
                0x0000000010013508                hci_evt_le_desc_tab
                0x000000001001351c                hci_cmd_desc_tab_le
                0x000000001001351c                hci_evt_dbg_desc_tab
                0x0000000010013578                hci_cmd_desc_tab_stat_par
                0x0000000010013578                hci_cmd_desc_tab_info_par
                0x0000000010013584                hci_cmd_desc_tab_ctrl_bb
 .rodata        0x0000000010013598       0x40 ..\..\libs\ble\libbtstack_central.a(mgr_proc.o)
 .rodata.le.ll_cntl.tbl
                0x00000000100135d8       0xf8 ..\..\libs\ble\libbtstack_central.a(ll_proc.o)
                0x00000000100135d8                ll_msg_tbl
                0x00000000100136a8                ll_hci_cmd_tbl
 .rodata.str1.4
                0x00000000100136d0       0x55 ..\..\libs\ble\libbtstack_central.a(ll_cntl.o)
                                         0x59 (size before relaxing)
 *fill*         0x0000000010013725        0x3 
 .rodata.le.ll_cntl.tbl
                0x0000000010013728      0x1f8 ..\..\libs\ble\libbtstack_central.a(ll_cntl.o)
                0x0000000010013728                ll_cntl_pdu_tbl
 .rodata.bb.tbl
                0x0000000010013920       0x1c ..\..\libs\ble\libbtstack_central.a(ble.o)
                0x0000000010013920                ble_ctl
 .rodata.str1.4
                0x000000001001393c       0x14 ..\..\libs\ble\libbtstack_central.a(l2cap_signaling.o)
                                         0x2a (size before relaxing)
 .rodata        0x0000000010013950       0x58 ..\..\libs\ble\libbtstack_central.a(l2cap_signaling.o)
 .rodata        0x00000000100139a8       0x20 ..\..\libs\ble\libbtstack_central.a(vs_proc.o)
 *(.srodata*)
 .srodata       0x00000000100139c8       0x18 ..\..\libs\ble\libbtstack_central.a(mgr.o)
 .srodata       0x00000000100139e0        0xc ..\..\libs\ble\libbtstack_central.a(hct_msg.o)
                0x00000000100139e0                hci_cmd_desc_tab_vs
                0x00000000100139e8                hci_cmd_desc_tab_lk_ctrl
 *(.rela*)
 .rela.text.clk_clk32k_rtc_get
                0x00000000100139ec        0x0 Output\obj\driver\driver_clk.o
 .rela.text.clk_saradc_clk_get
                0x00000000100139ec        0x0 Output\obj\driver\driver_clk.o
 .rela.text.clk_clk2m_ks_get
                0x00000000100139ec        0x0 Output\obj\driver\driver_clk.o
 .rela.text.wk0_edge_capture_config
                0x00000000100139ec        0x0 Output\obj\driver\driver_clk.o
 .rela.text.gpio_edge_capture_config
                0x00000000100139ec        0x0 Output\obj\driver\driver_clk.o
 .rela.text.gpio_edge_capture_config_custom
                0x00000000100139ec        0x0 Output\obj\driver\driver_clk.o
 .rela.text.gpio_set_reset_pin
                0x00000000100139ec        0x0 Output\obj\driver\driver_clk.o
 .rela.text.gpio_edge_pic_config
                0x00000000100139ec        0x0 Output\obj\driver\driver_clk.o
 .rela.text.hsuart_init
                0x00000000100139ec        0x0 Output\obj\driver\driver_clk.o
 .rela.text.hsuart_baud_config
                0x00000000100139ec        0x0 Output\obj\driver\driver_clk.o
 .rela.text.hsuart_pic_config
                0x00000000100139ec        0x0 Output\obj\driver\driver_clk.o
 .rela.text.keyscan_pic_config
                0x00000000100139ec        0x0 Output\obj\driver\driver_clk.o
 .rela.text.ledc_pic_config
                0x00000000100139ec        0x0 Output\obj\driver\driver_clk.o
 .rela.com_pwroff.mode2
                0x00000000100139ec        0x0 Output\obj\driver\driver_clk.o
 .rela.com_sleep.lp_wakeup
                0x00000000100139ec        0x0 Output\obj\driver\driver_clk.o
 .rela.text.lowpwr_get_wakeup_source
                0x00000000100139ec        0x0 Output\obj\driver\driver_clk.o
 .rela.text.lowpwr_wk0_wakeup_config
                0x00000000100139ec        0x0 Output\obj\driver\driver_clk.o
 .rela.text.lowpwr_gpio_wakeup_config
                0x00000000100139ec        0x0 Output\obj\driver\driver_clk.o
 .rela.text.lowpwr_gpio_wakeup_config_custom
                0x00000000100139ec        0x0 Output\obj\driver\driver_clk.o
 .rela.text.lowpwr_wakeup_config
                0x00000000100139ec        0x0 Output\obj\driver\driver_clk.o
 .rela.com_pwroff.mode1
                0x00000000100139ec        0x0 Output\obj\driver\driver_clk.o
 .rela.com_sleep.proc_do
                0x00000000100139ec        0x0 Output\obj\driver\driver_clk.o
 .rela.com_sleep.sleep
                0x00000000100139ec        0x0 Output\obj\driver\driver_clk.o
 .rela.text.rtc_pic_config
                0x00000000100139ec        0x0 Output\obj\driver\driver_clk.o
 .rela.text.saradc_mic_init
                0x00000000100139ec        0x0 Output\obj\driver\driver_clk.o
 .rela.text.saradc_init
                0x00000000100139ec        0x0 Output\obj\driver\driver_clk.o
 .rela.text.saradc_deinit
                0x00000000100139ec        0x0 Output\obj\driver\driver_clk.o
 .rela.text.saradc_set_baud
                0x00000000100139ec        0x0 Output\obj\driver\driver_clk.o
 .rela.text.saradc_pic_config
                0x00000000100139ec        0x0 Output\obj\driver\driver_clk.o
 .rela.com_periph.saradc.get_data
                0x00000000100139ec        0x0 Output\obj\driver\driver_clk.o
 .rela.text.spi_init
                0x00000000100139ec        0x0 Output\obj\driver\driver_clk.o
 .rela.text.tmr_pic_config
                0x00000000100139ec        0x0 Output\obj\driver\driver_clk.o
 .rela.text.uart_init
                0x00000000100139ec        0x0 Output\obj\driver\driver_clk.o
 .rela.text.uart_pic_config
                0x00000000100139ec        0x0 Output\obj\driver\driver_clk.o
 .rela.text.uart_baud_config
                0x00000000100139ec        0x0 Output\obj\driver\driver_clk.o
 .rela.text.app.proc.func
                0x00000000100139ec        0x0 Output\obj\driver\driver_clk.o
 .rela.text.func
                0x00000000100139ec        0x0 Output\obj\driver\driver_clk.o
 .rela.text.app.proc.bt
                0x00000000100139ec        0x0 Output\obj\driver\driver_clk.o
 .rela.text.func.bt
                0x00000000100139ec        0x0 Output\obj\driver\driver_clk.o
 .rela.text.func.idle
                0x00000000100139ec        0x0 Output\obj\driver\driver_clk.o
 .rela.text.lowpwr_pwroff_wakeup_config
                0x00000000100139ec        0x0 Output\obj\driver\driver_clk.o
 .rela.text.lowpwr.pwroff
                0x00000000100139ec        0x0 Output\obj\driver\driver_clk.o
 .rela.text.ble_get_scan_data
                0x00000000100139ec        0x0 Output\obj\driver\driver_clk.o
 .rela.text.ble_get_adv_data
                0x00000000100139ec        0x0 Output\obj\driver\driver_clk.o
 .rela.text.ble_adv_param_init
                0x00000000100139ec        0x0 Output\obj\driver\driver_clk.o
 .rela.text.ble_client_event_callback
                0x00000000100139ec        0x0 Output\obj\driver\driver_clk.o
 .rela.text.ble_client_notify_callback
                0x00000000100139ec        0x0 Output\obj\driver\driver_clk.o
 .rela.text.ble_client_init
                0x00000000100139ec        0x0 Output\obj\driver\driver_clk.o
 .rela.text.ble_scan_en_test
                0x00000000100139ec        0x0 Output\obj\driver\driver_clk.o
 .rela.text.ble_write_test
                0x00000000100139ec        0x0 Output\obj\driver\driver_clk.o
 .rela.text.ble_write_to_server
                0x00000000100139ec        0x0 Output\obj\driver\driver_clk.o
 .rela.text.ble_read_test
                0x00000000100139ec        0x0 Output\obj\driver\driver_clk.o
 .rela.text.ble_txpkt_init
                0x00000000100139ec        0x0 Output\obj\driver\driver_clk.o
 .rela.text.ble_sm_param_init
                0x00000000100139ec        0x0 Output\obj\driver\driver_clk.o
 .rela.text.ble_scan_param_init
                0x00000000100139ec        0x0 Output\obj\driver\driver_clk.o
 .rela.text.ble_central_init
                0x00000000100139ec        0x0 Output\obj\driver\driver_clk.o
 .rela.text.ble_periph_init
                0x00000000100139ec        0x0 Output\obj\driver\driver_clk.o
 .rela.text.bsp_ble_init
                0x00000000100139ec        0x0 Output\obj\driver\driver_clk.o
 .rela.text.ble_enter_sleep_proc
                0x00000000100139ec        0x0 Output\obj\driver\driver_clk.o
 .rela.text.ble_exit_sleep_proc
                0x00000000100139ec        0x0 Output\obj\driver\driver_clk.o
 .rela.text.ble_service_init
                0x00000000100139ec        0x0 Output\obj\driver\driver_clk.o
 .rela.text.service_write_callback
                0x00000000100139ec        0x0 Output\obj\driver\driver_clk.o
 .rela.text.service_read_callback
                0x00000000100139ec        0x0 Output\obj\driver\driver_clk.o
 .rela.com_sleep.ble.sleep
                0x00000000100139ec        0x0 Output\obj\driver\driver_clk.o
 .rela.text.service_notify_event
                0x00000000100139ec        0x0 Output\obj\driver\driver_clk.o
 .rela.text.ble_user_service_init
                0x00000000100139ec        0x0 Output\obj\driver\driver_clk.o
 .rela.text.app.proc.ble
                0x00000000100139ec        0x0 Output\obj\driver\driver_clk.o
 .rela.text.bsp.param
                0x00000000100139ec        0x0 Output\obj\driver\driver_clk.o
 .rela.text.bsp.param.fota
                0x00000000100139ec        0x0 Output\obj\driver\driver_clk.o
 .rela.com_text.timer
                0x00000000100139ec        0x0 Output\obj\driver\driver_clk.o
 .rela.text.bsp.sys.init
                0x00000000100139ec        0x0 Output\obj\driver\driver_clk.o
 .rela.com_text.isr
                0x00000000100139ec        0x0 Output\obj\driver\driver_clk.o
 .rela.text.uart_cmd_buff_error
                0x00000000100139ec        0x0 Output\obj\driver\driver_clk.o
 .rela.text.uart_cmd_success_feedback
                0x00000000100139ec        0x0 Output\obj\driver\driver_clk.o
 .rela.text.uart_send_cmd
                0x00000000100139ec        0x0 Output\obj\driver\driver_clk.o
 .rela.text.uart_transfer_init
                0x00000000100139ec        0x0 Output\obj\driver\driver_clk.o
 .rela.com_periph.uart.send
                0x00000000100139ec        0x0 Output\obj\driver\driver_clk.o
 .rela.text.uart_transfer_rx_event
                0x00000000100139ec        0x0 Output\obj\driver\driver_clk.o
 .rela.text.startup.main
                0x00000000100139ec        0x0 Output\obj\driver\driver_clk.o
 .rela.text.ble_get_local_bd_addr
                0x00000000100139ec        0x0 Output\obj\driver\driver_clk.o
 .rela.text.bt_rf_get_param
                0x00000000100139ec        0x0 Output\obj\driver\driver_clk.o
 .rela.com_sleep.rf.txpwr
                0x00000000100139ec        0x0 Output\obj\driver\driver_clk.o
 .rela.text.ble_get_link_info
                0x00000000100139ec        0x0 Output\obj\driver\driver_clk.o
 .rela.text.ble_put_link_info
                0x00000000100139ec        0x0 Output\obj\driver\driver_clk.o
 .rela.text.thread_create_callback
                0x00000000100139ec        0x0 Output\obj\driver\driver_clk.o
 .rela.text.xosc_get_xcfg
                0x00000000100139ec        0x0 Output\obj\driver\driver_clk.o
 .rela.text.param_xosc_write
                0x00000000100139ec        0x0 Output\obj\driver\driver_clk.o
 .rela.text.uart_debug_init_callback
                0x00000000100139ec        0x0 Output\obj\driver\driver_clk.o
 .rela.text.user_data_write
                0x00000000100139ec        0x0 Output\obj\driver\driver_clk.o
 .rela.text.user_data_read
                0x00000000100139ec        0x0 Output\obj\driver\driver_clk.o
 .rela.text.ble_scan_re_en_delay_set
                0x00000000100139ec        0x0 Output\obj\driver\driver_clk.o
 .rela.text.delay_check
                0x00000000100139ec        0x0 Output\obj\driver\driver_clk.o
 .rela.text.audio_mic_power
                0x00000000100139ec        0x0 Output\obj\driver\driver_clk.o
 .rela.text.audio_mic_analog_init
                0x00000000100139ec        0x0 Output\obj\driver\driver_clk.o
 .rela.text.audio_micdc_trim_step0_init
                0x00000000100139ec        0x0 Output\obj\driver\driver_clk.o
 .rela.text.audio_micdc_trim_step0_waiting
                0x00000000100139ec        0x0 Output\obj\driver\driver_clk.o
 .rela.text.audio_micdc_trim_step0_run
                0x00000000100139ec        0x0 Output\obj\driver\driver_clk.o
 .rela.text.audio_micdc_trim_step1_init
                0x00000000100139ec        0x0 Output\obj\driver\driver_clk.o
 .rela.text.audio_micdc_trim_step1_waiting
                0x00000000100139ec        0x0 Output\obj\driver\driver_clk.o
 .rela.text.audio_micdc_trim_step1_run
                0x00000000100139ec        0x0 Output\obj\driver\driver_clk.o
 .rela.text.micin_config
                0x00000000100139ec        0x0 Output\obj\driver\driver_clk.o
 .rela.text.audio_micin_trim_step0_init
                0x00000000100139ec        0x0 Output\obj\driver\driver_clk.o
 .rela.text.audio_micin_trim_step0_waiting
                0x00000000100139ec        0x0 Output\obj\driver\driver_clk.o
 .rela.text.audio_micin_trim_step1_init
                0x00000000100139ec        0x0 Output\obj\driver\driver_clk.o
 .rela.text.audio_micin_trim_step2_run
                0x00000000100139ec        0x0 Output\obj\driver\driver_clk.o
 .rela.text.audio_mic_trim_proc
                0x00000000100139ec        0x0 Output\obj\driver\driver_clk.o
 .rela.text.cm_loadpage
                0x00000000100139ec        0x0 Output\obj\driver\driver_clk.o
 .rela.text.cm_next_freepage
                0x00000000100139ec        0x0 Output\obj\driver\driver_clk.o
 .rela.text.cm_factory
                0x00000000100139ec        0x0 Output\obj\driver\driver_clk.o
 .rela.text.cm_writepage
                0x00000000100139ec        0x0 Output\obj\driver\driver_clk.o
 .rela.text.cm_movepage
                0x00000000100139ec        0x0 Output\obj\driver\driver_clk.o
 .rela.text.cm_erase
                0x00000000100139ec        0x0 Output\obj\driver\driver_clk.o
 .rela.text.cm_release
                0x00000000100139ec        0x0 Output\obj\driver\driver_clk.o
 .rela.text.cm_savepage
                0x00000000100139ec        0x0 Output\obj\driver\driver_clk.o
 .rela.text.cm_check_loadpage
                0x00000000100139ec        0x0 Output\obj\driver\driver_clk.o
 .rela.text.cm_move_allpages
                0x00000000100139ec        0x0 Output\obj\driver\driver_clk.o
 .rela.text.cm_sync
                0x00000000100139ec        0x0 Output\obj\driver\driver_clk.o
 .rela.text.cm_release_all
                0x00000000100139ec        0x0 Output\obj\driver\driver_clk.o
 .rela.text.cm_read
                0x00000000100139ec        0x0 Output\obj\driver\driver_clk.o
 .rela.text.cm_read8
                0x00000000100139ec        0x0 Output\obj\driver\driver_clk.o
 .rela.text.cm_read16
                0x00000000100139ec        0x0 Output\obj\driver\driver_clk.o
 .rela.text.cm_read32
                0x00000000100139ec        0x0 Output\obj\driver\driver_clk.o
 .rela.text.cm_write
                0x00000000100139ec        0x0 Output\obj\driver\driver_clk.o
 .rela.text.cm_write8
                0x00000000100139ec        0x0 Output\obj\driver\driver_clk.o
 .rela.text.cm_write16
                0x00000000100139ec        0x0 Output\obj\driver\driver_clk.o
 .rela.text.cm_write32
                0x00000000100139ec        0x0 Output\obj\driver\driver_clk.o
 .rela.text.cm_clear
                0x00000000100139ec        0x0 Output\obj\driver\driver_clk.o
 .rela.text.cm_init
                0x00000000100139ec        0x0 Output\obj\driver\driver_clk.o
 .rela.com_text.spiflash.id
                0x00000000100139ec        0x0 Output\obj\driver\driver_clk.o
 .rela.com_text.spiflash
                0x00000000100139ec        0x0 Output\obj\driver\driver_clk.o
 .rela.text.xcfg_init
                0x00000000100139ec        0x0 Output\obj\driver\driver_clk.o
 .rela.com_text.delay
                0x00000000100139ec        0x0 Output\obj\driver\driver_clk.o
 .rela.text.platform_main
                0x00000000100139ec        0x0 Output\obj\driver\driver_clk.o
 .rela.text.main_startup
                0x00000000100139ec        0x0 Output\obj\driver\driver_clk.o
 .rela.com_text.irq
                0x00000000100139ec        0x0 Output\obj\driver\driver_clk.o
 .rela.com_text.irq.wpt
                0x00000000100139ec        0x0 Output\obj\driver\driver_clk.o
 .rela.text.sys_irq_init
                0x00000000100139ec        0x0 Output\obj\driver\driver_clk.o
 .rela.text.soft_irq_init
                0x00000000100139ec        0x0 Output\obj\driver\driver_clk.o
 .rela.text.bthw_irq_init
                0x00000000100139ec        0x0 Output\obj\driver\driver_clk.o
 .rela.text.watch_point_set
                0x00000000100139ec        0x0 Output\obj\driver\driver_clk.o
 .rela.text.usb_irq_init
                0x00000000100139ec        0x0 Output\obj\driver\driver_clk.o
 .rela.text.sys_timer_init
                0x00000000100139ec        0x0 Output\obj\driver\driver_clk.o
 .rela.text.thread_timer_create
                0x00000000100139ec        0x0 Output\obj\driver\driver_clk.o
 .rela.text.thread_btstack_create
                0x00000000100139ec        0x0 Output\obj\driver\driver_clk.o
 .rela.text.thread_driver_create
                0x00000000100139ec        0x0 Output\obj\driver\driver_clk.o
 .rela.text.thread_main_entry
                0x00000000100139ec        0x0 Output\obj\driver\driver_clk.o
 .rela.text.startup.init
                0x00000000100139ec        0x0 Output\obj\driver\driver_clk.o
 .rela.com_text.thread.driver.usb
                0x00000000100139ec        0x0 Output\obj\driver\driver_clk.o
 .rela.com_text.thread.driver.vs
                0x00000000100139ec        0x0 Output\obj\driver\driver_clk.o
 .rela.com_text.thread.driver.enter
                0x00000000100139ec        0x0 Output\obj\driver\driver_clk.o
 .rela.text.pll0_vco_band_trimming
                0x00000000100139ec        0x0 Output\obj\driver\driver_clk.o
 .rela.text.pll0_init
                0x00000000100139ec        0x0 Output\obj\driver\driver_clk.o
 .rela.text.pll_ext_init
                0x00000000100139ec        0x0 Output\obj\driver\driver_clk.o
 .rela.com_text.trim.vddio_get
                0x00000000100139ec        0x0 Output\obj\driver\driver_clk.o
 .rela.com_text.trim.vddio_set
                0x00000000100139ec        0x0 Output\obj\driver\driver_clk.o
 .rela.com_text.trim.core_get
                0x00000000100139ec        0x0 Output\obj\driver\driver_clk.o
 .rela.com_text.trim.core_set
                0x00000000100139ec        0x0 Output\obj\driver\driver_clk.o
 .rela.com_text.trim.lvd_get
                0x00000000100139ec        0x0 Output\obj\driver\driver_clk.o
 .rela.com_text.trim.lvd_set
                0x00000000100139ec        0x0 Output\obj\driver\driver_clk.o
 .rela.text.pmu_voltage_configure
                0x00000000100139ec        0x0 Output\obj\driver\driver_clk.o
 .rela.text.pmu_init
                0x00000000100139ec        0x0 Output\obj\driver\driver_clk.o
 .rela.reset    0x00000000100139ec        0x0 Output\obj\driver\driver_clk.o
 .rela.vector   0x00000000100139ec        0x0 Output\obj\driver\driver_clk.o
 .rela.text.lock_code_usbdev
                0x00000000100139ec        0x0 Output\obj\driver\driver_clk.o
 .rela.text.patch_init
                0x00000000100139ec        0x0 Output\obj\driver\driver_clk.o
 .rela.com_sleep.lp.sleep
                0x00000000100139ec        0x0 Output\obj\driver\driver_clk.o
 .rela.text.rc2m_clk_nhz_cal
                0x00000000100139ec        0x0 Output\obj\driver\driver_clk.o
 .rela.text.sys_clk
                0x00000000100139ec        0x0 Output\obj\driver\driver_clk.o
 .rela.com_text.stack.api
                0x00000000100139ec        0x0 Output\obj\driver\driver_clk.o
 .rela.com_text.stack.run_loop
                0x00000000100139ec        0x0 Output\obj\driver\driver_clk.o
 .rela.text     0x00000000100139ec        0x0 Output\obj\driver\driver_clk.o
 .rela.text.stack.send.txpkt
                0x00000000100139ec        0x0 Output\obj\driver\driver_clk.o
 .rela.text.txpkt.flush
                0x00000000100139ec        0x0 Output\obj\driver\driver_clk.o
 .rela.text.stack.hci_init
                0x00000000100139ec        0x0 Output\obj\driver\driver_clk.o
 .rela.text.stack.setup
                0x00000000100139ec        0x0 Output\obj\driver\driver_clk.o
 .rela.text.stack.hci
                0x00000000100139ec        0x0 Output\obj\driver\driver_clk.o
 .rela.text.stack.hci.conn
                0x00000000100139ec        0x0 Output\obj\driver\driver_clk.o
 .rela.text.ble.hci
                0x00000000100139ec        0x0 Output\obj\driver\driver_clk.o
 .rela.text.stack.hci_send
                0x00000000100139ec        0x0 Output\obj\driver\driver_clk.o
 .rela.text.stack.hci.run
                0x00000000100139ec        0x0 Output\obj\driver\driver_clk.o
 .rela.text.stack.send.hci
                0x00000000100139ec        0x0 Output\obj\driver\driver_clk.o
 .rela.com_text.stack.hci_recv
                0x00000000100139ec        0x0 Output\obj\driver\driver_clk.o
 .rela.text.sm.aes
                0x00000000100139ec        0x0 Output\obj\driver\driver_clk.o
 .rela.text.sm.rau_run
                0x00000000100139ec        0x0 Output\obj\driver\driver_clk.o
 .rela.text.gap.rau.update
                0x00000000100139ec        0x0 Output\obj\driver\driver_clk.o
 .rela.text.stack.ble.sm
                0x00000000100139ec        0x0 Output\obj\driver\driver_clk.o
 .rela.text.sm.request
                0x00000000100139ec        0x0 Output\obj\driver\driver_clk.o
 .rela.text.sm.pairing
                0x00000000100139ec        0x0 Output\obj\driver\driver_clk.o
 .rela.text.gap.rau.mode
                0x00000000100139ec        0x0 Output\obj\driver\driver_clk.o
 .rela.text.sm.run
                0x00000000100139ec        0x0 Output\obj\driver\driver_clk.o
 .rela.text.sm.pdu
                0x00000000100139ec        0x0 Output\obj\driver\driver_clk.o
 .rela.text.sm.event
                0x00000000100139ec        0x0 Output\obj\driver\driver_clk.o
 .rela.text.gap.rau_set
                0x00000000100139ec        0x0 Output\obj\driver\driver_clk.o
 .rela.text.sm.delete_bonding
                0x00000000100139ec        0x0 Output\obj\driver\driver_clk.o
 .rela.text.le.db.get
                0x00000000100139ec        0x0 Output\obj\driver\driver_clk.o
 .rela.text.le.db.set
                0x00000000100139ec        0x0 Output\obj\driver\driver_clk.o
 .rela.text.le.db.read
                0x00000000100139ec        0x0 Output\obj\driver\driver_clk.o
 .rela.text.le.db.init
                0x00000000100139ec        0x0 Output\obj\driver\driver_clk.o
 .rela.text.le.db.remove
                0x00000000100139ec        0x0 Output\obj\driver\driver_clk.o
 .rela.text.le.db.remove_all
                0x00000000100139ec        0x0 Output\obj\driver\driver_clk.o
 .rela.text.le.db.add
                0x00000000100139ec        0x0 Output\obj\driver\driver_clk.o
 .rela.text.le.db
                0x00000000100139ec        0x0 Output\obj\driver\driver_clk.o
 .rela.text.le.db.dump
                0x00000000100139ec        0x0 Output\obj\driver\driver_clk.o
 .rela.text.stack.send.ntf_do
                0x00000000100139ec        0x0 Output\obj\driver\driver_clk.o
 .rela.text.stack.send.ntf
                0x00000000100139ec        0x0 Output\obj\driver\driver_clk.o
 .rela.text.ble.indicate
                0x00000000100139ec        0x0 Output\obj\driver\driver_clk.o
 .rela.text.stack.send.server
                0x00000000100139ec        0x0 Output\obj\driver\driver_clk.o
 .rela.text.client.request_can_send
                0x00000000100139ec        0x0 Output\obj\driver\driver_clk.o
 .rela.text.client.write_req
                0x00000000100139ec        0x0 Output\obj\driver\driver_clk.o
 .rela.text.sm.client
                0x00000000100139ec        0x0 Output\obj\driver\driver_clk.o
 .rela.text.stack.send.client
                0x00000000100139ec        0x0 Output\obj\driver\driver_clk.o
 .rela.text.sm.server
                0x00000000100139ec        0x0 Output\obj\driver\driver_clk.o
 .rela.text.server.init
                0x00000000100139ec        0x0 Output\obj\driver\driver_clk.o
 .rela.text.server.packet_handler
                0x00000000100139ec        0x0 Output\obj\driver\driver_clk.o
 .rela.text.att.event_handler
                0x00000000100139ec        0x0 Output\obj\driver\driver_clk.o
 .rela.text.server.indicate
                0x00000000100139ec        0x0 Output\obj\driver\driver_clk.o
 .rela.text.att.register_client
                0x00000000100139ec        0x0 Output\obj\driver\driver_clk.o
 .rela.text.att.register_server
                0x00000000100139ec        0x0 Output\obj\driver\driver_clk.o
 .rela.text.att.dispatch_server
                0x00000000100139ec        0x0 Output\obj\driver\driver_clk.o
 .rela.text.att.dispatch_client
                0x00000000100139ec        0x0 Output\obj\driver\driver_clk.o
 .rela.text.stack.send.dispatch_server
                0x00000000100139ec        0x0 Output\obj\driver\driver_clk.o
 .rela.text.att.mtu_request
                0x00000000100139ec        0x0 Output\obj\driver\driver_clk.o
 .rela.text.stack.h3c
                0x00000000100139ec        0x0 Output\obj\driver\driver_clk.o
 .rela.com_text.stack.h3c
                0x00000000100139ec        0x0 Output\obj\driver\driver_clk.o
 .rela.com_text.stack.util
                0x00000000100139ec        0x0 Output\obj\driver\driver_clk.o
 .rela.text.btstack.hci.h3c.init
                0x00000000100139ec        0x0 Output\obj\driver\driver_clk.o
 .rela.rodata   0x00000000100139ec        0x0 Output\obj\driver\driver_clk.o
 .rela.com_text.stack.uart_isr
                0x00000000100139ec        0x0 Output\obj\driver\driver_clk.o
 .rela.text.stack.hal
                0x00000000100139ec        0x0 Output\obj\driver\driver_clk.o
 .rela.text.stack.sleep
                0x00000000100139ec        0x0 Output\obj\driver\driver_clk.o
 .rela.text.stack.api
                0x00000000100139ec        0x0 Output\obj\driver\driver_clk.o
 .rela.com_text.ret.bb.sleep
                0x00000000100139ec        0x0 Output\obj\driver\driver_clk.o
 .rela.rodata.stack.api
                0x00000000100139ec        0x0 Output\obj\driver\driver_clk.o
 .rela.text.ble.api.conn.update
                0x00000000100139ec        0x0 Output\obj\driver\driver_clk.o
 .rela.text.ble.api.max_mtu
                0x00000000100139ec        0x0 Output\obj\driver\driver_clk.o
 .rela.text.ble.api.conn_do
                0x00000000100139ec        0x0 Output\obj\driver\driver_clk.o
 .rela.text.ble.api.regist
                0x00000000100139ec        0x0 Output\obj\driver\driver_clk.o
 .rela.text.ble.set_static_addr
                0x00000000100139ec        0x0 Output\obj\driver\driver_clk.o
 .rela.text.ble.single_mode
                0x00000000100139ec        0x0 Output\obj\driver\driver_clk.o
 .rela.text.rf.tx_tone
                0x00000000100139ec        0x0 Output\obj\driver\driver_clk.o
 .rela.text.le.mgr
                0x00000000100139ec        0x0 Output\obj\driver\driver_clk.o
 .rela.rodata.le.mgr_cntl.tbl
                0x00000000100139ec        0x0 Output\obj\driver\driver_clk.o
 .rela.text.le.ll_scan
                0x00000000100139ec        0x0 Output\obj\driver\driver_clk.o
 .rela.text.le.ll_cntl
                0x00000000100139ec        0x0 Output\obj\driver\driver_clk.o
 .rela.text.le.ll_cntl.start
                0x00000000100139ec        0x0 Output\obj\driver\driver_clk.o
 .rela.com_text.ble.isr.con.end
                0x00000000100139ec        0x0 Output\obj\driver\driver_clk.o
 .rela.com_text.bb.buf
                0x00000000100139ec        0x0 Output\obj\driver\driver_clk.o
 .rela.text.le.stack
                0x00000000100139ec        0x0 Output\obj\driver\driver_clk.o
 .rela.com_text.bb.isr
                0x00000000100139ec        0x0 Output\obj\driver\driver_clk.o
 .rela.com_sleep.bb
                0x00000000100139ec        0x0 Output\obj\driver\driver_clk.o
 .rela.text.bb.aes
                0x00000000100139ec        0x0 Output\obj\driver\driver_clk.o
 .rela.text.stack.ble.setup
                0x00000000100139ec        0x0 Output\obj\driver\driver_clk.o
 .rela.com_sleep.rfphy
                0x00000000100139ec        0x0 Output\obj\driver\driver_clk.o
 .rela.text.rfphy.other
                0x00000000100139ec        0x0 Output\obj\driver\driver_clk.o
 .rela.com_sleep.rfphy.init
                0x00000000100139ec        0x0 Output\obj\driver\driver_clk.o
 .rela.com_text.ble.isr
                0x00000000100139ec        0x0 Output\obj\driver\driver_clk.o
 .rela.com_rodata.bb.tbl
                0x00000000100139ec        0x0 Output\obj\driver\driver_clk.o
 .rela.rodata.le.ll_cntl.tbl
                0x00000000100139ec        0x0 Output\obj\driver\driver_clk.o
 .rela.text.le.ll_cntl.pdu
                0x00000000100139ec        0x0 Output\obj\driver\driver_clk.o
 .rela.text.le.ll_cntl.send
                0x00000000100139ec        0x0 Output\obj\driver\driver_clk.o
 .rela.text.ble.var.init
                0x00000000100139ec        0x0 Output\obj\driver\driver_clk.o
 .rela.text.bb.vs.fcc
                0x00000000100139ec        0x0 Output\obj\driver\driver_clk.o
                0x00000000100139ec        0x4 LONG 0x0
                0x0000000010013a00                . = ALIGN (0x200)
 *fill*         0x00000000100139f0       0x10 

.stack          0x0000000000010800      0x400
                0x0000000000010800                __irq_stack_start = .
                0x0000000000000400                . = 0x400
 *fill*         0x0000000000010800      0x400 
                0x0000000000010c00                __irq_stack = .
                0x0000000000000400                __irq_stack_size = (__irq_stack - __irq_stack_start)
                0x0000000000012800                __bank_size = SIZEOF (.flash)
                0x0000000010000200                __comm_lma = LOADADDR (.comm)
                0x0000000000000d00                __comm_size = SIZEOF (.comm)
                0x0000000010000f00                __pdn_comm_lma = LOADADDR (.pdn_comm)
                0x0000000000000200                __pdn_comm_size = SIZEOF (.pdn_comm)
LOAD ..\..\libs\cpu\libplatform.a
LOAD ..\..\libs\cpu\libm.a
LOAD ..\..\libs\cpu\libc.a
LOAD ..\..\libs\cpu\libgcc.a
LOAD ..\..\libs\ble\libbtstack_central.a
OUTPUT(Output\bin\app.rv32 elf32-littleriscv)

.comment        0x0000000000000000       0x23
 .comment       0x0000000000000000       0x11 Output\obj\driver\driver_clk.o
                                         0x12 (size before relaxing)
 .comment       0x0000000000000011       0x12 Output\obj\driver\driver_gpio.o
 .comment       0x0000000000000011       0x12 Output\obj\driver\driver_lowpwr.o
 .comment       0x0000000000000011       0x12 Output\obj\driver\driver_saradc.o
 .comment       0x0000000000000011       0x12 Output\obj\driver\driver_uart.o
 .comment       0x0000000000000011       0x12 Output\obj\project\ble_peripheral\app\func.o
 .comment       0x0000000000000011       0x12 Output\obj\project\ble_peripheral\app\func_bt.o
 .comment       0x0000000000000011       0x12 Output\obj\project\ble_peripheral\app\func_idle.o
 .comment       0x0000000000000011       0x12 Output\obj\project\ble_peripheral\app\func_lowpwr.o
 .comment       0x0000000000000011       0x12 Output\obj\project\ble_peripheral\ble\ble_client.o
 .comment       0x0000000000000011       0x12 Output\obj\project\ble_peripheral\ble\ble_init.o
 .comment       0x0000000000000011       0x12 Output\obj\project\ble_peripheral\ble\ble_proc.o
 .comment       0x0000000000000011       0x12 Output\obj\project\ble_peripheral\ble\ble_user_service.o
 .comment       0x0000000000000011       0x12 Output\obj\project\ble_peripheral\bsp\bsp_param.o
 .comment       0x0000000000000011       0x12 Output\obj\project\ble_peripheral\bsp\bsp_sys.o
 .comment       0x0000000000000011       0x12 Output\obj\project\ble_peripheral\bsp\bsp_uart_transfer.o
 .comment       0x0000000000000011       0x12 Output\obj\project\ble_peripheral\main.o
 .comment       0x0000000000000011       0x12 Output\obj\project\ble_peripheral\prod_test\prod_test.o
 .comment       0x0000000000000011       0x12 Output\obj\project\ble_peripheral\strong_ble.o
 .comment       0x0000000000000011       0x12 Output\obj\project\ble_peripheral\strong_symbol.o
 .comment       0x0000000000000011       0x12 Output\obj\project\ble_peripheral\user\user_main.o
 .comment       0x0000000000000011       0x12 ..\..\libs\cpu\libplatform.a(cm.o)
                                         0x13 (size before relaxing)
 .comment       0x0000000000000023       0x13 ..\..\libs\cpu\libplatform.a(os_flash.o)
 .comment       0x0000000000000023       0x13 ..\..\libs\cpu\libplatform.a(xcfg.o)
 .comment       0x0000000000000023       0x13 ..\..\libs\cpu\libplatform.a(main.o)
 .comment       0x0000000000000023       0x13 ..\..\libs\cpu\libplatform.a(interrupt.o)
 .comment       0x0000000000000023       0x13 ..\..\libs\cpu\libplatform.a(startup.o)
 .comment       0x0000000000000023       0x13 ..\..\libs\cpu\libplatform.a(sys_hook.o)
 .comment       0x0000000000000023       0x13 ..\..\libs\cpu\libplatform.a(pll.o)
 .comment       0x0000000000000023       0x13 ..\..\libs\cpu\libplatform.a(pmu.o)
 .comment       0x0000000000000023       0x13 ..\..\libs\cpu\libplatform.a(spiflash.o)
 .comment       0x0000000000000023       0x13 ..\..\libs\cpu\libplatform.a(debug.o)
 .comment       0x0000000000000023       0x13 ..\..\libs\cpu\libplatform.a(fot_pack.o)
 .comment       0x0000000000000023       0x13 ..\..\libs\cpu\libplatform.a(lock.o)
 .comment       0x0000000000000023       0x13 ..\..\libs\cpu\libplatform.a(patch.o)
 .comment       0x0000000000000023       0x13 ..\..\libs\cpu\libplatform.a(sys.o)
 .comment       0x0000000000000023       0x13 ..\..\libs\cpu\libplatform.a(sys_clk.o)
 .comment       0x0000000000000023       0x13 ..\..\libs\cpu\libplatform.a(voltage_trim.o)
 .comment       0x0000000000000023       0x13 ..\..\libs\cpu\libplatform.a(weak_symbol.o)
 .comment       0x0000000000000023       0x13 ..\..\libs\cpu\libplatform.a(bt.o)
 .comment       0x0000000000000023       0x13 ..\..\libs\cpu\libplatform.a(freq_det.o)
 .comment       0x0000000000000023       0x13 ..\..\libs\ble\libbtstack_central.a(txpkt.o)
 .comment       0x0000000000000023       0x13 ..\..\libs\ble\libbtstack_central.a(hci.o)
 .comment       0x0000000000000023       0x13 ..\..\libs\ble\libbtstack_central.a(btstack_util.o)
 .comment       0x0000000000000023       0x13 ..\..\libs\ble\libbtstack_central.a(sm.o)
 .comment       0x0000000000000023       0x13 ..\..\libs\ble\libbtstack_central.a(le_device_db_memory.o)
 .comment       0x0000000000000023       0x13 ..\..\libs\ble\libbtstack_central.a(gatt_server.o)
 .comment       0x0000000000000023       0x13 ..\..\libs\ble\libbtstack_central.a(gatt_client.o)
 .comment       0x0000000000000023       0x13 ..\..\libs\ble\libbtstack_central.a(att_server.o)
 .comment       0x0000000000000023       0x13 ..\..\libs\ble\libbtstack_central.a(att_dispatch.o)
 .comment       0x0000000000000023       0x13 ..\..\libs\ble\libbtstack_central.a(att_db.o)
 .comment       0x0000000000000023       0x13 ..\..\libs\ble\libbtstack_central.a(ad_parser.o)
 .comment       0x0000000000000023       0x13 ..\..\libs\ble\libbtstack_central.a(hci_transport_h3_controller.o)
 .comment       0x0000000000000023       0x13 ..\..\libs\ble\libbtstack_central.a(hci_transport_dummy.o)
 .comment       0x0000000000000023       0x13 ..\..\libs\ble\libbtstack_central.a(btstack_hal.o)
 .comment       0x0000000000000023       0x13 ..\..\libs\ble\libbtstack_central.a(btstack_api.o)
 .comment       0x0000000000000023       0x13 ..\..\libs\ble\libbtstack_central.a(ble_api.o)
 .comment       0x0000000000000023       0x13 ..\..\libs\ble\libbtstack_central.a(txpkt.o)
 .comment       0x0000000000000023       0x13 ..\..\libs\ble\libbtstack_central.a(platform.o)
 .comment       0x0000000000000023       0x13 ..\..\libs\ble\libbtstack_central.a(rf.o)
 .comment       0x0000000000000023       0x13 ..\..\libs\ble\libbtstack_central.a(hct_proc.o)
 .comment       0x0000000000000023       0x13 ..\..\libs\ble\libbtstack_central.a(hct.o)
 .comment       0x0000000000000023       0x13 ..\..\libs\ble\libbtstack_central.a(mgr_hci.o)
 .comment       0x0000000000000023       0x13 ..\..\libs\ble\libbtstack_central.a(mgr.o)
 .comment       0x0000000000000023       0x13 ..\..\libs\ble\libbtstack_central.a(ll_scan.o)
 .comment       0x0000000000000023       0x13 ..\..\libs\ble\libbtstack_central.a(ll.o)
 .comment       0x0000000000000023       0x13 ..\..\libs\ble\libbtstack_central.a(ble_hal.o)
 .comment       0x0000000000000023       0x13 ..\..\libs\ble\libbtstack_central.a(ble_con.o)
 .comment       0x0000000000000023       0x13 ..\..\libs\ble\libbtstack_central.a(ble_buf.o)
 .comment       0x0000000000000023       0x13 ..\..\libs\ble\libbtstack_central.a(bb_utils.o)
 .comment       0x0000000000000023       0x13 ..\..\libs\ble\libbtstack_central.a(bb_int.o)
 .comment       0x0000000000000023       0x13 ..\..\libs\ble\libbtstack_central.a(bb.o)
 .comment       0x0000000000000023       0x13 ..\..\libs\ble\libbtstack_central.a(extern_ble.o)
 .comment       0x0000000000000023       0x13 ..\..\libs\ble\libbtstack_central.a(l2cap.o)
 .comment       0x0000000000000023       0x13 ..\..\libs\ble\libbtstack_central.a(hci_dump.o)
 .comment       0x0000000000000023       0x13 ..\..\libs\ble\libbtstack_central.a(hci_cmd.o)
 .comment       0x0000000000000023       0x13 ..\..\libs\ble\libbtstack_central.a(btstack_run_loop.o)
 .comment       0x0000000000000023       0x13 ..\..\libs\ble\libbtstack_central.a(btstack_memory.o)
 .comment       0x0000000000000023       0x13 ..\..\libs\ble\libbtstack_central.a(btstack_main.o)
 .comment       0x0000000000000023       0x13 ..\..\libs\ble\libbtstack_central.a(nanos.o)
 .comment       0x0000000000000023       0x13 ..\..\libs\ble\libbtstack_central.a(bb_sche.o)
 .comment       0x0000000000000023       0x13 ..\..\libs\ble\libbtstack_central.a(patch.o)
 .comment       0x0000000000000023       0x13 ..\..\libs\ble\libbtstack_central.a(bb_dbg.o)
 .comment       0x0000000000000023       0x13 ..\..\libs\ble\libbtstack_central.a(bb_clk.o)
 .comment       0x0000000000000023       0x13 ..\..\libs\ble\libbtstack_central.a(aes.o)
 .comment       0x0000000000000023       0x13 ..\..\libs\ble\libbtstack_central.a(extern.o)
 .comment       0x0000000000000023       0x13 ..\..\libs\ble\libbtstack_central.a(vs.o)
 .comment       0x0000000000000023       0x13 ..\..\libs\ble\libbtstack_central.a(rf_mate.o)
 .comment       0x0000000000000023       0x13 ..\..\libs\ble\libbtstack_central.a(scan_hook.o)
 .comment       0x0000000000000023       0x13 ..\..\libs\ble\libbtstack_central.a(ble_hook.o)
 .comment       0x0000000000000023       0x13 ..\..\libs\ble\libbtstack_central.a(hct_msg.o)
 .comment       0x0000000000000023       0x13 ..\..\libs\ble\libbtstack_central.a(mgr_test.o)
 .comment       0x0000000000000023       0x13 ..\..\libs\ble\libbtstack_central.a(mgr_proc.o)
 .comment       0x0000000000000023       0x13 ..\..\libs\ble\libbtstack_central.a(mgr_init.o)
 .comment       0x0000000000000023       0x13 ..\..\libs\ble\libbtstack_central.a(ll_proc.o)
 .comment       0x0000000000000023       0x13 ..\..\libs\ble\libbtstack_central.a(ll_phy_upd.o)
 .comment       0x0000000000000023       0x13 ..\..\libs\ble\libbtstack_central.a(ll_length.o)
 .comment       0x0000000000000023       0x13 ..\..\libs\ble\libbtstack_central.a(ll_feature.o)
 .comment       0x0000000000000023       0x13 ..\..\libs\ble\libbtstack_central.a(ll_encrypt.o)
 .comment       0x0000000000000023       0x13 ..\..\libs\ble\libbtstack_central.a(ll_disconnect.o)
 .comment       0x0000000000000023       0x13 ..\..\libs\ble\libbtstack_central.a(ll_con_upd.o)
 .comment       0x0000000000000023       0x13 ..\..\libs\ble\libbtstack_central.a(ll_cntl.o)
 .comment       0x0000000000000023       0x13 ..\..\libs\ble\libbtstack_central.a(ll_clk_acc.o)
 .comment       0x0000000000000023       0x13 ..\..\libs\ble\libbtstack_central.a(ll_chmap_upd.o)
 .comment       0x0000000000000023       0x13 ..\..\libs\ble\libbtstack_central.a(ble_test.o)
 .comment       0x0000000000000023       0x13 ..\..\libs\ble\libbtstack_central.a(ble_scan.o)
 .comment       0x0000000000000023       0x13 ..\..\libs\ble\libbtstack_central.a(ble_init.o)
 .comment       0x0000000000000023       0x13 ..\..\libs\ble\libbtstack_central.a(ble.o)
 .comment       0x0000000000000023       0x13 ..\..\libs\ble\libbtstack_central.a(bb_alarm.o)
 .comment       0x0000000000000023       0x13 ..\..\libs\ble\libbtstack_central.a(l2cap_signaling.o)
 .comment       0x0000000000000023       0x13 ..\..\libs\ble\libbtstack_central.a(btstack_memory_pool.o)
 .comment       0x0000000000000023       0x13 ..\..\libs\ble\libbtstack_central.a(vs_proc.o)
 .comment       0x0000000000000023       0x13 ..\..\libs\ble\libbtstack_central.a(vs_fcc.o)
 .comment       0x0000000000000023       0x13 ..\..\libs\ble\libbtstack_central.a(ll_version.o)
 .comment       0x0000000000000023       0x13 ..\..\libs\ble\libbtstack_central.a(ble_sync.o)

.riscv.attributes
                0x0000000000000000     0x12f0
 .riscv.attributes
                0x0000000000000000       0x32 ..\..\libs\cpu\libplatform.a(cm.o)
 .riscv.attributes
                0x0000000000000032       0x32 ..\..\libs\cpu\libplatform.a(os_flash.o)
 .riscv.attributes
                0x0000000000000064       0x32 ..\..\libs\cpu\libplatform.a(xcfg.o)
 .riscv.attributes
                0x0000000000000096       0x32 ..\..\libs\cpu\libplatform.a(main.o)
 .riscv.attributes
                0x00000000000000c8       0x32 ..\..\libs\cpu\libplatform.a(interrupt.o)
 .riscv.attributes
                0x00000000000000fa       0x32 ..\..\libs\cpu\libplatform.a(startup.o)
 .riscv.attributes
                0x000000000000012c       0x32 ..\..\libs\cpu\libplatform.a(sys_hook.o)
 .riscv.attributes
                0x000000000000015e       0x32 ..\..\libs\cpu\libplatform.a(pll.o)
 .riscv.attributes
                0x0000000000000190       0x32 ..\..\libs\cpu\libplatform.a(pmu.o)
 .riscv.attributes
                0x00000000000001c2       0x34 ..\..\libs\cpu\libplatform.a(reset.o)
 .riscv.attributes
                0x00000000000001f6       0x32 ..\..\libs\cpu\libplatform.a(spiflash.o)
 .riscv.attributes
                0x0000000000000228       0x32 ..\..\libs\cpu\libplatform.a(debug.o)
 .riscv.attributes
                0x000000000000025a       0x32 ..\..\libs\cpu\libplatform.a(fot_pack.o)
 .riscv.attributes
                0x000000000000028c       0x32 ..\..\libs\cpu\libplatform.a(lock.o)
 .riscv.attributes
                0x00000000000002be       0x32 ..\..\libs\cpu\libplatform.a(patch.o)
 .riscv.attributes
                0x00000000000002f0       0x30 ..\..\libs\cpu\libplatform.a(s_sys.o)
 .riscv.attributes
                0x0000000000000320       0x32 ..\..\libs\cpu\libplatform.a(sys.o)
 .riscv.attributes
                0x0000000000000352       0x32 ..\..\libs\cpu\libplatform.a(sys_clk.o)
 .riscv.attributes
                0x0000000000000384       0x32 ..\..\libs\cpu\libplatform.a(voltage_trim.o)
 .riscv.attributes
                0x00000000000003b6       0x32 ..\..\libs\cpu\libplatform.a(weak_symbol.o)
 .riscv.attributes
                0x00000000000003e8       0x32 ..\..\libs\cpu\libplatform.a(bt.o)
 .riscv.attributes
                0x000000000000041a       0x32 ..\..\libs\cpu\libplatform.a(freq_det.o)
 .riscv.attributes
                0x000000000000044c       0x32 ..\..\libs\ble\libbtstack_central.a(txpkt.o)
 .riscv.attributes
                0x000000000000047e       0x32 ..\..\libs\ble\libbtstack_central.a(hci.o)
 .riscv.attributes
                0x00000000000004b0       0x32 ..\..\libs\ble\libbtstack_central.a(btstack_util.o)
 .riscv.attributes
                0x00000000000004e2       0x32 ..\..\libs\ble\libbtstack_central.a(sm.o)
 .riscv.attributes
                0x0000000000000514       0x32 ..\..\libs\ble\libbtstack_central.a(le_device_db_memory.o)
 .riscv.attributes
                0x0000000000000546       0x32 ..\..\libs\ble\libbtstack_central.a(gatt_server.o)
 .riscv.attributes
                0x0000000000000578       0x32 ..\..\libs\ble\libbtstack_central.a(gatt_client.o)
 .riscv.attributes
                0x00000000000005aa       0x32 ..\..\libs\ble\libbtstack_central.a(att_server.o)
 .riscv.attributes
                0x00000000000005dc       0x32 ..\..\libs\ble\libbtstack_central.a(att_dispatch.o)
 .riscv.attributes
                0x000000000000060e       0x32 ..\..\libs\ble\libbtstack_central.a(att_db.o)
 .riscv.attributes
                0x0000000000000640       0x32 ..\..\libs\ble\libbtstack_central.a(ad_parser.o)
 .riscv.attributes
                0x0000000000000672       0x32 ..\..\libs\ble\libbtstack_central.a(hci_transport_h3_controller.o)
 .riscv.attributes
                0x00000000000006a4       0x32 ..\..\libs\ble\libbtstack_central.a(hci_transport_dummy.o)
 .riscv.attributes
                0x00000000000006d6       0x32 ..\..\libs\ble\libbtstack_central.a(btstack_hal.o)
 .riscv.attributes
                0x0000000000000708       0x32 ..\..\libs\ble\libbtstack_central.a(btstack_api.o)
 .riscv.attributes
                0x000000000000073a       0x32 ..\..\libs\ble\libbtstack_central.a(ble_api.o)
 .riscv.attributes
                0x000000000000076c       0x32 ..\..\libs\ble\libbtstack_central.a(txpkt.o)
 .riscv.attributes
                0x000000000000079e       0x32 ..\..\libs\ble\libbtstack_central.a(platform.o)
 .riscv.attributes
                0x00000000000007d0       0x32 ..\..\libs\ble\libbtstack_central.a(rf.o)
 .riscv.attributes
                0x0000000000000802       0x32 ..\..\libs\ble\libbtstack_central.a(hct_proc.o)
 .riscv.attributes
                0x0000000000000834       0x32 ..\..\libs\ble\libbtstack_central.a(hct.o)
 .riscv.attributes
                0x0000000000000866       0x32 ..\..\libs\ble\libbtstack_central.a(mgr_hci.o)
 .riscv.attributes
                0x0000000000000898       0x32 ..\..\libs\ble\libbtstack_central.a(mgr.o)
 .riscv.attributes
                0x00000000000008ca       0x32 ..\..\libs\ble\libbtstack_central.a(ll_scan.o)
 .riscv.attributes
                0x00000000000008fc       0x32 ..\..\libs\ble\libbtstack_central.a(ll.o)
 .riscv.attributes
                0x000000000000092e       0x32 ..\..\libs\ble\libbtstack_central.a(ble_hal.o)
 .riscv.attributes
                0x0000000000000960       0x32 ..\..\libs\ble\libbtstack_central.a(ble_con.o)
 .riscv.attributes
                0x0000000000000992       0x32 ..\..\libs\ble\libbtstack_central.a(ble_buf.o)
 .riscv.attributes
                0x00000000000009c4       0x32 ..\..\libs\ble\libbtstack_central.a(bb_utils.o)
 .riscv.attributes
                0x00000000000009f6       0x32 ..\..\libs\ble\libbtstack_central.a(bb_int.o)
 .riscv.attributes
                0x0000000000000a28       0x32 ..\..\libs\ble\libbtstack_central.a(bb.o)
 .riscv.attributes
                0x0000000000000a5a       0x32 ..\..\libs\ble\libbtstack_central.a(extern_ble.o)
 .riscv.attributes
                0x0000000000000a8c       0x32 ..\..\libs\ble\libbtstack_central.a(l2cap.o)
 .riscv.attributes
                0x0000000000000abe       0x32 ..\..\libs\ble\libbtstack_central.a(hci_dump.o)
 .riscv.attributes
                0x0000000000000af0       0x32 ..\..\libs\ble\libbtstack_central.a(hci_cmd.o)
 .riscv.attributes
                0x0000000000000b22       0x32 ..\..\libs\ble\libbtstack_central.a(btstack_run_loop.o)
 .riscv.attributes
                0x0000000000000b54       0x32 ..\..\libs\ble\libbtstack_central.a(btstack_memory.o)
 .riscv.attributes
                0x0000000000000b86       0x32 ..\..\libs\ble\libbtstack_central.a(btstack_main.o)
 .riscv.attributes
                0x0000000000000bb8       0x32 ..\..\libs\ble\libbtstack_central.a(nanos.o)
 .riscv.attributes
                0x0000000000000bea       0x32 ..\..\libs\ble\libbtstack_central.a(bb_sche.o)
 .riscv.attributes
                0x0000000000000c1c       0x32 ..\..\libs\ble\libbtstack_central.a(patch.o)
 .riscv.attributes
                0x0000000000000c4e       0x32 ..\..\libs\ble\libbtstack_central.a(bb_dbg.o)
 .riscv.attributes
                0x0000000000000c80       0x32 ..\..\libs\ble\libbtstack_central.a(bb_clk.o)
 .riscv.attributes
                0x0000000000000cb2       0x32 ..\..\libs\ble\libbtstack_central.a(aes.o)
 .riscv.attributes
                0x0000000000000ce4       0x32 ..\..\libs\ble\libbtstack_central.a(extern.o)
 .riscv.attributes
                0x0000000000000d16       0x32 ..\..\libs\ble\libbtstack_central.a(vs.o)
 .riscv.attributes
                0x0000000000000d48       0x32 ..\..\libs\ble\libbtstack_central.a(rf_mate.o)
 .riscv.attributes
                0x0000000000000d7a       0x32 ..\..\libs\ble\libbtstack_central.a(scan_hook.o)
 .riscv.attributes
                0x0000000000000dac       0x32 ..\..\libs\ble\libbtstack_central.a(ble_hook.o)
 .riscv.attributes
                0x0000000000000dde       0x32 ..\..\libs\ble\libbtstack_central.a(hct_msg.o)
 .riscv.attributes
                0x0000000000000e10       0x32 ..\..\libs\ble\libbtstack_central.a(mgr_test.o)
 .riscv.attributes
                0x0000000000000e42       0x32 ..\..\libs\ble\libbtstack_central.a(mgr_proc.o)
 .riscv.attributes
                0x0000000000000e74       0x32 ..\..\libs\ble\libbtstack_central.a(mgr_init.o)
 .riscv.attributes
                0x0000000000000ea6       0x32 ..\..\libs\ble\libbtstack_central.a(ll_proc.o)
 .riscv.attributes
                0x0000000000000ed8       0x32 ..\..\libs\ble\libbtstack_central.a(ll_phy_upd.o)
 .riscv.attributes
                0x0000000000000f0a       0x32 ..\..\libs\ble\libbtstack_central.a(ll_length.o)
 .riscv.attributes
                0x0000000000000f3c       0x32 ..\..\libs\ble\libbtstack_central.a(ll_feature.o)
 .riscv.attributes
                0x0000000000000f6e       0x32 ..\..\libs\ble\libbtstack_central.a(ll_encrypt.o)
 .riscv.attributes
                0x0000000000000fa0       0x32 ..\..\libs\ble\libbtstack_central.a(ll_disconnect.o)
 .riscv.attributes
                0x0000000000000fd2       0x32 ..\..\libs\ble\libbtstack_central.a(ll_con_upd.o)
 .riscv.attributes
                0x0000000000001004       0x32 ..\..\libs\ble\libbtstack_central.a(ll_cntl.o)
 .riscv.attributes
                0x0000000000001036       0x32 ..\..\libs\ble\libbtstack_central.a(ll_clk_acc.o)
 .riscv.attributes
                0x0000000000001068       0x32 ..\..\libs\ble\libbtstack_central.a(ll_chmap_upd.o)
 .riscv.attributes
                0x000000000000109a       0x32 ..\..\libs\ble\libbtstack_central.a(ble_test.o)
 .riscv.attributes
                0x00000000000010cc       0x32 ..\..\libs\ble\libbtstack_central.a(ble_scan.o)
 .riscv.attributes
                0x00000000000010fe       0x32 ..\..\libs\ble\libbtstack_central.a(ble_init.o)
 .riscv.attributes
                0x0000000000001130       0x32 ..\..\libs\ble\libbtstack_central.a(ble.o)
 .riscv.attributes
                0x0000000000001162       0x32 ..\..\libs\ble\libbtstack_central.a(bb_alarm.o)
 .riscv.attributes
                0x0000000000001194       0x32 ..\..\libs\ble\libbtstack_central.a(l2cap_signaling.o)
 .riscv.attributes
                0x00000000000011c6       0x32 ..\..\libs\ble\libbtstack_central.a(btstack_memory_pool.o)
 .riscv.attributes
                0x00000000000011f8       0x30 ..\..\libs\ble\libbtstack_central.a(patch_asm.o)
 .riscv.attributes
                0x0000000000001228       0x32 ..\..\libs\ble\libbtstack_central.a(vs_proc.o)
 .riscv.attributes
                0x000000000000125a       0x32 ..\..\libs\ble\libbtstack_central.a(vs_fcc.o)
 .riscv.attributes
                0x000000000000128c       0x32 ..\..\libs\ble\libbtstack_central.a(ll_version.o)
 .riscv.attributes
                0x00000000000012be       0x32 ..\..\libs\ble\libbtstack_central.a(ble_sync.o)
