Archive member included to satisfy reference by file (symbol)

../../libs/cpu/libplatform.a(audio_mic.o)
                              server_output/obj/driver/driver_saradc.o (audio_mic_analog_init)
../../libs/cpu/libplatform.a(audio_mic_trim.o)
                              ../../libs/cpu/libplatform.a(audio_mic.o) (audio_mic_trim_sta_set)
../../libs/cpu/libplatform.a(cm.o)
                              server_output/obj/bsp/bsp_param.o (cm_sync)
../../libs/cpu/libplatform.a(os_flash.o)
                              ../../libs/cpu/libplatform.a(cm.o) (os_spiflash_program)
../../libs/cpu/libplatform.a(xcfg.o)
                              server_output/obj/bsp/bsp_sys.o (xcfg_init)
../../libs/cpu/libplatform.a(main.o)
                              server_output/obj/ble/ble_client.o (delay_ms)
../../libs/cpu/libplatform.a(interrupt.o)
                              server_output/obj/driver/driver_gpio.o (sys_irq_init)
../../libs/cpu/libplatform.a(startup.o)
                              server_output/obj/strong_symbol.o (thread_btstack_create)
../../libs/cpu/libplatform.a(sys_hook.o)
                              ../../libs/cpu/libplatform.a(startup.o) (sys_hook_init)
../../libs/cpu/libplatform.a(thread_driver.o)
                              ../../libs/cpu/libplatform.a(startup.o) (thread_driver_entry)
../../libs/cpu/libplatform.a(pll.o)
                              ../../libs/cpu/libplatform.a(main.o) (pll0_disable)
../../libs/cpu/libplatform.a(pmu.o)
                              server_output/obj/driver/driver_lowpwr.o (pmu_get_vddcore)
../../libs/cpu/libplatform.a(reset.o)
                              (_start)
../../libs/cpu/libplatform.a(context.o)
                              server_output/obj/driver/driver_lowpwr.o (lp_sleep)
../../libs/cpu/libplatform.a(spiflash.o)
                              ../../libs/cpu/libplatform.a(reset.o) (spiflash_erase_patch_do)
../../libs/cpu/libplatform.a(debug.o)
                              ../../libs/cpu/libplatform.a(reset.o) (exception_isr)
../../libs/cpu/libplatform.a(fot_pack.o)
                              ../../libs/cpu/libplatform.a(os_flash.o) (ota_pack_is_update_success)
../../libs/cpu/libplatform.a(lock.o)
                              ../../libs/cpu/libplatform.a(main.o) (lock_init)
../../libs/cpu/libplatform.a(patch.o)
                              ../../libs/cpu/libplatform.a(main.o) (patch_init)
../../libs/cpu/libplatform.a(s_sys.o)
                              ../../libs/cpu/libplatform.a(startup.o) (dummy_func)
../../libs/cpu/libplatform.a(sleep.o)
                              server_output/obj/driver/driver_lowpwr.o (lowpwr_sleep_sfr_save)
../../libs/cpu/libplatform.a(sys.o)
                              server_output/obj/main.o (sys_rst_init)
../../libs/cpu/libplatform.a(sys_clk.o)
                              ../../libs/cpu/libplatform.a(audio_mic.o) (sys_clk_get_cur)
../../libs/cpu/libplatform.a(voltage_trim.o)
                              server_output/obj/driver/driver_saradc.o (pmu_get_vbatdet)
../../libs/cpu/libplatform.a(weak_symbol.o)
                              ../../libs/cpu/libplatform.a(main.o) (xosc_24m_div_get)
../../libs/cpu/libplatform.a(bt.o)
                              ../../libs/cpu/libplatform.a(startup.o) (thread_btstack_entry)
../../libs/cpu/libplatform.a(freq_det.o)
                              ../../libs/cpu/libplatform.a(sys.o) (freq_det_init)
../../libs/ble/libbtstack.a(txpkt.o)
                              server_output/obj/ble/ble_init.o (txpkt_init)
../../libs/ble/libbtstack.a(hci.o)
                              server_output/obj/ble/ble_client.o (ble_get_scan_sta)
../../libs/ble/libbtstack.a(btstack_util.o)
                              ../../libs/ble/libbtstack.a(hci.o) (bd_addr_copy)
../../libs/ble/libbtstack.a(sm.o)
                              server_output/obj/ble/ble_init.o (ble_sm_init)
../../libs/ble/libbtstack.a(le_device_db_memory.o)
                              ../../libs/ble/libbtstack.a(sm.o) (le_device_db_count)
../../libs/ble/libbtstack.a(gatt_server.o)
                              server_output/obj/ble/ble_user_service.o (ble_notify_for_handle)
../../libs/ble/libbtstack.a(gatt_client.o)
                              server_output/obj/ble/ble_client.o (att_client_register_handler)
../../libs/ble/libbtstack.a(att_server.o)
                              server_output/obj/ble/ble_user_service.o (att_server_register_service_handler)
../../libs/ble/libbtstack.a(att_dispatch.o)
                              ../../libs/ble/libbtstack.a(gatt_client.o) (att_dispatch_register_client)
../../libs/ble/libbtstack.a(att_db.o)
                              ../../libs/ble/libbtstack.a(att_server.o) (att_set_db)
../../libs/ble/libbtstack.a(ad_parser.o)
                              server_output/obj/ble/ble_client.o (ble_adv_report_info_analyse)
../../libs/ble/libbtstack.a(hci_transport_h3_controller.o)
                              ../../libs/ble/libbtstack.a(hci.o) (p_hci_transport)
../../libs/ble/libbtstack.a(hci_transport_dummy.o)
                              ../../libs/ble/libbtstack.a(hci_transport_h3_controller.o) (hci_transport_setup)
../../libs/ble/libbtstack.a(btstack_hal.o)
                              ../../libs/ble/libbtstack.a(hci_transport_h3_controller.o) (hal_uart_dma_init)
../../libs/ble/libbtstack.a(btstack_api.o)
                              server_output/obj/ble/ble_init.o (btstack_init)
../../libs/ble/libbtstack.a(ble_api.o)
                              ../../libs/ble/libbtstack.a(hci.o) (ble_msg_free_prepare)
../../libs/ble/libbtstack.a(txpkt.o)
                              ../../libs/ble/libbtstack.a(txpkt.o) (txpkt_mem_init)
../../libs/ble/libbtstack.a(platform.o)
                              ../../libs/ble/libbtstack.a(hci_transport_h3_controller.o) (dummy_void)
../../libs/ble/libbtstack.a(rf.o)
                              ../../libs/ble/libbtstack.a(btstack_api.o) (rf_single_tone_enter)
../../libs/ble/libbtstack.a(hct_proc.o)
                              ../../libs/ble/libbtstack.a(hci.o) (hct_register_handler_evt)
../../libs/ble/libbtstack.a(hct.o)
                              ../../libs/ble/libbtstack.a(hci.o) (hci_cmd_send_2_controller)
../../libs/ble/libbtstack.a(mgr_hci.o)
                              ../../libs/ble/libbtstack.a(hci.o) (hci_le_rd_buff_size)
../../libs/ble/libbtstack.a(mgr.o)
                              ../../libs/ble/libbtstack.a(mgr_hci.o) (mgr_cmd_cmp_send)
../../libs/ble/libbtstack.a(ll_adv.o)
                              ../../libs/ble/libbtstack.a(mgr_hci.o) (hci_le_set_adv_param_cmd_func)
../../libs/ble/libbtstack.a(ll_con_upd.o)
                              ../../libs/ble/libbtstack.a(ll_adv.o) (ll_con_move_cb)
../../libs/ble/libbtstack.a(ll_cntl.o)
                              ../../libs/ble/libbtstack.a(ll_con_upd.o) (ll_cntl_send)
../../libs/ble/libbtstack.a(ll_clk_acc.o)
                              ../../libs/ble/libbtstack.a(ll_cntl.o) (ll_clk_acc_req_func)
../../libs/ble/libbtstack.a(ll_chmap_upd.o)
                              ../../libs/ble/libbtstack.a(ll_cntl.o) (ll_channel_map_ind_func)
../../libs/ble/libbtstack.a(ll.o)
                              ../../libs/ble/libbtstack.a(ll_adv.o) (ll_start)
../../libs/ble/libbtstack.a(ble_hal.o)
                              ../../libs/ble/libbtstack.a(mgr.o) (ble_ch_assess_data_get)
../../libs/ble/libbtstack.a(ble_con.o)
                              ../../libs/ble/libbtstack.a(ll.o) (ble_con_start)
../../libs/ble/libbtstack.a(ble_adv.o)
                              ../../libs/ble/libbtstack.a(ble_hal.o) (ble_adv_init)
../../libs/ble/libbtstack.a(ble_buf.o)
                              ../../libs/ble/libbtstack.a(hct.o) (ble_buf_acl_tx_alloc)
../../libs/ble/libbtstack.a(bb_utils.o)
                              ../../libs/ble/libbtstack.a(ll.o) (bb_rate_to_phy)
../../libs/ble/libbtstack.a(bb_int.o)
                              ../../libs/ble/libbtstack.a(btstack_api.o) (bb_sleep_init)
../../libs/ble/libbtstack.a(bb.o)
                              ../../libs/ble/libbtstack.a(btstack_api.o) (bb_var_init)
../../libs/ble/libbtstack.a(periph.o)
                              ../../libs/ble/libbtstack.a(btstack_hal.o) (bt_uart_init)
../../libs/ble/libbtstack.a(extern_ble.o)
                              ../../libs/ble/libbtstack.a(le_device_db_memory.o) (ble_sync_link_info)
../../libs/ble/libbtstack.a(l2cap.o)
                              ../../libs/ble/libbtstack.a(btstack_api.o) (gap_request_connection_parameter_update)
../../libs/ble/libbtstack.a(hci_dump.o)
                              ../../libs/ble/libbtstack.a(btstack_api.o) (hci_dump_open)
../../libs/ble/libbtstack.a(hci_cmd.o)
                              ../../libs/ble/libbtstack.a(hci.o) (hci_cmd_create_from_template)
../../libs/ble/libbtstack.a(btstack_run_loop.o)
                              ../../libs/ble/libbtstack.a(sm.o) (btstack_run_loop_set_timer_handler)
../../libs/ble/libbtstack.a(btstack_memory.o)
                              ../../libs/ble/libbtstack.a(gatt_client.o) (btstack_memory_gatt_client_get)
../../libs/ble/libbtstack.a(btstack_main.o)
                              ../../libs/ble/libbtstack.a(ble_api.o) (btstack_ble_set_init_callback)
../../libs/ble/libbtstack.a(nanos.o)
                              ../../libs/ble/libbtstack.a(bb.o) (nanos_init)
../../libs/ble/libbtstack.a(bb_sche.o)
                              ../../libs/ble/libbtstack.a(bb.o) (bb_sche_init)
../../libs/ble/libbtstack.a(patch.o)
                              ../../libs/ble/libbtstack.a(bb.o) (bb_patch_dummy)
../../libs/ble/libbtstack.a(bb_dbg.o)
                              ../../libs/ble/libbtstack.a(bb.o) (bb_dbg_init)
../../libs/ble/libbtstack.a(bb_clk.o)
                              ../../libs/ble/libbtstack.a(bb.o) (bb_lpcycles_2_hus_hook)
../../libs/ble/libbtstack.a(aes.o)
                              ../../libs/ble/libbtstack.a(bb.o) (aes_init)
../../libs/ble/libbtstack.a(extern.o)
                              ../../libs/ble/libbtstack.a(bb_int.o) (sys_sleep_cb)
../../libs/ble/libbtstack.a(vs.o)
                              ../../libs/ble/libbtstack.a(bb.o) (vs_init)
../../libs/ble/libbtstack.a(rf_mate.o)
                              ../../libs/ble/libbtstack.a(rf.o) (rfphy_sw_ctrl)
../../libs/ble/libbtstack.a(ble_hook.o)
                              ../../libs/ble/libbtstack.a(ble_hal.o) (ble_hal_init_hook)
../../libs/ble/libbtstack.a(adv_hook.o)
                              ../../libs/ble/libbtstack.a(ll_adv.o) (ble_adv_end_ind_hook)
../../libs/ble/libbtstack.a(hct_tl.o)
                              ../../libs/ble/libbtstack.a(bb_int.o) (hct_queue_is_empty)
../../libs/ble/libbtstack.a(hct_msg.o)
                              ../../libs/ble/libbtstack.a(hct.o) (hci_look_for_cmd_desc)
../../libs/ble/libbtstack.a(mgr_test.o)
                              ../../libs/ble/libbtstack.a(mgr_hci.o) (hci_le_rx_test_v1_cmd_func)
../../libs/ble/libbtstack.a(mgr_proc.o)
                              ../../libs/ble/libbtstack.a(mgr.o) (mgr_msg_env)
../../libs/ble/libbtstack.a(ll_version.o)
                              ../../libs/ble/libbtstack.a(ll_cntl.o) (ll_version_ind_func)
../../libs/ble/libbtstack.a(ll_tbox_prod_test.o)
                              ../../libs/ble/libbtstack.a(ll_cntl.o) (ll_tbox_prod_test_req_func)
../../libs/ble/libbtstack.a(ll_tbox_freq_cal.o)
                              ../../libs/ble/libbtstack.a(ll_cntl.o) (ll_tbox_freq_cal_req_func)
../../libs/ble/libbtstack.a(ll_tbox_feature.o)
                              ../../libs/ble/libbtstack.a(ll_cntl.o) (ll_tbox_feat_req_func)
../../libs/ble/libbtstack.a(ll_proc.o)
                              ../../libs/ble/libbtstack.a(ll_con_upd.o) (ll_cmd_stat_send)
../../libs/ble/libbtstack.a(ll_phy_upd.o)
                              ../../libs/ble/libbtstack.a(ll_cntl.o) (ll_phy_req_func)
../../libs/ble/libbtstack.a(ll_length.o)
                              ../../libs/ble/libbtstack.a(ll_cntl.o) (ll_length_req_func)
../../libs/ble/libbtstack.a(ll_feature.o)
                              ../../libs/ble/libbtstack.a(ll_cntl.o) (ll_feature_req_func)
../../libs/ble/libbtstack.a(ll_encrypt.o)
                              ../../libs/ble/libbtstack.a(ll_cntl.o) (ll_pause_enc_req_func)
../../libs/ble/libbtstack.a(ll_disconnect.o)
                              ../../libs/ble/libbtstack.a(ll_proc.o) (ll_stopped_ind_func)
../../libs/ble/libbtstack.a(ble_test.o)
                              ../../libs/ble/libbtstack.a(mgr_test.o) (ble_test_start)
../../libs/ble/libbtstack.a(ble.o)
                              ../../libs/ble/libbtstack.a(bb.o) (ble_var_init)
../../libs/ble/libbtstack.a(bb_sleep.o)
                              ../../libs/ble/libbtstack.a(bb_int.o) (bb_sleep_suspend)
../../libs/ble/libbtstack.a(bb_alarm.o)
                              ../../libs/ble/libbtstack.a(bb.o) (bb_timer_init)
../../libs/ble/libbtstack.a(l2cap_signaling.o)
                              ../../libs/ble/libbtstack.a(l2cap.o) (l2cap_create_signaling_le)
../../libs/ble/libbtstack.a(btstack_memory_pool.o)
                              ../../libs/ble/libbtstack.a(btstack_memory.o) (btstack_memory_pool_get)
../../libs/ble/libbtstack.a(patch_asm.o)
                              ../../libs/ble/libbtstack.a(patch.o) (bb_patch2)
../../libs/ble/libbtstack.a(vs_proc.o)
                              ../../libs/ble/libbtstack.a(vs.o) (vs_env)
../../libs/ble/libbtstack.a(vs_fcc.o)
                              ../../libs/ble/libbtstack.a(vs_proc.o) (vs_fcc_test_cmd)
../../libs/ble/libbtstack.a(ble_sync.o)
                              ../../libs/ble/libbtstack.a(ble.o) (ble_get_sync_var)
../../libs/ble/libbtstack.a(ble_scan.o)
                              ../../libs/ble/libbtstack.a(ble.o) (ble_get_scan_var)
../../libs/ble/libbtstack.a(ble_init.o)
                              ../../libs/ble/libbtstack.a(ble.o) (ble_get_init_var)

Allocating common symbols
Common symbol       size              file

tmr5ms_cnt          0x2               server_output/obj/bsp/bsp_sys.o
ble_user_cb         0x304             server_output/obj/ble/ble_user_service.o
server_info         0x2a8             server_output/obj/ble/ble_client.o
REPORT_TYPE         0x4               server_output/obj/ble/ble_client.o
xcfg_cb             0x33              server_output/obj/bsp/bsp_sys.o

Discarded input sections

 .text          0x0000000000000000        0x0 server_output/obj/driver/driver_clk.o
 .data          0x0000000000000000        0x0 server_output/obj/driver/driver_clk.o
 .bss           0x0000000000000000        0x0 server_output/obj/driver/driver_clk.o
 .text.clk_gate1_cmd
                0x0000000000000000       0x16 server_output/obj/driver/driver_clk.o
 .text.clk_gate2_cmd
                0x0000000000000000       0x16 server_output/obj/driver/driver_clk.o
 .text.clk_clkout_set
                0x0000000000000000       0x4e server_output/obj/driver/driver_clk.o
 .text.clk_clk32k_rtc_set
                0x0000000000000000       0x28 server_output/obj/driver/driver_clk.o
 .text.clk_clk32k_rtc_get
                0x0000000000000000       0x46 server_output/obj/driver/driver_clk.o
 .text.clk_hsut0_clk_set
                0x0000000000000000       0x18 server_output/obj/driver/driver_clk.o
 .text.clk_hsut0_clk_get
                0x0000000000000000       0x1e server_output/obj/driver/driver_clk.o
 .text.clk_saradc_clk_set
                0x0000000000000000       0x18 server_output/obj/driver/driver_clk.o
 .text.clk_saradc_clk_get
                0x0000000000000000       0x3e server_output/obj/driver/driver_clk.o
 .text.clk_clk2m_ks_set
                0x0000000000000000       0x2e server_output/obj/driver/driver_clk.o
 .text.clk_clk2m_ks_get
                0x0000000000000000       0x3e server_output/obj/driver/driver_clk.o
 .text.clk_ledc_clk_set
                0x0000000000000000       0x18 server_output/obj/driver/driver_clk.o
 .text.clk_ledc_clk_get
                0x0000000000000000       0x24 server_output/obj/driver/driver_clk.o
 .text.clk_irtx_mod_clk_set
                0x0000000000000000       0x16 server_output/obj/driver/driver_clk.o
 .text.clk_irtx_mod_clk_get
                0x0000000000000000       0x24 server_output/obj/driver/driver_clk.o
 .text.clk_irrx_clk_set
                0x0000000000000000       0x16 server_output/obj/driver/driver_clk.o
 .text.clk_irtx_clk_set
                0x0000000000000000        0x8 server_output/obj/driver/driver_clk.o
 .text.clk_irrx_clk_get
                0x0000000000000000       0x34 server_output/obj/driver/driver_clk.o
 .text.clk_irtx_clk_get
                0x0000000000000000        0x8 server_output/obj/driver/driver_clk.o
 .rodata        0x0000000000000000       0x20 server_output/obj/driver/driver_clk.o
 .text          0x0000000000000000        0x0 server_output/obj/driver/driver_gpio.o
 .data          0x0000000000000000        0x0 server_output/obj/driver/driver_gpio.o
 .bss           0x0000000000000000        0x0 server_output/obj/driver/driver_gpio.o
 .text.gpio_deinit
                0x0000000000000000       0x10 server_output/obj/driver/driver_gpio.o
 .com_periph.gpio.dir
                0x0000000000000000       0x12 server_output/obj/driver/driver_gpio.o
 .com_periph.gpio.set
                0x0000000000000000        0x4 server_output/obj/driver/driver_gpio.o
 .com_periph.gpio.reset
                0x0000000000000000        0x4 server_output/obj/driver/driver_gpio.o
 .com_periph.gpio.write
                0x0000000000000000        0x4 server_output/obj/driver/driver_gpio.o
 .com_periph.gpio.toggle
                0x0000000000000000        0x8 server_output/obj/driver/driver_gpio.o
 .com_periph.gpio.read_data
                0x0000000000000000        0x8 server_output/obj/driver/driver_gpio.o
 .com_periph.gpio.read_bit
                0x0000000000000000        0xa server_output/obj/driver/driver_gpio.o
 .text.gpio_func_mapping_clear
                0x0000000000000000       0x7e server_output/obj/driver/driver_gpio.o
 .com_periph.wk0.read_bit
                0x0000000000000000        0xa server_output/obj/driver/driver_gpio.o
 .text.gpio_edge_capture_config_custom
                0x0000000000000000      0x116 server_output/obj/driver/driver_gpio.o
 .text.gpio_set_reset_pin
                0x0000000000000000       0x4c server_output/obj/driver/driver_gpio.o
 .text.gpio_get_edge_pin
                0x0000000000000000        0x8 server_output/obj/driver/driver_gpio.o
 .com_periph.gpio.rise.src
                0x0000000000000000        0x8 server_output/obj/driver/driver_gpio.o
 .com_periph.gpio.fall.src
                0x0000000000000000        0xc server_output/obj/driver/driver_gpio.o
 .com_periph.gpio.pending_clr
                0x0000000000000000        0xc server_output/obj/driver/driver_gpio.o
 .com_periph.gpio.pending_is
                0x0000000000000000       0x12 server_output/obj/driver/driver_gpio.o
 .text.gpio_edge_pic_config
                0x0000000000000000       0x54 server_output/obj/driver/driver_gpio.o
 .text          0x0000000000000000        0x0 server_output/obj/driver/driver_hsuart.o
 .data          0x0000000000000000        0x0 server_output/obj/driver/driver_hsuart.o
 .bss           0x0000000000000000        0x0 server_output/obj/driver/driver_hsuart.o
 .text.hsuart_init
                0x0000000000000000       0xa0 server_output/obj/driver/driver_hsuart.o
 .text.hsuart_deinit
                0x0000000000000000       0x14 server_output/obj/driver/driver_hsuart.o
 .text.hsuart_cmd
                0x0000000000000000       0x16 server_output/obj/driver/driver_hsuart.o
 .com_periph.hsuart.send
                0x0000000000000000       0x1a server_output/obj/driver/driver_hsuart.o
 .com_periph.hsuart.recv
                0x0000000000000000        0xa server_output/obj/driver/driver_hsuart.o
 .com_periph.hsuart.receive_data
                0x0000000000000000       0x44 server_output/obj/driver/driver_hsuart.o
 .com_periph.hsuart.fifo_get
                0x0000000000000000        0xa server_output/obj/driver/driver_hsuart.o
 .text.hsuart_clear_fifo_counter
                0x0000000000000000        0xe server_output/obj/driver/driver_hsuart.o
 .text.hsuart_baud_config
                0x0000000000000000       0x2c server_output/obj/driver/driver_hsuart.o
 .text.hsuart_pic_config
                0x0000000000000000       0x92 server_output/obj/driver/driver_hsuart.o
 .com_periph.hsuart.get_flag
                0x0000000000000000       0x3e server_output/obj/driver/driver_hsuart.o
 .com_periph.hsuart.clear
                0x0000000000000000       0x38 server_output/obj/driver/driver_hsuart.o
 .text.hsuart_rx_idle_config
                0x0000000000000000       0x1e server_output/obj/driver/driver_hsuart.o
 .com_periph.hsuart.dma
                0x0000000000000000       0x20 server_output/obj/driver/driver_hsuart.o
 .com_periph.hsuart.stop
                0x0000000000000000       0x18 server_output/obj/driver/driver_hsuart.o
 .com_periph.hsuart.hfc
                0x0000000000000000       0x32 server_output/obj/driver/driver_hsuart.o
 .comment       0x0000000000000000       0x12 server_output/obj/driver/driver_hsuart.o
 .text          0x0000000000000000        0x0 server_output/obj/driver/driver_keyscan.o
 .data          0x0000000000000000        0x0 server_output/obj/driver/driver_keyscan.o
 .bss           0x0000000000000000        0x0 server_output/obj/driver/driver_keyscan.o
 .text.keyscan_init
                0x0000000000000000       0xde server_output/obj/driver/driver_keyscan.o
 .text.keyscan_deinit
                0x0000000000000000        0xc server_output/obj/driver/driver_keyscan.o
 .com_periph.keyscan.en_ctrl
                0x0000000000000000       0x16 server_output/obj/driver/driver_keyscan.o
 .text.keyscan_pic_config
                0x0000000000000000       0x3a server_output/obj/driver/driver_keyscan.o
 .com_periph.keyscan.flag
                0x0000000000000000       0x44 server_output/obj/driver/driver_keyscan.o
 .com_periph.keyscan.query
                0x0000000000000000       0xca server_output/obj/driver/driver_keyscan.o
 .com_periph.keyscan.lowpwr_mode
                0x0000000000000000        0xc server_output/obj/driver/driver_keyscan.o
 .comment       0x0000000000000000       0x12 server_output/obj/driver/driver_keyscan.o
 .text          0x0000000000000000        0x0 server_output/obj/driver/driver_ledc.o
 .data          0x0000000000000000        0x0 server_output/obj/driver/driver_ledc.o
 .bss           0x0000000000000000        0x0 server_output/obj/driver/driver_ledc.o
 .text.ledc_init
                0x0000000000000000       0x3c server_output/obj/driver/driver_ledc.o
 .text.ledc_timing_init
                0x0000000000000000       0x5c server_output/obj/driver/driver_ledc.o
 .text.ledc_deinit
                0x0000000000000000       0x20 server_output/obj/driver/driver_ledc.o
 .text.ledc_cmd
                0x0000000000000000       0x16 server_output/obj/driver/driver_ledc.o
 .com_periph.ledc.transport
                0x0000000000000000       0x20 server_output/obj/driver/driver_ledc.o
 .text.ledc_pic_config
                0x0000000000000000       0x44 server_output/obj/driver/driver_ledc.o
 .com_periph.ledc.flag
                0x0000000000000000       0x42 server_output/obj/driver/driver_ledc.o
 .text.ledc_set_frame_length
                0x0000000000000000        0xe server_output/obj/driver/driver_ledc.o
 .text.ledc_set_loop_number
                0x0000000000000000        0xc server_output/obj/driver/driver_ledc.o
 .text.ledc_get_frame_length
                0x0000000000000000       0x10 server_output/obj/driver/driver_ledc.o
 .text.ledc_get_loop_number
                0x0000000000000000        0xc server_output/obj/driver/driver_ledc.o
 .comment       0x0000000000000000       0x12 server_output/obj/driver/driver_ledc.o
 .text          0x0000000000000000        0x0 server_output/obj/driver/driver_lowpwr.o
 .data          0x0000000000000000        0x0 server_output/obj/driver/driver_lowpwr.o
 .bss           0x0000000000000000       0x5c server_output/obj/driver/driver_lowpwr.o
 .com_sleep.sys
                0x0000000000000000       0x8e server_output/obj/driver/driver_lowpwr.o
 .com_sleep.lp_proc
                0x0000000000000000       0xc6 server_output/obj/driver/driver_lowpwr.o
 .com_sleep.lp_wakeup
                0x0000000000000000      0x146 server_output/obj/driver/driver_lowpwr.o
 .text.lowpwr_clr_wakeup_pending
                0x0000000000000000       0x1c server_output/obj/driver/driver_lowpwr.o
 .text.lowpwr_gpio_wakeup_config_custom
                0x0000000000000000       0x4a server_output/obj/driver/driver_lowpwr.o
 .text.lowpwr_wakeup_source_enable
                0x0000000000000000       0x7c server_output/obj/driver/driver_lowpwr.o
 .text.lowpwr_wakeup_source_disable
                0x0000000000000000       0x92 server_output/obj/driver/driver_lowpwr.o
 .com_pwroff.mode1
                0x0000000000000000       0xba server_output/obj/driver/driver_lowpwr.o
 .com_sleep.sfr_save
                0x0000000000000000        0x2 server_output/obj/driver/driver_lowpwr.o
 .com_sleep.sfr_resume
                0x0000000000000000        0x2 server_output/obj/driver/driver_lowpwr.o
 .com_sleep.proc_do
                0x0000000000000000       0xb4 server_output/obj/driver/driver_lowpwr.o
 .com_sleep.sleep
                0x0000000000000000        0x8 server_output/obj/driver/driver_lowpwr.o
 .text          0x0000000000000000        0x0 server_output/obj/driver/driver_pwm.o
 .data          0x0000000000000000        0x0 server_output/obj/driver/driver_pwm.o
 .bss           0x0000000000000000        0x0 server_output/obj/driver/driver_pwm.o
 .text.tmrp_base_init
                0x0000000000000000      0x114 server_output/obj/driver/driver_pwm.o
 .text.tmrp_deinit
                0x0000000000000000       0x10 server_output/obj/driver/driver_pwm.o
 .text.tmrp_open_pwm
                0x0000000000000000       0x1a server_output/obj/driver/driver_pwm.o
 .text.tmrp_close_pwm
                0x0000000000000000       0x12 server_output/obj/driver/driver_pwm.o
 .text.tmrp_set_counter
                0x0000000000000000        0x4 server_output/obj/driver/driver_pwm.o
 .text.tmrp_set_duty
                0x0000000000000000       0x4c server_output/obj/driver/driver_pwm.o
 .text.tmrp_set_period
                0x0000000000000000        0x4 server_output/obj/driver/driver_pwm.o
 .text.tmrp_set_g2period
                0x0000000000000000        0x4 server_output/obj/driver/driver_pwm.o
 .text.tmrp_get_counter
                0x0000000000000000        0x4 server_output/obj/driver/driver_pwm.o
 .text.tmrp_get_period
                0x0000000000000000        0x4 server_output/obj/driver/driver_pwm.o
 .text.tmrp_get_g2period
                0x0000000000000000        0x4 server_output/obj/driver/driver_pwm.o
 .text.tmrp_cmd
                0x0000000000000000       0x10 server_output/obj/driver/driver_pwm.o
 .text.tmrp_pic_config
                0x0000000000000000       0x32 server_output/obj/driver/driver_pwm.o
 .com_periph.tmr.get
                0x0000000000000000       0x18 server_output/obj/driver/driver_pwm.o
 .com_periph.tmr.clear
                0x0000000000000000       0x16 server_output/obj/driver/driver_pwm.o
 .comment       0x0000000000000000       0x12 server_output/obj/driver/driver_pwm.o
 .text          0x0000000000000000        0x0 server_output/obj/driver/driver_rtc.o
 .data          0x0000000000000000        0x0 server_output/obj/driver/driver_rtc.o
 .bss           0x0000000000000000        0x0 server_output/obj/driver/driver_rtc.o
 .com_periph.rtc.cnt_set
                0x0000000000000000        0x8 server_output/obj/driver/driver_rtc.o
 .com_periph.rtc.cnt_get
                0x0000000000000000        0x8 server_output/obj/driver/driver_rtc.o
 .com_periph.rtc.alarm_set
                0x0000000000000000        0x8 server_output/obj/driver/driver_rtc.o
 .com_periph.rtc.alarm_get
                0x0000000000000000        0x8 server_output/obj/driver/driver_rtc.o
 .text.rtc_prescale_set
                0x0000000000000000       0x16 server_output/obj/driver/driver_rtc.o
 .text.rtc_prescale_get
                0x0000000000000000        0xc server_output/obj/driver/driver_rtc.o
 .text.rtc_pic_config
                0x0000000000000000       0x90 server_output/obj/driver/driver_rtc.o
 .com_periph.rct.get
                0x0000000000000000       0x36 server_output/obj/driver/driver_rtc.o
 .com_periph.rct.clear
                0x0000000000000000       0x1a server_output/obj/driver/driver_rtc.o
 .comment       0x0000000000000000       0x12 server_output/obj/driver/driver_rtc.o
 .text          0x0000000000000000        0x0 server_output/obj/driver/driver_saradc.o
 .data          0x0000000000000000        0x0 server_output/obj/driver/driver_saradc.o
 .bss           0x0000000000000000        0x0 server_output/obj/driver/driver_saradc.o
 .text.saradc_mic_init
                0x0000000000000000       0x64 server_output/obj/driver/driver_saradc.o
 .text.saradc_mic_cmd
                0x0000000000000000       0x1a server_output/obj/driver/driver_saradc.o
 .text.saradc_mic_dma_cmd
                0x0000000000000000       0x38 server_output/obj/driver/driver_saradc.o
 .text.saradc_init
                0x0000000000000000       0x88 server_output/obj/driver/driver_saradc.o
 .text.saradc_add_channel
                0x0000000000000000      0x12a server_output/obj/driver/driver_saradc.o
 .text.saradc_remove_channel
                0x0000000000000000       0xac server_output/obj/driver/driver_saradc.o
 .text.saradc_cmd
                0x0000000000000000       0x16 server_output/obj/driver/driver_saradc.o
 .com_periph.saradc.kick
                0x0000000000000000       0x2e server_output/obj/driver/driver_saradc.o
 .text.saradc_set_baud
                0x0000000000000000       0x2e server_output/obj/driver/driver_saradc.o
 .text.saradc_pic_config
                0x0000000000000000       0x70 server_output/obj/driver/driver_saradc.o
 .com_periph.saradc.get
                0x0000000000000000       0x3a server_output/obj/driver/driver_saradc.o
 .com_periph.saradc.clear
                0x0000000000000000       0x2e server_output/obj/driver/driver_saradc.o
 .com_text.saradc.done
                0x0000000000000000       0x34 server_output/obj/driver/driver_saradc.o
 .com_periph.saradc.get_data
                0x0000000000000000       0xa0 server_output/obj/driver/driver_saradc.o
 .text          0x0000000000000000        0x0 server_output/obj/driver/driver_spi.o
 .data          0x0000000000000000        0x0 server_output/obj/driver/driver_spi.o
 .bss           0x0000000000000000        0x0 server_output/obj/driver/driver_spi.o
 .text.spi_init
                0x0000000000000000       0x50 server_output/obj/driver/driver_spi.o
 .text.spi_deinit
                0x0000000000000000       0x1c server_output/obj/driver/driver_spi.o
 .text.spi_cmd  0x0000000000000000       0x10 server_output/obj/driver/driver_spi.o
 .text.spi_dir_sel
                0x0000000000000000       0x16 server_output/obj/driver/driver_spi.o
 .text.spi_it_cmd
                0x0000000000000000       0x12 server_output/obj/driver/driver_spi.o
 .text.spi_lfsr_cmd
                0x0000000000000000       0x12 server_output/obj/driver/driver_spi.o
 .text.spi_multi_bit_bus_cmd
                0x0000000000000000       0x12 server_output/obj/driver/driver_spi.o
 .text.spi_hold_rx_cmd
                0x0000000000000000       0x12 server_output/obj/driver/driver_spi.o
 .text.spi_hold_tx_cmd
                0x0000000000000000       0x12 server_output/obj/driver/driver_spi.o
 .text.spi_soft_hold_cmd
                0x0000000000000000       0x12 server_output/obj/driver/driver_spi.o
 .com_periph.spi.get
                0x0000000000000000        0xa server_output/obj/driver/driver_spi.o
 .com_periph.spi.clear
                0x0000000000000000        0x8 server_output/obj/driver/driver_spi.o
 .text.spi_set_dma_cnt
                0x0000000000000000        0x4 server_output/obj/driver/driver_spi.o
 .text.spi_set_dma_addr
                0x0000000000000000        0x4 server_output/obj/driver/driver_spi.o
 .text.spi_receive_data
                0x0000000000000000        0x8 server_output/obj/driver/driver_spi.o
 .text.spi_send_data
                0x0000000000000000        0x4 server_output/obj/driver/driver_spi.o
 .comment       0x0000000000000000       0x12 server_output/obj/driver/driver_spi.o
 .text          0x0000000000000000        0x0 server_output/obj/driver/driver_tmr.o
 .data          0x0000000000000000        0x0 server_output/obj/driver/driver_tmr.o
 .bss           0x0000000000000000        0x0 server_output/obj/driver/driver_tmr.o
 .text.tmr_base_init
                0x0000000000000000       0x50 server_output/obj/driver/driver_tmr.o
 .text.tmr_deinit
                0x0000000000000000       0x54 server_output/obj/driver/driver_tmr.o
 .text.tmr_set_counter
                0x0000000000000000        0x4 server_output/obj/driver/driver_tmr.o
 .text.tmr_set_period
                0x0000000000000000        0x4 server_output/obj/driver/driver_tmr.o
 .text.tmr_get_counter
                0x0000000000000000        0x4 server_output/obj/driver/driver_tmr.o
 .text.tmr_get_period
                0x0000000000000000        0x4 server_output/obj/driver/driver_tmr.o
 .text.tmr_cmd  0x0000000000000000       0x10 server_output/obj/driver/driver_tmr.o
 .text.tmr_get_capture
                0x0000000000000000       0x1c server_output/obj/driver/driver_tmr.o
 .text.tmr_pic_config
                0x0000000000000000       0x78 server_output/obj/driver/driver_tmr.o
 .com_periph.tmr.get
                0x0000000000000000       0x52 server_output/obj/driver/driver_tmr.o
 .com_periph.tmr.clear
                0x0000000000000000       0x3a server_output/obj/driver/driver_tmr.o
 .comment       0x0000000000000000       0x12 server_output/obj/driver/driver_tmr.o
 .text          0x0000000000000000        0x0 server_output/obj/driver/driver_uart.o
 .data          0x0000000000000000        0x0 server_output/obj/driver/driver_uart.o
 .bss           0x0000000000000000        0x0 server_output/obj/driver/driver_uart.o
 .text.uart_deinit
                0x0000000000000000        0xe server_output/obj/driver/driver_uart.o
 .com_periph.uart.send
                0x0000000000000000        0x8 server_output/obj/driver/driver_uart.o
 .com_periph.uart.recv
                0x0000000000000000       0x14 server_output/obj/driver/driver_uart.o
 .text.uart_pic_config
                0x0000000000000000       0x5c server_output/obj/driver/driver_uart.o
 .com_periph.uart.get_flag
                0x0000000000000000       0x18 server_output/obj/driver/driver_uart.o
 .com_periph.uart.clear_flag
                0x0000000000000000       0x2a server_output/obj/driver/driver_uart.o
 .text          0x0000000000000000        0x0 server_output/obj/driver/driver_wdt.o
 .data          0x0000000000000000        0x0 server_output/obj/driver/driver_wdt.o
 .bss           0x0000000000000000        0x0 server_output/obj/driver/driver_wdt.o
 .text.wdt_cmd  0x0000000000000000       0x18 server_output/obj/driver/driver_wdt.o
 .text.wdt_reset_cmd
                0x0000000000000000       0x1e server_output/obj/driver/driver_wdt.o
 .text.wdt_it_cmd
                0x0000000000000000       0x16 server_output/obj/driver/driver_wdt.o
 .text.wdt_clk_select
                0x0000000000000000       0x1a server_output/obj/driver/driver_wdt.o
 .text.wdt_time_select
                0x0000000000000000       0x1a server_output/obj/driver/driver_wdt.o
 .text.wdt_get_flag
                0x0000000000000000        0x8 server_output/obj/driver/driver_wdt.o
 .text.wdt_clear
                0x0000000000000000        0xe server_output/obj/driver/driver_wdt.o
 .comment       0x0000000000000000       0x12 server_output/obj/driver/driver_wdt.o
 .text          0x0000000000000000        0x0 server_output/obj/app/func.o
 .data          0x0000000000000000        0x0 server_output/obj/app/func.o
 .bss           0x0000000000000000        0x0 server_output/obj/app/func.o
 .text          0x0000000000000000        0x0 server_output/obj/app/func_bt.o
 .data          0x0000000000000000        0x0 server_output/obj/app/func_bt.o
 .bss           0x0000000000000000        0x0 server_output/obj/app/func_bt.o
 .text          0x0000000000000000        0x0 server_output/obj/app/func_idle.o
 .data          0x0000000000000000        0x0 server_output/obj/app/func_idle.o
 .bss           0x0000000000000000        0x0 server_output/obj/app/func_idle.o
 .text          0x0000000000000000        0x0 server_output/obj/app/func_iodm.o
 .data          0x0000000000000000        0x0 server_output/obj/app/func_iodm.o
 .bss           0x0000000000000000        0x0 server_output/obj/app/func_iodm.o
 .comment       0x0000000000000000       0x12 server_output/obj/app/func_iodm.o
 .text          0x0000000000000000        0x0 server_output/obj/app/func_le_bqb_rf.o
 .data          0x0000000000000000        0x0 server_output/obj/app/func_le_bqb_rf.o
 .bss           0x0000000000000000        0x0 server_output/obj/app/func_le_bqb_rf.o
 .comment       0x0000000000000000       0x12 server_output/obj/app/func_le_bqb_rf.o
 .text          0x0000000000000000        0x0 server_output/obj/app/func_le_fcc.o
 .data          0x0000000000000000        0x0 server_output/obj/app/func_le_fcc.o
 .bss           0x0000000000000000        0x0 server_output/obj/app/func_le_fcc.o
 .comment       0x0000000000000000       0x12 server_output/obj/app/func_le_fcc.o
 .text          0x0000000000000000        0x0 server_output/obj/app/func_lowpwr.o
 .data          0x0000000000000000        0x0 server_output/obj/app/func_lowpwr.o
 .bss           0x0000000000000000        0x0 server_output/obj/app/func_lowpwr.o
 .com_text.sleep_tick
                0x0000000000000000        0x2 server_output/obj/app/func_lowpwr.o
 .text          0x0000000000000000        0x0 server_output/obj/app/func_tbox.o
 .data          0x0000000000000000        0x0 server_output/obj/app/func_tbox.o
 .bss           0x0000000000000000        0x0 server_output/obj/app/func_tbox.o
 .comment       0x0000000000000000       0x12 server_output/obj/app/func_tbox.o
 .text          0x0000000000000000        0x0 server_output/obj/ble/ble_adv.o
 .data          0x0000000000000000        0x0 server_output/obj/ble/ble_adv.o
 .bss           0x0000000000000000        0x0 server_output/obj/ble/ble_adv.o
 .rodata.scan   0x0000000000000000        0x0 server_output/obj/ble/ble_adv.o
 .text          0x0000000000000000        0x0 server_output/obj/ble/ble_alarm.o
 .data          0x0000000000000000        0x0 server_output/obj/ble/ble_alarm.o
 .bss           0x0000000000000000        0x0 server_output/obj/ble/ble_alarm.o
 .comment       0x0000000000000000       0x12 server_output/obj/ble/ble_alarm.o
 .text          0x0000000000000000        0x0 server_output/obj/ble/ble_client.o
 .data          0x0000000000000000        0x0 server_output/obj/ble/ble_client.o
 .bss           0x0000000000000000       0x10 server_output/obj/ble/ble_client.o
 .text.ble_client_notify_callback
                0x0000000000000000       0x3a server_output/obj/ble/ble_client.o
 .text.ble_client_event_callback
                0x0000000000000000      0x3c0 server_output/obj/ble/ble_client.o
 .text.ble_att_read_callback
                0x0000000000000000       0x5c server_output/obj/ble/ble_client.o
 .text.ble_client_init
                0x0000000000000000       0x32 server_output/obj/ble/ble_client.o
 .text.ble_scan_en_test
                0x0000000000000000       0x42 server_output/obj/ble/ble_client.o
 .text.ble_write_test
                0x0000000000000000       0x86 server_output/obj/ble/ble_client.o
 .text.ble_write_to_server
                0x0000000000000000       0x80 server_output/obj/ble/ble_client.o
 .text.ble_read_test
                0x0000000000000000       0x76 server_output/obj/ble/ble_client.o
 .rodata        0x0000000000000000       0x14 server_output/obj/ble/ble_client.o
 .rodata.str1.4
                0x0000000000000000      0x334 server_output/obj/ble/ble_client.o
 .sbss          0x0000000000000000        0x4 server_output/obj/ble/ble_client.o
 .sdata         0x0000000000000000        0x5 server_output/obj/ble/ble_client.o
 .comment       0x0000000000000000       0x12 server_output/obj/ble/ble_client.o
 COMMON         0x0000000000000000      0x2ac server_output/obj/ble/ble_client.o
 .text          0x0000000000000000        0x0 server_output/obj/ble/ble_fota_service.o
 .data          0x0000000000000000        0x0 server_output/obj/ble/ble_fota_service.o
 .bss           0x0000000000000000        0x0 server_output/obj/ble/ble_fota_service.o
 .comment       0x0000000000000000       0x12 server_output/obj/ble/ble_fota_service.o
 .text          0x0000000000000000        0x0 server_output/obj/ble/ble_init.o
 .data          0x0000000000000000        0x0 server_output/obj/ble/ble_init.o
 .bss           0x0000000000000000        0x0 server_output/obj/ble/ble_init.o
 .text.ble_get_work_mode
                0x0000000000000000        0xa server_output/obj/ble/ble_init.o
 .text.ble_sm_param_init
                0x0000000000000000        0xe server_output/obj/ble/ble_init.o
 .text.ble_scan_param_init
                0x0000000000000000       0x3c server_output/obj/ble/ble_init.o
 .text.ble_central_init
                0x0000000000000000       0x3a server_output/obj/ble/ble_init.o
 .text          0x0000000000000000        0x0 server_output/obj/ble/ble_proc.o
 .data          0x0000000000000000        0x0 server_output/obj/ble/ble_proc.o
 .bss           0x0000000000000000        0x0 server_output/obj/ble/ble_proc.o
 .text.ble_enter_sleep_proc
                0x0000000000000000       0x7a server_output/obj/ble/ble_proc.o
 .text.ble_exit_sleep_proc
                0x0000000000000000       0x52 server_output/obj/ble/ble_proc.o
 .com_sleep.ble.sleep
                0x0000000000000000        0x8 server_output/obj/ble/ble_proc.o
 .sbss          0x0000000000000000        0x8 server_output/obj/ble/ble_proc.o
 .text          0x0000000000000000        0x0 server_output/obj/ble/ble_profile.o
 .data          0x0000000000000000        0x0 server_output/obj/ble/ble_profile.o
 .bss           0x0000000000000000        0x0 server_output/obj/ble/ble_profile.o
 .text          0x0000000000000000        0x0 server_output/obj/ble/ble_service.o
 .data          0x0000000000000000        0x0 server_output/obj/ble/ble_service.o
 .bss           0x0000000000000000        0x0 server_output/obj/ble/ble_service.o
 .text          0x0000000000000000        0x0 server_output/obj/ble/ble_user_service.o
 .data          0x0000000000000000        0x0 server_output/obj/ble/ble_user_service.o
 .com_sleep.ble.sleep
                0x0000000000000000        0xa server_output/obj/ble/ble_user_service.o
 .text.service_notify_event
                0x0000000000000000       0x50 server_output/obj/ble/ble_user_service.o
 .text          0x0000000000000000        0x0 server_output/obj/bsp/bsp_huart.o
 .data          0x0000000000000000        0x0 server_output/obj/bsp/bsp_huart.o
 .bss           0x0000000000000000        0x0 server_output/obj/bsp/bsp_huart.o
 .comment       0x0000000000000000       0x12 server_output/obj/bsp/bsp_huart.o
 .text          0x0000000000000000        0x0 server_output/obj/bsp/bsp_huart_iodm.o
 .data          0x0000000000000000        0x0 server_output/obj/bsp/bsp_huart_iodm.o
 .bss           0x0000000000000000        0x0 server_output/obj/bsp/bsp_huart_iodm.o
 .comment       0x0000000000000000       0x12 server_output/obj/bsp/bsp_huart_iodm.o
 .text          0x0000000000000000        0x0 server_output/obj/bsp/bsp_io_key.o
 .data          0x0000000000000000        0x0 server_output/obj/bsp/bsp_io_key.o
 .bss           0x0000000000000000        0x0 server_output/obj/bsp/bsp_io_key.o
 .comment       0x0000000000000000       0x12 server_output/obj/bsp/bsp_io_key.o
 .text          0x0000000000000000        0x0 server_output/obj/bsp/bsp_key.o
 .data          0x0000000000000000        0x0 server_output/obj/bsp/bsp_key.o
 .bss           0x0000000000000000        0x0 server_output/obj/bsp/bsp_key.o
 .comment       0x0000000000000000       0x12 server_output/obj/bsp/bsp_key.o
 .text          0x0000000000000000        0x0 server_output/obj/bsp/bsp_param.o
 .data          0x0000000000000000        0x0 server_output/obj/bsp/bsp_param.o
 .bss           0x0000000000000000        0x0 server_output/obj/bsp/bsp_param.o
 .text.bsp.param.fota
                0x0000000000000000       0xa8 server_output/obj/bsp/bsp_param.o
 .text          0x0000000000000000        0x0 server_output/obj/bsp/bsp_saradc.o
 .data          0x0000000000000000        0x0 server_output/obj/bsp/bsp_saradc.o
 .bss           0x0000000000000000        0x0 server_output/obj/bsp/bsp_saradc.o
 .comment       0x0000000000000000       0x12 server_output/obj/bsp/bsp_saradc.o
 .text          0x0000000000000000        0x0 server_output/obj/bsp/bsp_saradc_key.o
 .data          0x0000000000000000        0x0 server_output/obj/bsp/bsp_saradc_key.o
 .bss           0x0000000000000000        0x0 server_output/obj/bsp/bsp_saradc_key.o
 .comment       0x0000000000000000       0x12 server_output/obj/bsp/bsp_saradc_key.o
 .text          0x0000000000000000        0x0 server_output/obj/bsp/bsp_saradc_tsen.o
 .data          0x0000000000000000        0x0 server_output/obj/bsp/bsp_saradc_tsen.o
 .bss           0x0000000000000000        0x0 server_output/obj/bsp/bsp_saradc_tsen.o
 .comment       0x0000000000000000       0x12 server_output/obj/bsp/bsp_saradc_tsen.o
 .text          0x0000000000000000        0x0 server_output/obj/bsp/bsp_saradc_vbat.o
 .data          0x0000000000000000        0x0 server_output/obj/bsp/bsp_saradc_vbat.o
 .bss           0x0000000000000000        0x0 server_output/obj/bsp/bsp_saradc_vbat.o
 .comment       0x0000000000000000       0x12 server_output/obj/bsp/bsp_saradc_vbat.o
 .text          0x0000000000000000        0x0 server_output/obj/bsp/bsp_sys.o
 .data          0x0000000000000000        0x0 server_output/obj/bsp/bsp_sys.o
 .bss           0x0000000000000000        0x0 server_output/obj/bsp/bsp_sys.o
 .com_text.timer
                0x0000000000000000       0x6a server_output/obj/bsp/bsp_sys.o
 .text.power_on_check
                0x0000000000000000        0x2 server_output/obj/bsp/bsp_sys.o
 .text.bsp_periph_init
                0x0000000000000000        0x8 server_output/obj/bsp/bsp_sys.o
 .text          0x0000000000000000        0x0 server_output/obj/bsp/bsp_uart_debug.o
 .data          0x0000000000000000        0x0 server_output/obj/bsp/bsp_uart_debug.o
 .bss           0x0000000000000000        0x0 server_output/obj/bsp/bsp_uart_debug.o
 .text          0x0000000000000000        0x0 server_output/obj/bsp/bsp_uart_transfer.o
 .data          0x0000000000000000        0x0 server_output/obj/bsp/bsp_uart_transfer.o
 .bss           0x0000000000000000        0x0 server_output/obj/bsp/bsp_uart_transfer.o
 .comment       0x0000000000000000       0x12 server_output/obj/bsp/bsp_uart_transfer.o
 .text          0x0000000000000000        0x0 server_output/obj/prod_test/prod_test.o
 .data          0x0000000000000000        0x0 server_output/obj/prod_test/prod_test.o
 .bss           0x0000000000000000        0x0 server_output/obj/prod_test/prod_test.o
 .text          0x0000000000000000        0x0 server_output/obj/prod_test/iodm/prod_test_iodm.o
 .data          0x0000000000000000        0x0 server_output/obj/prod_test/iodm/prod_test_iodm.o
 .bss           0x0000000000000000        0x0 server_output/obj/prod_test/iodm/prod_test_iodm.o
 .comment       0x0000000000000000       0x12 server_output/obj/prod_test/iodm/prod_test_iodm.o
 .text          0x0000000000000000        0x0 server_output/obj/prod_test/tbox/prod_test_tbox.o
 .data          0x0000000000000000        0x0 server_output/obj/prod_test/tbox/prod_test_tbox.o
 .bss           0x0000000000000000        0x0 server_output/obj/prod_test/tbox/prod_test_tbox.o
 .comment       0x0000000000000000       0x12 server_output/obj/prod_test/tbox/prod_test_tbox.o
 .text          0x0000000000000000        0x0 server_output/obj/prod_test/tbox/tbox_key.o
 .data          0x0000000000000000        0x0 server_output/obj/prod_test/tbox/tbox_key.o
 .bss           0x0000000000000000        0x0 server_output/obj/prod_test/tbox/tbox_key.o
 .comment       0x0000000000000000       0x12 server_output/obj/prod_test/tbox/tbox_key.o
 .text          0x0000000000000000        0x0 server_output/obj/main.o
 .data          0x0000000000000000        0x0 server_output/obj/main.o
 .bss           0x0000000000000000        0x0 server_output/obj/main.o
 .text          0x0000000000000000        0x0 server_output/obj/strong_ble.o
 .data          0x0000000000000000        0x0 server_output/obj/strong_ble.o
 .bss           0x0000000000000000        0x0 server_output/obj/strong_ble.o
 .text.ble_sm_client_event_do
                0x0000000000000000        0x2 server_output/obj/strong_ble.o
 .text.ble_sm_send_security_req_time_get
                0x0000000000000000        0x6 server_output/obj/strong_ble.o
 .text.ble_sm_always_accept_ltk_req
                0x0000000000000000        0x4 server_output/obj/strong_ble.o
 .text.ble_sm_pairing_support
                0x0000000000000000        0x4 server_output/obj/strong_ble.o
 .text          0x0000000000000000        0x0 server_output/obj/strong_symbol.o
 .data          0x0000000000000000        0x0 server_output/obj/strong_symbol.o
 .bss           0x0000000000000000        0x0 server_output/obj/strong_symbol.o
 .com_text.timer
                0x0000000000000000        0x8 server_output/obj/strong_symbol.o
 .text          0x0000000000000000        0x0 ../../libs/cpu/libplatform.a(audio_mic.o)
 .data          0x0000000000000000        0x0 ../../libs/cpu/libplatform.a(audio_mic.o)
 .bss           0x0000000000000000        0x0 ../../libs/cpu/libplatform.a(audio_mic.o)
 .text.audio_mic_get_mic_type
                0x0000000000000000        0xa ../../libs/cpu/libplatform.a(audio_mic.o)
 .text.audio_mic_get_mic_gain
                0x0000000000000000        0xa ../../libs/cpu/libplatform.a(audio_mic.o)
 .text.audio_mic_get_mic_trim
                0x0000000000000000        0xa ../../libs/cpu/libplatform.a(audio_mic.o)
 .text.audio_mic_pb10_pdpu
                0x0000000000000000       0x2e ../../libs/cpu/libplatform.a(audio_mic.o)
 .text.audio_mic_power
                0x0000000000000000      0x102 ../../libs/cpu/libplatform.a(audio_mic.o)
 .text.audio_mic_analog_init
                0x0000000000000000      0x2cc ../../libs/cpu/libplatform.a(audio_mic.o)
 .bss.audio_mic_param
                0x0000000000000000       0x18 ../../libs/cpu/libplatform.a(audio_mic.o)
 .comment       0x0000000000000000       0x13 ../../libs/cpu/libplatform.a(audio_mic.o)
 .riscv.attributes
                0x0000000000000000       0x32 ../../libs/cpu/libplatform.a(audio_mic.o)
 .text          0x0000000000000000        0x0 ../../libs/cpu/libplatform.a(audio_mic_trim.o)
 .data          0x0000000000000000        0x0 ../../libs/cpu/libplatform.a(audio_mic_trim.o)
 .bss           0x0000000000000000        0x0 ../../libs/cpu/libplatform.a(audio_mic_trim.o)
 .text.audio_mic_trim_sta_set
                0x0000000000000000        0xa ../../libs/cpu/libplatform.a(audio_mic_trim.o)
 .text.audio_mic_trim_sta_get
                0x0000000000000000        0xa ../../libs/cpu/libplatform.a(audio_mic_trim.o)
 .text.audio_mic_dbg
                0x0000000000000000       0x9e ../../libs/cpu/libplatform.a(audio_mic_trim.o)
 .text.audio_micdc_trim_step0_init
                0x0000000000000000       0x42 ../../libs/cpu/libplatform.a(audio_mic_trim.o)
 .text.audio_micdc_trim_step0_waiting
                0x0000000000000000       0x14 ../../libs/cpu/libplatform.a(audio_mic_trim.o)
 .rodata.audio_micdc_trim_step0_run.str1.4
                0x0000000000000000       0x20 ../../libs/cpu/libplatform.a(audio_mic_trim.o)
 .text.audio_micdc_trim_step0_run
                0x0000000000000000      0x146 ../../libs/cpu/libplatform.a(audio_mic_trim.o)
 .text.audio_micdc_trim_step1_init
                0x0000000000000000       0x20 ../../libs/cpu/libplatform.a(audio_mic_trim.o)
 .text.audio_micdc_trim_step1_waiting
                0x0000000000000000       0x12 ../../libs/cpu/libplatform.a(audio_mic_trim.o)
 .text.audio_micdc_trim_step1_run
                0x0000000000000000       0x26 ../../libs/cpu/libplatform.a(audio_mic_trim.o)
 .text.audio_micdc_trim_step2_init
                0x0000000000000000        0x8 ../../libs/cpu/libplatform.a(audio_mic_trim.o)
 .text.audio_micdc_trim_step2_waiting
                0x0000000000000000        0x8 ../../libs/cpu/libplatform.a(audio_mic_trim.o)
 .text.audio_micdc_trim_step2_run
                0x0000000000000000        0xe ../../libs/cpu/libplatform.a(audio_mic_trim.o)
 .rodata.micin_config.str1.4
                0x0000000000000000       0x20 ../../libs/cpu/libplatform.a(audio_mic_trim.o)
 .text.micin_config
                0x0000000000000000       0x6e ../../libs/cpu/libplatform.a(audio_mic_trim.o)
 .text.audio_micin_trim_step0_init
                0x0000000000000000       0x3a ../../libs/cpu/libplatform.a(audio_mic_trim.o)
 .text.audio_micin_trim_step0_waiting
                0x0000000000000000       0x14 ../../libs/cpu/libplatform.a(audio_mic_trim.o)
 .text.audio_micin_trim_step0_run
                0x0000000000000000       0x60 ../../libs/cpu/libplatform.a(audio_mic_trim.o)
 .text.audio_micin_trim_step1_init
                0x0000000000000000       0x2e ../../libs/cpu/libplatform.a(audio_mic_trim.o)
 .text.audio_micin_trim_step1_waiting
                0x0000000000000000        0x8 ../../libs/cpu/libplatform.a(audio_mic_trim.o)
 .text.audio_micin_trim_step1_run
                0x0000000000000000       0x4c ../../libs/cpu/libplatform.a(audio_mic_trim.o)
 .text.audio_micin_trim_step2_run
                0x0000000000000000       0x64 ../../libs/cpu/libplatform.a(audio_mic_trim.o)
 .text.audio_mic_trim_proc
                0x0000000000000000      0x180 ../../libs/cpu/libplatform.a(audio_mic_trim.o)
 .text.audio_mic_trim_is_finish
                0x0000000000000000       0x10 ../../libs/cpu/libplatform.a(audio_mic_trim.o)
 .bss.audio_mic_trim
                0x0000000000000000       0x18 ../../libs/cpu/libplatform.a(audio_mic_trim.o)
 .rodata.CSWTCH.14
                0x0000000000000000       0x4c ../../libs/cpu/libplatform.a(audio_mic_trim.o)
 .rodata.CSWTCH.15
                0x0000000000000000       0x4c ../../libs/cpu/libplatform.a(audio_mic_trim.o)
 .comment       0x0000000000000000       0x13 ../../libs/cpu/libplatform.a(audio_mic_trim.o)
 .riscv.attributes
                0x0000000000000000       0x32 ../../libs/cpu/libplatform.a(audio_mic_trim.o)
 .text          0x0000000000000000        0x0 ../../libs/cpu/libplatform.a(cm.o)
 .data          0x0000000000000000        0x0 ../../libs/cpu/libplatform.a(cm.o)
 .bss           0x0000000000000000        0x0 ../../libs/cpu/libplatform.a(cm.o)
 .rodata.cm_move_allpages.str1.4
                0x0000000000000000       0x3a ../../libs/cpu/libplatform.a(cm.o)
 .text.cm_move_allpages
                0x0000000000000000      0x13e ../../libs/cpu/libplatform.a(cm.o)
 .text.cm_get_startaddr
                0x0000000000000000        0xa ../../libs/cpu/libplatform.a(cm.o)
 .text.cm_get_area
                0x0000000000000000       0x14 ../../libs/cpu/libplatform.a(cm.o)
 .text.cm_release_all
                0x0000000000000000       0x8c ../../libs/cpu/libplatform.a(cm.o)
 .text.cm_read8
                0x0000000000000000       0x28 ../../libs/cpu/libplatform.a(cm.o)
 .text.cm_read16
                0x0000000000000000       0x28 ../../libs/cpu/libplatform.a(cm.o)
 .text.cm_read32
                0x0000000000000000       0x24 ../../libs/cpu/libplatform.a(cm.o)
 .text.cm_write8
                0x0000000000000000       0x28 ../../libs/cpu/libplatform.a(cm.o)
 .text.cm_write16
                0x0000000000000000       0x28 ../../libs/cpu/libplatform.a(cm.o)
 .text.cm_write32
                0x0000000000000000       0x24 ../../libs/cpu/libplatform.a(cm.o)
 .text.cm_clear
                0x0000000000000000       0x60 ../../libs/cpu/libplatform.a(cm.o)
 .text          0x0000000000000000        0x0 ../../libs/cpu/libplatform.a(os_flash.o)
 .data          0x0000000000000000        0x0 ../../libs/cpu/libplatform.a(os_flash.o)
 .bss           0x0000000000000000        0x0 ../../libs/cpu/libplatform.a(os_flash.o)
 .com_text.spiflash.id
                0x0000000000000000        0x8 ../../libs/cpu/libplatform.a(os_flash.o)
 .text          0x0000000000000000        0x0 ../../libs/cpu/libplatform.a(xcfg.o)
 .data          0x0000000000000000        0x0 ../../libs/cpu/libplatform.a(xcfg.o)
 .bss           0x0000000000000000        0x0 ../../libs/cpu/libplatform.a(xcfg.o)
 .text          0x0000000000000000        0x0 ../../libs/cpu/libplatform.a(main.o)
 .data          0x0000000000000000        0x0 ../../libs/cpu/libplatform.a(main.o)
 .bss           0x0000000000000000        0x0 ../../libs/cpu/libplatform.a(main.o)
 .text          0x0000000000000000        0x0 ../../libs/cpu/libplatform.a(interrupt.o)
 .data          0x0000000000000000        0x0 ../../libs/cpu/libplatform.a(interrupt.o)
 .bss           0x0000000000000000        0x0 ../../libs/cpu/libplatform.a(interrupt.o)
 .com_text.irq.wpt
                0x0000000000000000       0x3e ../../libs/cpu/libplatform.a(interrupt.o)
 .text.sys_irq_init
                0x0000000000000000       0x96 ../../libs/cpu/libplatform.a(interrupt.o)
 .rodata.watch_point_set.str1.4
                0x0000000000000000       0x28 ../../libs/cpu/libplatform.a(interrupt.o)
 .text.watch_point_set
                0x0000000000000000       0x5c ../../libs/cpu/libplatform.a(interrupt.o)
 .text.wdt_init
                0x0000000000000000       0x3a ../../libs/cpu/libplatform.a(interrupt.o)
 .text.usb_irq_init
                0x0000000000000000       0x2e ../../libs/cpu/libplatform.a(interrupt.o)
 .com_rodata.irq.wpt
                0x0000000000000000       0x1b ../../libs/cpu/libplatform.a(interrupt.o)
 .text          0x0000000000000000        0x0 ../../libs/cpu/libplatform.a(startup.o)
 .data          0x0000000000000000        0x0 ../../libs/cpu/libplatform.a(startup.o)
 .bss           0x0000000000000000        0x0 ../../libs/cpu/libplatform.a(startup.o)
 .com_text.timer
                0x0000000000000000       0x16 ../../libs/cpu/libplatform.a(startup.o)
 .text.mem_heap_size_get
                0x0000000000000000        0x6 ../../libs/cpu/libplatform.a(startup.o)
 .text.thread_cfg_get
                0x0000000000000000        0x4 ../../libs/cpu/libplatform.a(startup.o)
 .rodata.thread_timer_create.str1.4
                0x0000000000000000        0x4 ../../libs/cpu/libplatform.a(startup.o)
 .text.thread_timer_create
                0x0000000000000000       0x76 ../../libs/cpu/libplatform.a(startup.o)
 .rodata.thread_driver_create.str1.4
                0x0000000000000000        0x4 ../../libs/cpu/libplatform.a(startup.o)
 .text.thread_driver_create
                0x0000000000000000       0x70 ../../libs/cpu/libplatform.a(startup.o)
 .text.thread_create_callback
                0x0000000000000000       0x28 ../../libs/cpu/libplatform.a(startup.o)
 .bss.driver    0x0000000000000000        0x4 ../../libs/cpu/libplatform.a(startup.o)
 .bss.timer     0x0000000000000000       0x28 ../../libs/cpu/libplatform.a(startup.o)
 .osmem         0x0000000000000000      0x600 ../../libs/cpu/libplatform.a(startup.o)
 .text          0x0000000000000000        0x0 ../../libs/cpu/libplatform.a(sys_hook.o)
 .data          0x0000000000000000        0x0 ../../libs/cpu/libplatform.a(sys_hook.o)
 .bss           0x0000000000000000        0x0 ../../libs/cpu/libplatform.a(sys_hook.o)
 .text          0x0000000000000000        0x0 ../../libs/cpu/libplatform.a(thread_driver.o)
 .data          0x0000000000000000        0x0 ../../libs/cpu/libplatform.a(thread_driver.o)
 .bss           0x0000000000000000        0x0 ../../libs/cpu/libplatform.a(thread_driver.o)
 .com_text.thread.driver.usb
                0x0000000000000000       0x4e ../../libs/cpu/libplatform.a(thread_driver.o)
 .com_text.thread.driver.vs
                0x0000000000000000       0x4e ../../libs/cpu/libplatform.a(thread_driver.o)
 .text.thread.driver.usb
                0x0000000000000000       0x1a ../../libs/cpu/libplatform.a(thread_driver.o)
 .text.thread.driver.vs
                0x0000000000000000       0x1a ../../libs/cpu/libplatform.a(thread_driver.o)
 .com_text.thread.driver.enter
                0x0000000000000000       0x5c ../../libs/cpu/libplatform.a(thread_driver.o)
 .sbss.thread_driver_usb_enter_func
                0x0000000000000000        0x4 ../../libs/cpu/libplatform.a(thread_driver.o)
 .sbss.thread_driver_vs_enter_func
                0x0000000000000000        0x4 ../../libs/cpu/libplatform.a(thread_driver.o)
 .comment       0x0000000000000000       0x13 ../../libs/cpu/libplatform.a(thread_driver.o)
 .riscv.attributes
                0x0000000000000000       0x32 ../../libs/cpu/libplatform.a(thread_driver.o)
 .text          0x0000000000000000        0x0 ../../libs/cpu/libplatform.a(pll.o)
 .data          0x0000000000000000        0x0 ../../libs/cpu/libplatform.a(pll.o)
 .bss           0x0000000000000000        0x0 ../../libs/cpu/libplatform.a(pll.o)
 .text.pll_clk_nhz_get
                0x0000000000000000        0xa ../../libs/cpu/libplatform.a(pll.o)
 .text.pll_ext_init
                0x0000000000000000      0x204 ../../libs/cpu/libplatform.a(pll.o)
 .text          0x0000000000000000        0x0 ../../libs/cpu/libplatform.a(pmu.o)
 .data          0x0000000000000000        0x0 ../../libs/cpu/libplatform.a(pmu.o)
 .bss           0x0000000000000000        0x0 ../../libs/cpu/libplatform.a(pmu.o)
 .com_text.trim.vddio_get
                0x0000000000000000        0xa ../../libs/cpu/libplatform.a(pmu.o)
 .com_text.trim.vddio_set
                0x0000000000000000       0x2c ../../libs/cpu/libplatform.a(pmu.o)
 .com_text.trim.core_get
                0x0000000000000000        0xa ../../libs/cpu/libplatform.a(pmu.o)
 .com_text.trim.core_set
                0x0000000000000000       0x16 ../../libs/cpu/libplatform.a(pmu.o)
 .com_text.trim.lvd_get
                0x0000000000000000        0xa ../../libs/cpu/libplatform.a(pmu.o)
 .com_text.pmu.vddbt_set
                0x0000000000000000        0xe ../../libs/cpu/libplatform.a(pmu.o)
 .com_text.pmu.vddbt_get
                0x0000000000000000        0x8 ../../libs/cpu/libplatform.a(pmu.o)
 .text          0x0000000000000000        0x0 ../../libs/cpu/libplatform.a(reset.o)
 .data          0x0000000000000000        0x0 ../../libs/cpu/libplatform.a(reset.o)
 .bss           0x0000000000000000        0x0 ../../libs/cpu/libplatform.a(reset.o)
 .com_text.irq  0x0000000000000000        0xe ../../libs/cpu/libplatform.a(reset.o)
 .text          0x0000000000000000        0x0 ../../libs/cpu/libplatform.a(context.o)
 .data          0x0000000000000000        0x0 ../../libs/cpu/libplatform.a(context.o)
 .bss           0x0000000000000000        0x0 ../../libs/cpu/libplatform.a(context.o)
 .riscv.attributes
                0x0000000000000000       0x30 ../../libs/cpu/libplatform.a(context.o)
 .text          0x0000000000000000        0x0 ../../libs/cpu/libplatform.a(spiflash.o)
 .data          0x0000000000000000        0x0 ../../libs/cpu/libplatform.a(spiflash.o)
 .bss           0x0000000000000000        0x0 ../../libs/cpu/libplatform.a(spiflash.o)
 .text          0x0000000000000000        0x0 ../../libs/cpu/libplatform.a(debug.o)
 .data          0x0000000000000000        0x0 ../../libs/cpu/libplatform.a(debug.o)
 .bss           0x0000000000000000        0x0 ../../libs/cpu/libplatform.a(debug.o)
 .text.debug_dump_info_nanos_schedule
                0x0000000000000000        0x2 ../../libs/cpu/libplatform.a(debug.o)
 .text.debug_dump_info_nanos_timer
                0x0000000000000000        0x2 ../../libs/cpu/libplatform.a(debug.o)
 .text          0x0000000000000000        0x0 ../../libs/cpu/libplatform.a(fot_pack.o)
 .data          0x0000000000000000        0x0 ../../libs/cpu/libplatform.a(fot_pack.o)
 .bss           0x0000000000000000        0x0 ../../libs/cpu/libplatform.a(fot_pack.o)
 .text.ota_pack
                0x0000000000000000      0x4ea ../../libs/cpu/libplatform.a(fot_pack.o)
 .text.ota_pack_get_curaddr
                0x0000000000000000        0xa ../../libs/cpu/libplatform.a(fot_pack.o)
 .text.ota_pack_get_err
                0x0000000000000000       0x14 ../../libs/cpu/libplatform.a(fot_pack.o)
 .text.ota_pack_get_dst_start
                0x0000000000000000        0xa ../../libs/cpu/libplatform.a(fot_pack.o)
 .text.ota_pack_done
                0x0000000000000000       0x58 ../../libs/cpu/libplatform.a(fot_pack.o)
 .text.fot.cache
                0x0000000000000000      0x156 ../../libs/cpu/libplatform.a(fot_pack.o)
 .text.ota_pack_breakpoint_info_read
                0x0000000000000000       0xbc ../../libs/cpu/libplatform.a(fot_pack.o)
 .fot_data.com.pack
                0x0000000000000000       0x44 ../../libs/cpu/libplatform.a(fot_pack.o)
 .sbss.fot_update_init
                0x0000000000000000        0x1 ../../libs/cpu/libplatform.a(fot_pack.o)
 .text          0x0000000000000000        0x0 ../../libs/cpu/libplatform.a(lock.o)
 .data          0x0000000000000000        0x0 ../../libs/cpu/libplatform.a(lock.o)
 .bss           0x0000000000000000        0x0 ../../libs/cpu/libplatform.a(lock.o)
 .rodata.lock_code_usbdev.str1.4
                0x0000000000000000       0x16 ../../libs/cpu/libplatform.a(lock.o)
 .text.lock_code_usbdev
                0x0000000000000000       0x54 ../../libs/cpu/libplatform.a(lock.o)
 .text.unlock_code_usbdev
                0x0000000000000000       0x28 ../../libs/cpu/libplatform.a(lock.o)
 .text          0x0000000000000000        0x0 ../../libs/cpu/libplatform.a(patch.o)
 .data          0x0000000000000000        0x0 ../../libs/cpu/libplatform.a(patch.o)
 .bss           0x0000000000000000        0x0 ../../libs/cpu/libplatform.a(patch.o)
 .text          0x0000000000000000        0x0 ../../libs/cpu/libplatform.a(s_sys.o)
 .data          0x0000000000000000        0x0 ../../libs/cpu/libplatform.a(s_sys.o)
 .bss           0x0000000000000000        0x0 ../../libs/cpu/libplatform.a(s_sys.o)
 .com_text.sys.alu
                0x0000000000000000       0x66 ../../libs/cpu/libplatform.a(s_sys.o)
 .text          0x0000000000000000        0x0 ../../libs/cpu/libplatform.a(sleep.o)
 .data          0x0000000000000000        0x0 ../../libs/cpu/libplatform.a(sleep.o)
 .bss           0x0000000000000000        0x0 ../../libs/cpu/libplatform.a(sleep.o)
 .com_sleep.lp.sleep
                0x0000000000000000       0x76 ../../libs/cpu/libplatform.a(sleep.o)
 .comment       0x0000000000000000       0x13 ../../libs/cpu/libplatform.a(sleep.o)
 .riscv.attributes
                0x0000000000000000       0x32 ../../libs/cpu/libplatform.a(sleep.o)
 .text          0x0000000000000000        0x0 ../../libs/cpu/libplatform.a(sys.o)
 .data          0x0000000000000000        0x0 ../../libs/cpu/libplatform.a(sys.o)
 .bss           0x0000000000000000        0x0 ../../libs/cpu/libplatform.a(sys.o)
 .text.dbg_clk_out
                0x0000000000000000       0x46 ../../libs/cpu/libplatform.a(sys.o)
 .text.rc2m_clk_nhz_get
                0x0000000000000000       0x30 ../../libs/cpu/libplatform.a(sys.o)
 .com_text.sys  0x0000000000000000       0x1e ../../libs/cpu/libplatform.a(sys.o)
 .text.sw_reset_source_get
                0x0000000000000000       0x2a ../../libs/cpu/libplatform.a(sys.o)
 .text.random_init
                0x0000000000000000        0xa ../../libs/cpu/libplatform.a(sys.o)
 .text.sys_get_rand_key
                0x0000000000000000       0x6c ../../libs/cpu/libplatform.a(sys.o)
 .text.get_random
                0x0000000000000000       0x26 ../../libs/cpu/libplatform.a(sys.o)
 .text.bt_restore_xosc_cap
                0x0000000000000000        0x8 ../../libs/cpu/libplatform.a(sys.o)
 .text.__divdi3
                0x0000000000000000       0x5c ../../libs/cpu/libplatform.a(sys.o)
 .text.__umoddi3
                0x0000000000000000       0x30 ../../libs/cpu/libplatform.a(sys.o)
 .text          0x0000000000000000        0x0 ../../libs/cpu/libplatform.a(sys_clk.o)
 .data          0x0000000000000000        0x0 ../../libs/cpu/libplatform.a(sys_clk.o)
 .bss           0x0000000000000000        0x0 ../../libs/cpu/libplatform.a(sys_clk.o)
 .text.periph_cacl_clkdiv
                0x0000000000000000        0x2 ../../libs/cpu/libplatform.a(sys_clk.o)
 .text.sys_clk_nhz_get
                0x0000000000000000       0x5e ../../libs/cpu/libplatform.a(sys_clk.o)
 .text.sys_clk_get
                0x0000000000000000        0xa ../../libs/cpu/libplatform.a(sys_clk.o)
 .text.sys_clk_lower_limit_lock
                0x0000000000000000       0x84 ../../libs/cpu/libplatform.a(sys_clk.o)
 .text.sys_clk_lower_limit_unlock
                0x0000000000000000       0x6c ../../libs/cpu/libplatform.a(sys_clk.o)
 .text.sys_clk_lower_limit_all_unlock
                0x0000000000000000       0x50 ../../libs/cpu/libplatform.a(sys_clk.o)
 .sbss.cfg_spiflash_speed_up_en
                0x0000000000000000        0x1 ../../libs/cpu/libplatform.a(sys_clk.o)
 .srodata.rtc_clk_div_coef
                0x0000000000000000        0x4 ../../libs/cpu/libplatform.a(sys_clk.o)
 .text          0x0000000000000000        0x0 ../../libs/cpu/libplatform.a(voltage_trim.o)
 .data          0x0000000000000000        0x0 ../../libs/cpu/libplatform.a(voltage_trim.o)
 .bss           0x0000000000000000        0x0 ../../libs/cpu/libplatform.a(voltage_trim.o)
 .text.pmu_get_vbg_mv
                0x0000000000000000        0xe ../../libs/cpu/libplatform.a(voltage_trim.o)
 .text.pmu_get_vbatdet
                0x0000000000000000       0x46 ../../libs/cpu/libplatform.a(voltage_trim.o)
 .rodata.voltage_trim_value_dump.str1.4
                0x0000000000000000       0x63 ../../libs/cpu/libplatform.a(voltage_trim.o)
 .text.voltage_trim_value_dump
                0x0000000000000000       0x8c ../../libs/cpu/libplatform.a(voltage_trim.o)
 .text          0x0000000000000000        0x0 ../../libs/cpu/libplatform.a(weak_symbol.o)
 .data          0x0000000000000000        0x0 ../../libs/cpu/libplatform.a(weak_symbol.o)
 .bss           0x0000000000000000        0x0 ../../libs/cpu/libplatform.a(weak_symbol.o)
 .text.xosc_get_xcfg
                0x0000000000000000        0x2 ../../libs/cpu/libplatform.a(weak_symbol.o)
 .text.param_xosc_read
                0x0000000000000000        0x2 ../../libs/cpu/libplatform.a(weak_symbol.o)
 .text.param_xosc_write
                0x0000000000000000        0x2 ../../libs/cpu/libplatform.a(weak_symbol.o)
 .text.sys_clk_change_callback
                0x0000000000000000        0x2 ../../libs/cpu/libplatform.a(weak_symbol.o)
 .text.uart_debug_init_callback
                0x0000000000000000        0x2 ../../libs/cpu/libplatform.a(weak_symbol.o)
 .text.nanos_var_init
                0x0000000000000000       0x1c ../../libs/cpu/libplatform.a(weak_symbol.o)
 .text.btstack_message
                0x0000000000000000        0x4 ../../libs/cpu/libplatform.a(weak_symbol.o)
 .com_text.stack.api
                0x0000000000000000        0x4 ../../libs/cpu/libplatform.a(weak_symbol.o)
 .com_text.ret.stack.thread
                0x0000000000000000        0x2 ../../libs/cpu/libplatform.a(weak_symbol.o)
 .com_text.bb.isr
                0x0000000000000000        0x6 ../../libs/cpu/libplatform.a(weak_symbol.o)
 .com_text.isr  0x0000000000000000        0x2 ../../libs/cpu/libplatform.a(weak_symbol.o)
 .text.btstack_var_init
                0x0000000000000000        0x2 ../../libs/cpu/libplatform.a(weak_symbol.o)
 .text.bb_patch_init
                0x0000000000000000        0x4 ../../libs/cpu/libplatform.a(weak_symbol.o)
 .text.bb_nanos_mem_init
                0x0000000000000000        0x2 ../../libs/cpu/libplatform.a(weak_symbol.o)
 .bss.heap_buf  0x0000000000000000       0x14 ../../libs/cpu/libplatform.a(weak_symbol.o)
 .bss.heap_size_buf
                0x0000000000000000        0xa ../../libs/cpu/libplatform.a(weak_symbol.o)
 .text          0x0000000000000000        0x0 ../../libs/cpu/libplatform.a(bt.o)
 .data          0x0000000000000000        0x0 ../../libs/cpu/libplatform.a(bt.o)
 .bss           0x0000000000000000        0x0 ../../libs/cpu/libplatform.a(bt.o)
 .text          0x0000000000000000        0x0 ../../libs/cpu/libplatform.a(freq_det.o)
 .data          0x0000000000000000        0x0 ../../libs/cpu/libplatform.a(freq_det.o)
 .bss           0x0000000000000000        0x0 ../../libs/cpu/libplatform.a(freq_det.o)
 .com_sleep.sleep.rc
                0x0000000000000000       0x50 ../../libs/cpu/libplatform.a(freq_det.o)
 .data          0x0000000000000000        0x0 ../../libs/ble/libbtstack.a(txpkt.o)
 .bss           0x0000000000000000        0x0 ../../libs/ble/libbtstack.a(txpkt.o)
 .data          0x0000000000000000        0x0 ../../libs/ble/libbtstack.a(hci.o)
 .bss           0x0000000000000000        0x0 ../../libs/ble/libbtstack.a(hci.o)
 .text.hci.adv.is_enable
                0x0000000000000000       0x14 ../../libs/ble/libbtstack.a(hci.o)
 .com_text.stack.hci_recv
                0x0000000000000000       0x10 ../../libs/ble/libbtstack.a(hci.o)
 .data          0x0000000000000000        0x0 ../../libs/ble/libbtstack.a(btstack_util.o)
 .bss           0x0000000000000000        0x0 ../../libs/ble/libbtstack.a(btstack_util.o)
 .text          0x0000000000000000      0x990 ../../libs/ble/libbtstack.a(sm.o)
 .data          0x0000000000000000        0x0 ../../libs/ble/libbtstack.a(sm.o)
 .rodata.str1.4
                0x0000000000000000       0x50 ../../libs/ble/libbtstack.a(sm.o)
 .text.sm.request
                0x0000000000000000       0xb4 ../../libs/ble/libbtstack.a(sm.o)
 .text.sm.er.get
                0x0000000000000000       0x4a ../../libs/ble/libbtstack.a(sm.o)
 .text.sm.ir    0x0000000000000000       0x4a ../../libs/ble/libbtstack.a(sm.o)
 .text.sm.cmac  0x0000000000000000       0x82 ../../libs/ble/libbtstack.a(sm.o)
 .text.sm.irk.set
                0x0000000000000000       0x2e ../../libs/ble/libbtstack.a(sm.o)
 .text.stack.ble.sm
                0x0000000000000000      0x110 ../../libs/ble/libbtstack.a(sm.o)
 .text.sm.key_size
                0x0000000000000000       0x2c ../../libs/ble/libbtstack.a(sm.o)
 .text.sm.auth  0x0000000000000000       0x2c ../../libs/ble/libbtstack.a(sm.o)
 .text.sm.pairing
                0x0000000000000000       0x30 ../../libs/ble/libbtstack.a(sm.o)
 .text.sm.bonding_decline
                0x0000000000000000       0x60 ../../libs/ble/libbtstack.a(sm.o)
 .text.sm.confirm
                0x0000000000000000       0x38 ../../libs/ble/libbtstack.a(sm.o)
 .text.sm.passkey.set
                0x0000000000000000       0x3e ../../libs/ble/libbtstack.a(sm.o)
 .text.sm.passkey.get
                0x0000000000000000       0x2e ../../libs/ble/libbtstack.a(sm.o)
 .text.sm.passkey.input
                0x0000000000000000       0x58 ../../libs/ble/libbtstack.a(sm.o)
 .text.sm.identity_resolving_state
                0x0000000000000000       0x20 ../../libs/ble/libbtstack.a(sm.o)
 .text.gap.addr
                0x0000000000000000        0xa ../../libs/ble/libbtstack.a(sm.o)
 .text.sm.run   0x0000000000000000      0xca8 ../../libs/ble/libbtstack.a(sm.o)
 .text.sm.pdu   0x0000000000000000      0x2cc ../../libs/ble/libbtstack.a(sm.o)
 .text.sm.event
                0x0000000000000000      0xae8 ../../libs/ble/libbtstack.a(sm.o)
 .text.sm.reconnect
                0x0000000000000000       0x58 ../../libs/ble/libbtstack.a(sm.o)
 .text.sm.irk_get
                0x0000000000000000        0xa ../../libs/ble/libbtstack.a(sm.o)
 .text.sm.delete_bonding
                0x0000000000000000       0x6e ../../libs/ble/libbtstack.a(sm.o)
 .rodata        0x0000000000000000       0x64 ../../libs/ble/libbtstack.a(sm.o)
 .ble_cache.sm  0x0000000000000000        0x8 ../../libs/ble/libbtstack.a(sm.o)
 .ble_cache.sm.auth
                0x0000000000000000        0x1 ../../libs/ble/libbtstack.a(sm.o)
 .ble_cache.sm.cmac
                0x0000000000000000       0x45 ../../libs/ble/libbtstack.a(sm.o)
 .ble_cache.sm.dhk
                0x0000000000000000       0x10 ../../libs/ble/libbtstack.a(sm.o)
 .ble_cache.sm.io
                0x0000000000000000        0x1 ../../libs/ble/libbtstack.a(sm.o)
 .ble_cache.sm.req
                0x0000000000000000        0x1 ../../libs/ble/libbtstack.a(sm.o)
 .ble_cache.sm.resolution
                0x0000000000000000       0x18 ../../libs/ble/libbtstack.a(sm.o)
 .ble_cache.sm.setup
                0x0000000000000000      0x100 ../../libs/ble/libbtstack.a(sm.o)
 .sdata         0x0000000000000000        0x2 ../../libs/ble/libbtstack.a(sm.o)
 .data          0x0000000000000000        0x0 ../../libs/ble/libbtstack.a(le_device_db_memory.o)
 .bss           0x0000000000000000        0x0 ../../libs/ble/libbtstack.a(le_device_db_memory.o)
 .text.le.db.get
                0x0000000000000000       0x3e ../../libs/ble/libbtstack.a(le_device_db_memory.o)
 .text.le.db.remove
                0x0000000000000000       0x9e ../../libs/ble/libbtstack.a(le_device_db_memory.o)
 .text.le.db.remove_all
                0x0000000000000000       0x60 ../../libs/ble/libbtstack.a(le_device_db_memory.o)
 .rodata.str1.4
                0x0000000000000000        0x4 ../../libs/ble/libbtstack.a(le_device_db_memory.o)
 .text.le.db.add
                0x0000000000000000       0xe4 ../../libs/ble/libbtstack.a(le_device_db_memory.o)
 .text.le.db.dump
                0x0000000000000000       0x6a ../../libs/ble/libbtstack.a(le_device_db_memory.o)
 .text.le.db.get_index
                0x0000000000000000       0x1c ../../libs/ble/libbtstack.a(le_device_db_memory.o)
 .data          0x0000000000000000        0x0 ../../libs/ble/libbtstack.a(gatt_server.o)
 .bss           0x0000000000000000        0x0 ../../libs/ble/libbtstack.a(gatt_server.o)
 .text.stack.send.ntf_kick
                0x0000000000000000        0x8 ../../libs/ble/libbtstack.a(gatt_server.o)
 .text          0x0000000000000000     0x1dc0 ../../libs/ble/libbtstack.a(gatt_client.o)
 .data          0x0000000000000000        0x0 ../../libs/ble/libbtstack.a(gatt_client.o)
 .bss           0x0000000000000000        0x0 ../../libs/ble/libbtstack.a(gatt_client.o)
 .text.client.set.sm_level
                0x0000000000000000        0xa ../../libs/ble/libbtstack.a(gatt_client.o)
 .text.client.write_req
                0x0000000000000000       0x88 ../../libs/ble/libbtstack.a(gatt_client.o)
 .text.client.stop_listening
                0x0000000000000000       0x14 ../../libs/ble/libbtstack.a(gatt_client.o)
 .text.sm.client
                0x0000000000000000      0x1a4 ../../libs/ble/libbtstack.a(gatt_client.o)
 .text.client.deserialize_service
                0x0000000000000000       0x5c ../../libs/ble/libbtstack.a(gatt_client.o)
 .text.client.deserialize_characteristic
                0x0000000000000000       0x6c ../../libs/ble/libbtstack.a(gatt_client.o)
 .text.client.deserialize_characteristic_descriptor
                0x0000000000000000       0x4e ../../libs/ble/libbtstack.a(gatt_client.o)
 .text.client.get_character_uuid16
                0x0000000000000000       0x22 ../../libs/ble/libbtstack.a(gatt_client.o)
 .text.client.get_character_uuid128
                0x0000000000000000       0x42 ../../libs/ble/libbtstack.a(gatt_client.o)
 .text.client.write_cmd
                0x0000000000000000       0x24 ../../libs/ble/libbtstack.a(gatt_client.o)
 .text.client.read_req
                0x0000000000000000       0x44 ../../libs/ble/libbtstack.a(gatt_client.o)
 .text.client.read_blob
                0x0000000000000000       0x22 ../../libs/ble/libbtstack.a(gatt_client.o)
 .text.stack.send.client
                0x0000000000000000       0x96 ../../libs/ble/libbtstack.a(gatt_client.o)
 .text.client.find_services
                0x0000000000000000       0x5e ../../libs/ble/libbtstack.a(gatt_client.o)
 .text.client.discover_secondary_services
                0x0000000000000000       0x4c ../../libs/ble/libbtstack.a(gatt_client.o)
 .text.client.find_services_uuid16
                0x0000000000000000       0x6a ../../libs/ble/libbtstack.a(gatt_client.o)
 .text.client.find_services_uuid128
                0x0000000000000000       0x6e ../../libs/ble/libbtstack.a(gatt_client.o)
 .text.client.find_character
                0x0000000000000000       0x6a ../../libs/ble/libbtstack.a(gatt_client.o)
 .text.client.find_included_services
                0x0000000000000000       0x4e ../../libs/ble/libbtstack.a(gatt_client.o)
 .text.client.find_character_uuid16
                0x0000000000000000       0x90 ../../libs/ble/libbtstack.a(gatt_client.o)
 .text.client.find_character_uuid128
                0x0000000000000000       0x92 ../../libs/ble/libbtstack.a(gatt_client.o)
 .text.client.discover_characteristic_descriptors
                0x0000000000000000       0x5e ../../libs/ble/libbtstack.a(gatt_client.o)
 .text.client.read_value
                0x0000000000000000        0xc ../../libs/ble/libbtstack.a(gatt_client.o)
 .text.client.read_value_uuid16
                0x0000000000000000       0x66 ../../libs/ble/libbtstack.a(gatt_client.o)
 .text.client.read_value_uuid128
                0x0000000000000000       0x68 ../../libs/ble/libbtstack.a(gatt_client.o)
 .text.client.read_long_value_offset
                0x0000000000000000       0x4a ../../libs/ble/libbtstack.a(gatt_client.o)
 .text.client.read_long_value
                0x0000000000000000       0x16 ../../libs/ble/libbtstack.a(gatt_client.o)
 .text.client.read_multiple
                0x0000000000000000       0x48 ../../libs/ble/libbtstack.a(gatt_client.o)
 .text.client.write_long_value
                0x0000000000000000       0x62 ../../libs/ble/libbtstack.a(gatt_client.o)
 .text.client.reliable_write_long
                0x0000000000000000       0x52 ../../libs/ble/libbtstack.a(gatt_client.o)
 .text.client.read_characteristic
                0x0000000000000000       0x50 ../../libs/ble/libbtstack.a(gatt_client.o)
 .text.client.read_long_characteristic_descriptor
                0x0000000000000000       0x62 ../../libs/ble/libbtstack.a(gatt_client.o)
 .text.client.write_character_desc
                0x0000000000000000       0x60 ../../libs/ble/libbtstack.a(gatt_client.o)
 .text.client.write_long_character_desc
                0x0000000000000000       0x70 ../../libs/ble/libbtstack.a(gatt_client.o)
 .text.client.prepare_write
                0x0000000000000000       0x56 ../../libs/ble/libbtstack.a(gatt_client.o)
 .text.client.execute_write
                0x0000000000000000       0x3c ../../libs/ble/libbtstack.a(gatt_client.o)
 .text.client.cancel_write
                0x0000000000000000       0x3c ../../libs/ble/libbtstack.a(gatt_client.o)
 .rodata        0x0000000000000000       0x14 ../../libs/ble/libbtstack.a(gatt_client.o)
 .ble_buf.read  0x0000000000000000        0x6 ../../libs/ble/libbtstack.a(gatt_client.o)
 .sbss          0x0000000000000000        0x4 ../../libs/ble/libbtstack.a(gatt_client.o)
 .data          0x0000000000000000        0x0 ../../libs/ble/libbtstack.a(att_server.o)
 .bss           0x0000000000000000        0x0 ../../libs/ble/libbtstack.a(att_server.o)
 .text.sm.server
                0x0000000000000000      0x210 ../../libs/ble/libbtstack.a(att_server.o)
 .data          0x0000000000000000        0x0 ../../libs/ble/libbtstack.a(att_dispatch.o)
 .bss           0x0000000000000000        0x0 ../../libs/ble/libbtstack.a(att_dispatch.o)
 .text.att.register_client
                0x0000000000000000       0x1a ../../libs/ble/libbtstack.a(att_dispatch.o)
 .text.att.client_mtu
                0x0000000000000000       0x14 ../../libs/ble/libbtstack.a(att_dispatch.o)
 .data          0x0000000000000000        0x0 ../../libs/ble/libbtstack.a(att_db.o)
 .bss           0x0000000000000000        0x0 ../../libs/ble/libbtstack.a(att_db.o)
 .text.att.dump
                0x0000000000000000       0x5c ../../libs/ble/libbtstack.a(att_db.o)
 .text.gatt.get_client_config
                0x0000000000000000      0x122 ../../libs/ble/libbtstack.a(att_db.o)
 .text          0x0000000000000000      0x270 ../../libs/ble/libbtstack.a(ad_parser.o)
 .data          0x0000000000000000        0x0 ../../libs/ble/libbtstack.a(ad_parser.o)
 .bss           0x0000000000000000        0x0 ../../libs/ble/libbtstack.a(ad_parser.o)
 .comment       0x0000000000000000       0x13 ../../libs/ble/libbtstack.a(ad_parser.o)
 .riscv.attributes
                0x0000000000000000       0x32 ../../libs/ble/libbtstack.a(ad_parser.o)
 .data          0x0000000000000000        0x0 ../../libs/ble/libbtstack.a(hci_transport_h3_controller.o)
 .bss           0x0000000000000000       0x20 ../../libs/ble/libbtstack.a(hci_transport_h3_controller.o)
 .text.stack.h3c
                0x0000000000000000      0x1dc ../../libs/ble/libbtstack.a(hci_transport_h3_controller.o)
 .rodata.str1.4
                0x0000000000000000       0x16 ../../libs/ble/libbtstack.a(hci_transport_h3_controller.o)
 .com_text.stack.h3c
                0x0000000000000000       0x48 ../../libs/ble/libbtstack.a(hci_transport_h3_controller.o)
 .com_text.stack.util
                0x0000000000000000      0x136 ../../libs/ble/libbtstack.a(hci_transport_h3_controller.o)
 .text.btstack.hci.h3c.init
                0x0000000000000000       0x12 ../../libs/ble/libbtstack.a(hci_transport_h3_controller.o)
 .rodata        0x0000000000000000       0x20 ../../libs/ble/libbtstack.a(hci_transport_h3_controller.o)
 .com_rodata.stack.h3
                0x0000000000000000        0x2 ../../libs/ble/libbtstack.a(hci_transport_h3_controller.o)
 .hci.h3.huart  0x0000000000000000      0x10c ../../libs/ble/libbtstack.a(hci_transport_h3_controller.o)
 .sbss          0x0000000000000000       0x1c ../../libs/ble/libbtstack.a(hci_transport_h3_controller.o)
 .data          0x0000000000000000        0x0 ../../libs/ble/libbtstack.a(hci_transport_dummy.o)
 .bss           0x0000000000000000        0x0 ../../libs/ble/libbtstack.a(hci_transport_dummy.o)
 .data          0x0000000000000000        0x0 ../../libs/ble/libbtstack.a(btstack_hal.o)
 .bss           0x0000000000000000        0x0 ../../libs/ble/libbtstack.a(btstack_hal.o)
 .com_text.stack.uart_isr
                0x0000000000000000       0x6c ../../libs/ble/libbtstack.a(btstack_hal.o)
 .text.stack.hal
                0x0000000000000000       0xa4 ../../libs/ble/libbtstack.a(btstack_hal.o)
 .com_text.stack.util
                0x0000000000000000       0x12 ../../libs/ble/libbtstack.a(btstack_hal.o)
 .sbss          0x0000000000000000        0x8 ../../libs/ble/libbtstack.a(btstack_hal.o)
 .data          0x0000000000000000        0x0 ../../libs/ble/libbtstack.a(btstack_api.o)
 .bss           0x0000000000000000        0x0 ../../libs/ble/libbtstack.a(btstack_api.o)
 .com_text.ret.bb.sleep
                0x0000000000000000       0x1e ../../libs/ble/libbtstack.a(btstack_api.o)
 .com_sleep.sleep
                0x0000000000000000        0x8 ../../libs/ble/libbtstack.a(btstack_api.o)
 .data          0x0000000000000000        0x0 ../../libs/ble/libbtstack.a(ble_api.o)
 .bss           0x0000000000000000        0x0 ../../libs/ble/libbtstack.a(ble_api.o)
 .text.ble.api.conn.update
                0x0000000000000000       0xb8 ../../libs/ble/libbtstack.a(ble_api.o)
 .text.stack.sleep
                0x0000000000000000       0xac ../../libs/ble/libbtstack.a(ble_api.o)
 .text.ble.api.max_mtu
                0x0000000000000000        0x8 ../../libs/ble/libbtstack.a(ble_api.o)
 .text.ble.api.adv_dis
                0x0000000000000000        0xc ../../libs/ble/libbtstack.a(ble_api.o)
 .text.ble.api.adv_en
                0x0000000000000000        0xc ../../libs/ble/libbtstack.a(ble_api.o)
 .text.ble.api.adv_is_en
                0x0000000000000000        0x8 ../../libs/ble/libbtstack.a(ble_api.o)
 .text.ble.api.discon
                0x0000000000000000        0xe ../../libs/ble/libbtstack.a(ble_api.o)
 .text.ble.api.adv_data.set
                0x0000000000000000       0x5c ../../libs/ble/libbtstack.a(ble_api.o)
 .text.ble.api.scan
                0x0000000000000000       0x5c ../../libs/ble/libbtstack.a(ble_api.o)
 .text.ble.api.adv_interval.set
                0x0000000000000000       0x56 ../../libs/ble/libbtstack.a(ble_api.o)
 .text.ble.api.adv.adv_interval.get
                0x0000000000000000       0x24 ../../libs/ble/libbtstack.a(ble_api.o)
 .text.ble.api.conn.ll_update
                0x0000000000000000        0xa ../../libs/ble/libbtstack.a(ble_api.o)
 .text.ble.api.conn_param.get
                0x0000000000000000        0x8 ../../libs/ble/libbtstack.a(ble_api.o)
 .text.ble.api.latency.dis
                0x0000000000000000       0x34 ../../libs/ble/libbtstack.a(ble_api.o)
 .text.ble.api.latency.en
                0x0000000000000000       0x34 ../../libs/ble/libbtstack.a(ble_api.o)
 .text.ble.api.adv
                0x0000000000000000        0x4 ../../libs/ble/libbtstack.a(ble_api.o)
 .text.ble.api.scan.dis
                0x0000000000000000        0x2 ../../libs/ble/libbtstack.a(ble_api.o)
 .text.ble.api.scan.en
                0x0000000000000000        0x2 ../../libs/ble/libbtstack.a(ble_api.o)
 .text.ble.api.scan.set
                0x0000000000000000        0x4 ../../libs/ble/libbtstack.a(ble_api.o)
 .text.ble.api.conn_do
                0x0000000000000000        0x4 ../../libs/ble/libbtstack.a(ble_api.o)
 .text.ble.api.rpa
                0x0000000000000000        0x2 ../../libs/ble/libbtstack.a(ble_api.o)
 .text.ble.api.rpa_en
                0x0000000000000000        0x2 ../../libs/ble/libbtstack.a(ble_api.o)
 .text.ble.api.rpa_add
                0x0000000000000000        0x2 ../../libs/ble/libbtstack.a(ble_api.o)
 .text.ble.api.rpa_dev
                0x0000000000000000        0x2 ../../libs/ble/libbtstack.a(ble_api.o)
 .text.ble.api.wlist_add
                0x0000000000000000        0x2 ../../libs/ble/libbtstack.a(ble_api.o)
 .text.ble.api.wlist_dev
                0x0000000000000000        0x2 ../../libs/ble/libbtstack.a(ble_api.o)
 .text.ble.api.wlist
                0x0000000000000000        0x4 ../../libs/ble/libbtstack.a(ble_api.o)
 .text.ble.api.sm.passkey
                0x0000000000000000       0x2c ../../libs/ble/libbtstack.a(ble_api.o)
 .text.ble.api.sm_req
                0x0000000000000000        0xe ../../libs/ble/libbtstack.a(ble_api.o)
 .text.ble.bond.delete_addr
                0x0000000000000000        0x8 ../../libs/ble/libbtstack.a(ble_api.o)
 .text.ble.bond.delete_index
                0x0000000000000000        0x8 ../../libs/ble/libbtstack.a(ble_api.o)
 .text.ble.bond.delete_all
                0x0000000000000000        0x8 ../../libs/ble/libbtstack.a(ble_api.o)
 .text.ble.bond.get_cnt
                0x0000000000000000       0x1c ../../libs/ble/libbtstack.a(ble_api.o)
 .text.ble.bond.get_info
                0x0000000000000000        0x8 ../../libs/ble/libbtstack.a(ble_api.o)
 .text.ble.bond.get_index
                0x0000000000000000        0x8 ../../libs/ble/libbtstack.a(ble_api.o)
 .text.ble.api.get_rssi
                0x0000000000000000        0x8 ../../libs/ble/libbtstack.a(ble_api.o)
 .text.ble.set_static_addr
                0x0000000000000000       0x48 ../../libs/ble/libbtstack.a(ble_api.o)
 .text.ble.single_mode
                0x0000000000000000       0x48 ../../libs/ble/libbtstack.a(ble_api.o)
 .data          0x0000000000000000        0x0 ../../libs/ble/libbtstack.a(txpkt.o)
 .bss           0x0000000000000000        0x0 ../../libs/ble/libbtstack.a(txpkt.o)
 .text          0x0000000000000000        0x0 ../../libs/ble/libbtstack.a(platform.o)
 .data          0x0000000000000000        0x0 ../../libs/ble/libbtstack.a(platform.o)
 .bss           0x0000000000000000        0x0 ../../libs/ble/libbtstack.a(platform.o)
 .com_text.bb.dbg.bt21
                0x0000000000000000        0x4 ../../libs/ble/libbtstack.a(platform.o)
 .data          0x0000000000000000        0x0 ../../libs/ble/libbtstack.a(rf.o)
 .bss           0x0000000000000000        0x0 ../../libs/ble/libbtstack.a(rf.o)
 .com_text.bb.isr.lv
                0x0000000000000000       0x3e ../../libs/ble/libbtstack.a(rf.o)
 .com_text.bb.isr.dbm
                0x0000000000000000       0x12 ../../libs/ble/libbtstack.a(rf.o)
 .com_sleep.bb  0x0000000000000000       0xae ../../libs/ble/libbtstack.a(rf.o)
 .btmem.rf.dc   0x0000000000000000       0x48 ../../libs/ble/libbtstack.a(rf.o)
 .com_rodata.bb.tbl
                0x0000000000000000        0x8 ../../libs/ble/libbtstack.a(rf.o)
 .sbss          0x0000000000000000        0x1 ../../libs/ble/libbtstack.a(rf.o)
 .data          0x0000000000000000        0x0 ../../libs/ble/libbtstack.a(hct_proc.o)
 .bss           0x0000000000000000        0x0 ../../libs/ble/libbtstack.a(hct_proc.o)
 .data          0x0000000000000000        0x0 ../../libs/ble/libbtstack.a(hct.o)
 .bss           0x0000000000000000        0x0 ../../libs/ble/libbtstack.a(hct.o)
 .data          0x0000000000000000        0x0 ../../libs/ble/libbtstack.a(mgr_hci.o)
 .bss           0x0000000000000000        0x0 ../../libs/ble/libbtstack.a(mgr_hci.o)
 .data          0x0000000000000000        0x0 ../../libs/ble/libbtstack.a(mgr.o)
 .bss           0x0000000000000000        0x0 ../../libs/ble/libbtstack.a(mgr.o)
 .data          0x0000000000000000        0x0 ../../libs/ble/libbtstack.a(ll_adv.o)
 .bss           0x0000000000000000        0x0 ../../libs/ble/libbtstack.a(ll_adv.o)
 .data          0x0000000000000000        0x0 ../../libs/ble/libbtstack.a(ll_con_upd.o)
 .bss           0x0000000000000000        0x0 ../../libs/ble/libbtstack.a(ll_con_upd.o)
 .data          0x0000000000000000        0x0 ../../libs/ble/libbtstack.a(ll_cntl.o)
 .bss           0x0000000000000000        0x0 ../../libs/ble/libbtstack.a(ll_cntl.o)
 .text          0x0000000000000000        0x0 ../../libs/ble/libbtstack.a(ll_clk_acc.o)
 .data          0x0000000000000000        0x0 ../../libs/ble/libbtstack.a(ll_clk_acc.o)
 .bss           0x0000000000000000        0x0 ../../libs/ble/libbtstack.a(ll_clk_acc.o)
 .data          0x0000000000000000        0x0 ../../libs/ble/libbtstack.a(ll_chmap_upd.o)
 .bss           0x0000000000000000        0x0 ../../libs/ble/libbtstack.a(ll_chmap_upd.o)
 .text          0x0000000000000000        0x0 ../../libs/ble/libbtstack.a(ll.o)
 .data          0x0000000000000000        0x0 ../../libs/ble/libbtstack.a(ll.o)
 .bss           0x0000000000000000        0x0 ../../libs/ble/libbtstack.a(ll.o)
 .data          0x0000000000000000        0x0 ../../libs/ble/libbtstack.a(ble_hal.o)
 .bss           0x0000000000000000        0x0 ../../libs/ble/libbtstack.a(ble_hal.o)
 .data          0x0000000000000000        0x0 ../../libs/ble/libbtstack.a(ble_con.o)
 .bss           0x0000000000000000        0x0 ../../libs/ble/libbtstack.a(ble_con.o)
 .com_rodata.bb.tbl
                0x0000000000000000       0x10 ../../libs/ble/libbtstack.a(ble_con.o)
 .data          0x0000000000000000        0x0 ../../libs/ble/libbtstack.a(ble_adv.o)
 .bss           0x0000000000000000        0x0 ../../libs/ble/libbtstack.a(ble_adv.o)
 .data          0x0000000000000000        0x0 ../../libs/ble/libbtstack.a(ble_buf.o)
 .text          0x0000000000000000       0x3e ../../libs/ble/libbtstack.a(bb_utils.o)
 .data          0x0000000000000000        0x0 ../../libs/ble/libbtstack.a(bb_utils.o)
 .bss           0x0000000000000000        0x0 ../../libs/ble/libbtstack.a(bb_utils.o)
 .com_rodata.bb.tbl.r2m
                0x0000000000000000        0x4 ../../libs/ble/libbtstack.a(bb_utils.o)
 .com_rodata.bb.tbl.rate.dur
                0x0000000000000000        0x5 ../../libs/ble/libbtstack.a(bb_utils.o)
 .srodata       0x0000000000000000        0x5 ../../libs/ble/libbtstack.a(bb_utils.o)
 .data          0x0000000000000000        0x0 ../../libs/ble/libbtstack.a(bb_int.o)
 .bss           0x0000000000000000        0x0 ../../libs/ble/libbtstack.a(bb_int.o)
 .com_text.bb.hs_get
                0x0000000000000000       0x22 ../../libs/ble/libbtstack.a(bb_int.o)
 .com_sleep.bb  0x0000000000000000      0x1d2 ../../libs/ble/libbtstack.a(bb_int.o)
 .data          0x0000000000000000        0x0 ../../libs/ble/libbtstack.a(bb.o)
 .bss           0x0000000000000000        0x0 ../../libs/ble/libbtstack.a(bb.o)
 .text          0x0000000000000000        0x0 ../../libs/ble/libbtstack.a(periph.o)
 .data          0x0000000000000000        0x0 ../../libs/ble/libbtstack.a(periph.o)
 .bss           0x0000000000000000        0x0 ../../libs/ble/libbtstack.a(periph.o)
 .text.huart    0x0000000000000000        0x4 ../../libs/ble/libbtstack.a(periph.o)
 .com_text.huart
                0x0000000000000000       0x10 ../../libs/ble/libbtstack.a(periph.o)
 .comment       0x0000000000000000       0x13 ../../libs/ble/libbtstack.a(periph.o)
 .riscv.attributes
                0x0000000000000000       0x32 ../../libs/ble/libbtstack.a(periph.o)
 .data          0x0000000000000000        0x0 ../../libs/ble/libbtstack.a(extern_ble.o)
 .bss           0x0000000000000000        0x0 ../../libs/ble/libbtstack.a(extern_ble.o)
 .sbss          0x0000000000000000        0x1 ../../libs/ble/libbtstack.a(extern_ble.o)
 .data          0x0000000000000000        0x0 ../../libs/ble/libbtstack.a(l2cap.o)
 .bss           0x0000000000000000        0x0 ../../libs/ble/libbtstack.a(l2cap.o)
 .text.stack.l2cap.connectionless
                0x0000000000000000       0x58 ../../libs/ble/libbtstack.a(l2cap.o)
 .text.l2cap.mtu_max
                0x0000000000000000        0x6 ../../libs/ble/libbtstack.a(l2cap.o)
 .text.l2cap.mtu_set
                0x0000000000000000       0x18 ../../libs/ble/libbtstack.a(l2cap.o)
 .text          0x0000000000000000       0x18 ../../libs/ble/libbtstack.a(hci_dump.o)
 .data          0x0000000000000000        0xc ../../libs/ble/libbtstack.a(hci_dump.o)
 .bss           0x0000000000000000        0x0 ../../libs/ble/libbtstack.a(hci_dump.o)
 .rodata.str1.4
                0x0000000000000000       0x12 ../../libs/ble/libbtstack.a(hci_dump.o)
 .text.stack.util
                0x0000000000000000       0x82 ../../libs/ble/libbtstack.a(hci_dump.o)
 .text          0x0000000000000000        0x0 ../../libs/ble/libbtstack.a(hci_cmd.o)
 .data          0x0000000000000000        0x0 ../../libs/ble/libbtstack.a(hci_cmd.o)
 .bss           0x0000000000000000        0x0 ../../libs/ble/libbtstack.a(hci_cmd.o)
 .rodata.stack.hci_send.ch
                0x0000000000000000        0x8 ../../libs/ble/libbtstack.a(hci_cmd.o)
 .rodata.stack.hci_send.chm
                0x0000000000000000        0x8 ../../libs/ble/libbtstack.a(hci_cmd.o)
 .rodata.stack.hci_send.featrue
                0x0000000000000000        0x8 ../../libs/ble/libbtstack.a(hci_cmd.o)
 .rodata.stack.hci_send.read_sugg_len
                0x0000000000000000        0x8 ../../libs/ble/libbtstack.a(hci_cmd.o)
 .rodata.stack.hci_send.rx_test
                0x0000000000000000        0x8 ../../libs/ble/libbtstack.a(hci_cmd.o)
 .rodata.stack.hci_send.set_len
                0x0000000000000000        0x8 ../../libs/ble/libbtstack.a(hci_cmd.o)
 .rodata.stack.hci_send.sup_sta
                0x0000000000000000        0x8 ../../libs/ble/libbtstack.a(hci_cmd.o)
 .rodata.stack.hci_send.test_end
                0x0000000000000000        0x8 ../../libs/ble/libbtstack.a(hci_cmd.o)
 .rodata.stack.hci_send.tx_test
                0x0000000000000000        0x8 ../../libs/ble/libbtstack.a(hci_cmd.o)
 .srodata       0x0000000000000000        0x8 ../../libs/ble/libbtstack.a(hci_cmd.o)
 .data          0x0000000000000000        0x0 ../../libs/ble/libbtstack.a(btstack_run_loop.o)
 .bss           0x0000000000000000        0x0 ../../libs/ble/libbtstack.a(btstack_run_loop.o)
 .com_text.stack.api
                0x0000000000000000        0xc ../../libs/ble/libbtstack.a(btstack_run_loop.o)
 .text          0x0000000000000000       0x40 ../../libs/ble/libbtstack.a(btstack_memory.o)
 .data          0x0000000000000000        0x0 ../../libs/ble/libbtstack.a(btstack_memory.o)
 .bss           0x0000000000000000       0x6c ../../libs/ble/libbtstack.a(btstack_memory.o)
 .text.stack.memory
                0x0000000000000000       0x12 ../../libs/ble/libbtstack.a(btstack_memory.o)
 .text.stack.setup
                0x0000000000000000        0x2 ../../libs/ble/libbtstack.a(btstack_memory.o)
 .sbss          0x0000000000000000        0x4 ../../libs/ble/libbtstack.a(btstack_memory.o)
 .comment       0x0000000000000000       0x13 ../../libs/ble/libbtstack.a(btstack_memory.o)
 .riscv.attributes
                0x0000000000000000       0x32 ../../libs/ble/libbtstack.a(btstack_memory.o)
 .data          0x0000000000000000        0x0 ../../libs/ble/libbtstack.a(btstack_main.o)
 .bss           0x0000000000000000        0x0 ../../libs/ble/libbtstack.a(btstack_main.o)
 .data          0x0000000000000000        0x0 ../../libs/ble/libbtstack.a(nanos.o)
 .bss           0x0000000000000000        0x0 ../../libs/ble/libbtstack.a(nanos.o)
 .com_text.ret.bb
                0x0000000000000000        0x2 ../../libs/ble/libbtstack.a(nanos.o)
 .data          0x0000000000000000        0x0 ../../libs/ble/libbtstack.a(bb_sche.o)
 .com_sleep.bb  0x0000000000000000        0xa ../../libs/ble/libbtstack.a(bb_sche.o)
 .data          0x0000000000000000        0x0 ../../libs/ble/libbtstack.a(patch.o)
 .bss           0x0000000000000000        0x0 ../../libs/ble/libbtstack.a(patch.o)
 .text          0x0000000000000000        0x0 ../../libs/ble/libbtstack.a(bb_dbg.o)
 .data          0x0000000000000000        0x0 ../../libs/ble/libbtstack.a(bb_dbg.o)
 .bss           0x0000000000000000        0x0 ../../libs/ble/libbtstack.a(bb_dbg.o)
 .com_text.spi_init
                0x0000000000000000       0x60 ../../libs/ble/libbtstack.a(bb_dbg.o)
 .com_text.bb.putc
                0x0000000000000000       0x60 ../../libs/ble/libbtstack.a(bb_dbg.o)
 .text          0x0000000000000000        0x0 ../../libs/ble/libbtstack.a(bb_clk.o)
 .data          0x0000000000000000        0x0 ../../libs/ble/libbtstack.a(bb_clk.o)
 .bss           0x0000000000000000        0x0 ../../libs/ble/libbtstack.a(bb_clk.o)
 .text          0x0000000000000000        0x0 ../../libs/ble/libbtstack.a(aes.o)
 .data          0x0000000000000000        0x0 ../../libs/ble/libbtstack.a(aes.o)
 .com_text.bb.isr
                0x0000000000000000       0x28 ../../libs/ble/libbtstack.a(aes.o)
 .text.bb.aes.ecpy
                0x0000000000000000       0xe8 ../../libs/ble/libbtstack.a(aes.o)
 .data          0x0000000000000000        0x0 ../../libs/ble/libbtstack.a(extern.o)
 .bss           0x0000000000000000        0x0 ../../libs/ble/libbtstack.a(extern.o)
 .text.bsp.param
                0x0000000000000000        0x2 ../../libs/ble/libbtstack.a(extern.o)
 .com_sleep.sleep
                0x0000000000000000        0x2 ../../libs/ble/libbtstack.a(extern.o)
 .com_sleep.bb  0x0000000000000000        0x8 ../../libs/ble/libbtstack.a(extern.o)
 .com_text.ble.phy
                0x0000000000000000        0x4 ../../libs/ble/libbtstack.a(extern.o)
 .data          0x0000000000000000        0x0 ../../libs/ble/libbtstack.a(vs.o)
 .bss           0x0000000000000000        0x0 ../../libs/ble/libbtstack.a(vs.o)
 .bss           0x0000000000000000        0x0 ../../libs/ble/libbtstack.a(rf_mate.o)
 .text.rf.vddvco.set
                0x0000000000000000       0x18 ../../libs/ble/libbtstack.a(rf_mate.o)
 .text.rf.vddvco.get
                0x0000000000000000        0xa ../../libs/ble/libbtstack.a(rf_mate.o)
 .text.rf.pll.set
                0x0000000000000000       0x12 ../../libs/ble/libbtstack.a(rf_mate.o)
 .text.rf.tx_pwr.set
                0x0000000000000000      0x10a ../../libs/ble/libbtstack.a(rf_mate.o)
 .data          0x0000000000000000        0x0 ../../libs/ble/libbtstack.a(ble_hook.o)
 .bss           0x0000000000000000        0x0 ../../libs/ble/libbtstack.a(ble_hook.o)
 .data          0x0000000000000000        0x0 ../../libs/ble/libbtstack.a(adv_hook.o)
 .bss           0x0000000000000000        0x0 ../../libs/ble/libbtstack.a(adv_hook.o)
 .text          0x0000000000000000        0x0 ../../libs/ble/libbtstack.a(hct_tl.o)
 .data          0x0000000000000000        0x0 ../../libs/ble/libbtstack.a(hct_tl.o)
 .bss           0x0000000000000000        0x0 ../../libs/ble/libbtstack.a(hct_tl.o)
 .com_text.bb.sleep
                0x0000000000000000        0x4 ../../libs/ble/libbtstack.a(hct_tl.o)
 .comment       0x0000000000000000       0x13 ../../libs/ble/libbtstack.a(hct_tl.o)
 .riscv.attributes
                0x0000000000000000       0x32 ../../libs/ble/libbtstack.a(hct_tl.o)
 .data          0x0000000000000000        0x0 ../../libs/ble/libbtstack.a(hct_msg.o)
 .bss           0x0000000000000000        0x0 ../../libs/ble/libbtstack.a(hct_msg.o)
 .data          0x0000000000000000        0x0 ../../libs/ble/libbtstack.a(mgr_test.o)
 .bss           0x0000000000000000        0x0 ../../libs/ble/libbtstack.a(mgr_test.o)
 .data          0x0000000000000000        0x0 ../../libs/ble/libbtstack.a(mgr_proc.o)
 .bss           0x0000000000000000        0x0 ../../libs/ble/libbtstack.a(mgr_proc.o)
 .data          0x0000000000000000        0x0 ../../libs/ble/libbtstack.a(ll_version.o)
 .bss           0x0000000000000000        0x0 ../../libs/ble/libbtstack.a(ll_version.o)
 .data          0x0000000000000000        0x0 ../../libs/ble/libbtstack.a(ll_tbox_prod_test.o)
 .bss           0x0000000000000000        0x0 ../../libs/ble/libbtstack.a(ll_tbox_prod_test.o)
 .data          0x0000000000000000        0x0 ../../libs/ble/libbtstack.a(ll_tbox_freq_cal.o)
 .data          0x0000000000000000        0x0 ../../libs/ble/libbtstack.a(ll_tbox_feature.o)
 .bss           0x0000000000000000        0x0 ../../libs/ble/libbtstack.a(ll_tbox_feature.o)
 .data          0x0000000000000000        0x0 ../../libs/ble/libbtstack.a(ll_proc.o)
 .bss           0x0000000000000000        0x0 ../../libs/ble/libbtstack.a(ll_proc.o)
 .data          0x0000000000000000        0x0 ../../libs/ble/libbtstack.a(ll_phy_upd.o)
 .bss           0x0000000000000000        0x0 ../../libs/ble/libbtstack.a(ll_phy_upd.o)
 .data          0x0000000000000000        0x0 ../../libs/ble/libbtstack.a(ll_length.o)
 .bss           0x0000000000000000        0x0 ../../libs/ble/libbtstack.a(ll_length.o)
 .data          0x0000000000000000        0x0 ../../libs/ble/libbtstack.a(ll_feature.o)
 .bss           0x0000000000000000        0x0 ../../libs/ble/libbtstack.a(ll_feature.o)
 .data          0x0000000000000000        0x0 ../../libs/ble/libbtstack.a(ll_encrypt.o)
 .bss           0x0000000000000000        0x0 ../../libs/ble/libbtstack.a(ll_encrypt.o)
 .data          0x0000000000000000        0x0 ../../libs/ble/libbtstack.a(ll_disconnect.o)
 .bss           0x0000000000000000        0x0 ../../libs/ble/libbtstack.a(ll_disconnect.o)
 .data          0x0000000000000000        0x0 ../../libs/ble/libbtstack.a(ble_test.o)
 .bss           0x0000000000000000        0x0 ../../libs/ble/libbtstack.a(ble_test.o)
 .data          0x0000000000000000        0x0 ../../libs/ble/libbtstack.a(ble.o)
 .bss           0x0000000000000000        0x0 ../../libs/ble/libbtstack.a(ble.o)
 .text          0x0000000000000000        0x0 ../../libs/ble/libbtstack.a(bb_sleep.o)
 .data          0x0000000000000000        0x0 ../../libs/ble/libbtstack.a(bb_sleep.o)
 .bss           0x0000000000000000        0x0 ../../libs/ble/libbtstack.a(bb_sleep.o)
 .com_sleep.bb  0x0000000000000000       0xa2 ../../libs/ble/libbtstack.a(bb_sleep.o)
 .comment       0x0000000000000000       0x13 ../../libs/ble/libbtstack.a(bb_sleep.o)
 .riscv.attributes
                0x0000000000000000       0x32 ../../libs/ble/libbtstack.a(bb_sleep.o)
 .text          0x0000000000000000        0x0 ../../libs/ble/libbtstack.a(bb_alarm.o)
 .data          0x0000000000000000        0x0 ../../libs/ble/libbtstack.a(bb_alarm.o)
 .bss           0x0000000000000000        0x0 ../../libs/ble/libbtstack.a(bb_alarm.o)
 .com_text.bb.isr.nest
                0x0000000000000000        0xa ../../libs/ble/libbtstack.a(bb_alarm.o)
 .com_text.bb.timer.check
                0x0000000000000000       0x20 ../../libs/ble/libbtstack.a(bb_alarm.o)
 .com_text.bb.timer.push
                0x0000000000000000       0x78 ../../libs/ble/libbtstack.a(bb_alarm.o)
 .text          0x0000000000000000        0x0 ../../libs/ble/libbtstack.a(l2cap_signaling.o)
 .data          0x0000000000000000        0x0 ../../libs/ble/libbtstack.a(l2cap_signaling.o)
 .bss           0x0000000000000000        0x0 ../../libs/ble/libbtstack.a(l2cap_signaling.o)
 .text          0x0000000000000000        0x0 ../../libs/ble/libbtstack.a(btstack_memory_pool.o)
 .data          0x0000000000000000        0x0 ../../libs/ble/libbtstack.a(btstack_memory_pool.o)
 .bss           0x0000000000000000        0x0 ../../libs/ble/libbtstack.a(btstack_memory_pool.o)
 .text.stack.memory
                0x0000000000000000       0x54 ../../libs/ble/libbtstack.a(btstack_memory_pool.o)
 .comment       0x0000000000000000       0x13 ../../libs/ble/libbtstack.a(btstack_memory_pool.o)
 .riscv.attributes
                0x0000000000000000       0x32 ../../libs/ble/libbtstack.a(btstack_memory_pool.o)
 .text          0x0000000000000000        0x0 ../../libs/ble/libbtstack.a(patch_asm.o)
 .data          0x0000000000000000        0x0 ../../libs/ble/libbtstack.a(patch_asm.o)
 .bss           0x0000000000000000        0x0 ../../libs/ble/libbtstack.a(patch_asm.o)
 .data          0x0000000000000000        0x0 ../../libs/ble/libbtstack.a(vs_proc.o)
 .bss           0x0000000000000000        0x0 ../../libs/ble/libbtstack.a(vs_proc.o)
 .text          0x0000000000000000        0x0 ../../libs/ble/libbtstack.a(vs_fcc.o)
 .data          0x0000000000000000        0x0 ../../libs/ble/libbtstack.a(vs_fcc.o)
 .bss           0x0000000000000000        0x0 ../../libs/ble/libbtstack.a(vs_fcc.o)
 .data          0x0000000000000000        0x0 ../../libs/ble/libbtstack.a(ble_sync.o)
 .bss           0x0000000000000000        0x0 ../../libs/ble/libbtstack.a(ble_sync.o)
 .data          0x0000000000000000        0x0 ../../libs/ble/libbtstack.a(ble_scan.o)
 .bss           0x0000000000000000        0x0 ../../libs/ble/libbtstack.a(ble_scan.o)
 .data          0x0000000000000000        0x0 ../../libs/ble/libbtstack.a(ble_init.o)
 .bss           0x0000000000000000        0x0 ../../libs/ble/libbtstack.a(ble_init.o)

Memory Configuration

Name             Origin             Length             Attributes
init             0x0000000010000000 0x0000000000000200
flash            0x0000000010000200 0x000000000003e000 xr
stack            0x0000000000010800 0x0000000000000400
sram             0x0000000000010c00 0x0000000000005400
pdn_comm         0x0000000000010c00 0x0000000000000400
*default*        0x0000000000000000 0xffffffffffffffff

Linker script and memory map

LOAD server_output/obj/driver/driver_clk.o
LOAD server_output/obj/driver/driver_gpio.o
LOAD server_output/obj/driver/driver_hsuart.o
LOAD server_output/obj/driver/driver_keyscan.o
LOAD server_output/obj/driver/driver_ledc.o
LOAD server_output/obj/driver/driver_lowpwr.o
LOAD server_output/obj/driver/driver_pwm.o
LOAD server_output/obj/driver/driver_rtc.o
LOAD server_output/obj/driver/driver_saradc.o
LOAD server_output/obj/driver/driver_spi.o
LOAD server_output/obj/driver/driver_tmr.o
LOAD server_output/obj/driver/driver_uart.o
LOAD server_output/obj/driver/driver_wdt.o
LOAD server_output/obj/app/func.o
LOAD server_output/obj/app/func_bt.o
LOAD server_output/obj/app/func_idle.o
LOAD server_output/obj/app/func_iodm.o
LOAD server_output/obj/app/func_le_bqb_rf.o
LOAD server_output/obj/app/func_le_fcc.o
LOAD server_output/obj/app/func_lowpwr.o
LOAD server_output/obj/app/func_tbox.o
LOAD server_output/obj/ble/ble_adv.o
LOAD server_output/obj/ble/ble_alarm.o
LOAD server_output/obj/ble/ble_client.o
LOAD server_output/obj/ble/ble_fota_service.o
LOAD server_output/obj/ble/ble_init.o
LOAD server_output/obj/ble/ble_proc.o
LOAD server_output/obj/ble/ble_profile.o
LOAD server_output/obj/ble/ble_service.o
LOAD server_output/obj/ble/ble_user_service.o
LOAD server_output/obj/bsp/bsp_huart.o
LOAD server_output/obj/bsp/bsp_huart_iodm.o
LOAD server_output/obj/bsp/bsp_io_key.o
LOAD server_output/obj/bsp/bsp_key.o
LOAD server_output/obj/bsp/bsp_param.o
LOAD server_output/obj/bsp/bsp_saradc.o
LOAD server_output/obj/bsp/bsp_saradc_key.o
LOAD server_output/obj/bsp/bsp_saradc_tsen.o
LOAD server_output/obj/bsp/bsp_saradc_vbat.o
LOAD server_output/obj/bsp/bsp_sys.o
LOAD server_output/obj/bsp/bsp_uart_debug.o
LOAD server_output/obj/bsp/bsp_uart_transfer.o
LOAD server_output/obj/prod_test/prod_test.o
LOAD server_output/obj/prod_test/iodm/prod_test_iodm.o
LOAD server_output/obj/prod_test/tbox/prod_test_tbox.o
LOAD server_output/obj/prod_test/tbox/tbox_key.o
LOAD server_output/obj/main.o
LOAD server_output/obj/strong_ble.o
LOAD server_output/obj/strong_symbol.o
                0x000000000003e000                __max_flash_size = 0x3e000
                0x0000000010000000                __base = 0x10000000
                0x0000000000010600                __cache_stack_vma = 0x10600
                0x0000000000000200                __cache_stack_size = 0x200
                0x0000000000010800                __stack_vma = 0x10800
                0x0000000000000400                __stack_ram_size = 0x400
                0x0000000000010c00                __sram_vma = 0x10c00
                0x0000000000005400                __sram_ram_size = 0x5400
                0x0000000000013700                __comm_vma = __comm_start
                0x0000000000000400                __pdn_comm_ram_size = 0x400
                0x0000000000010c00                __pdn_comm_vma = __sram_vma

.init           0x0000000010000000       0x4e
 *(.reset)
 .reset         0x0000000010000000       0x4e ../../libs/cpu/libplatform.a(reset.o)
                0x0000000010000000                _start

.bss            0x0000000000010c00     0x2b00
                0x0000000000010c00                __bss_start = .
 *(.btmem.bthw)
 .btmem.bthw    0x0000000000010c00      0x6d4 ../../libs/ble/libbtstack.a(bb.o)
                0x0000000000010c00                bthw_mem
 *(.btmem*)
 .btmem.cache.stack.hci
                0x00000000000112d4      0x10b ../../libs/ble/libbtstack.a(hci.o)
 *fill*         0x00000000000113df        0x1 
 .btmem.stack.hci_buf
                0x00000000000113e0      0x1f4 ../../libs/ble/libbtstack.a(hci.o)
 .btmem.stack.util
                0x00000000000115d4       0x12 ../../libs/ble/libbtstack.a(btstack_util.o)
 *fill*         0x00000000000115e6        0x2 
 .btmem.hci.transport.h3
                0x00000000000115e8        0x4 ../../libs/ble/libbtstack.a(hci_transport_h3_controller.o)
                0x00000000000115e8                p_hci_transport
 .btmem.hct.env
                0x00000000000115ec       0x40 ../../libs/ble/libbtstack.a(hct_proc.o)
 .btmem.bb.hci  0x000000000001162c        0x2 ../../libs/ble/libbtstack.a(hct.o)
                0x000000000001162c                hci_env
 *fill*         0x000000000001162e        0x2 
 .btmem.ble.lm  0x0000000000011630       0xc4 ../../libs/ble/libbtstack.a(mgr.o)
                0x0000000000011630                mgr_env
 .btmem.ble.lc  0x00000000000116f4        0x8 ../../libs/ble/libbtstack.a(ll.o)
                0x00000000000116f4                ll_env
 .btmem.ble.hal
                0x00000000000116fc      0x124 ../../libs/ble/libbtstack.a(ble_hal.o)
                0x00000000000116fc                ble_env
                0x0000000000011818                ble_exp_sync_pos_tab
 .btmem.ble.con
                0x0000000000011820        0x8 ../../libs/ble/libbtstack.a(ble_con.o)
                0x0000000000011820                ble_con_env
 .btmem.ble.adv
                0x0000000000011828        0x8 ../../libs/ble/libbtstack.a(ble_adv.o)
 .btmem.ble.buf
                0x0000000000011830       0x30 ../../libs/ble/libbtstack.a(ble_buf.o)
 .btmem.bb.env  0x0000000000011860       0x60 ../../libs/ble/libbtstack.a(bb_int.o)
                0x0000000000011860                bb_env
 .btmem.alloc.bb.buf
                0x00000000000118c0      0x540 ../../libs/ble/libbtstack.a(bb.o)
 .btmem.bb.buf  0x0000000000011e00      0x1fc ../../libs/ble/libbtstack.a(bb.o)
 .btmem.bb.rf   0x0000000000011ffc        0x3 ../../libs/ble/libbtstack.a(bb.o)
                0x0000000000011ffc                rf_api
 *fill*         0x0000000000011fff        0x1 
 .btmem.stack   0x0000000000012000       0x14 ../../libs/ble/libbtstack.a(btstack_run_loop.o)
 .btmem.bb.buf  0x0000000000012014       0x34 ../../libs/ble/libbtstack.a(nanos.o)
 .btmem.ble.test
                0x0000000000012048        0x4 ../../libs/ble/libbtstack.a(ble_test.o)
 .btmem.bb.ble.tbl
                0x000000000001204c       0x10 ../../libs/ble/libbtstack.a(ble.o)
 .btmem.bb.timer
                0x000000000001205c        0x8 ../../libs/ble/libbtstack.a(bb_alarm.o)
 .btmem.bb.vs   0x0000000000012064        0xd ../../libs/ble/libbtstack.a(vs_proc.o)
                0x0000000000012064                vs_env
 *(.osmem*)
 *fill*         0x0000000000012071        0x3 
 .osmem         0x0000000000012074      0xc48 server_output/obj/strong_symbol.o
                0x0000000000012074                mem_heap
 *(COMMON)
 COMMON         0x0000000000012cbc      0x304 server_output/obj/ble/ble_user_service.o
                0x0000000000012cbc                ble_user_cb
 COMMON         0x0000000000012fc0       0x37 server_output/obj/bsp/bsp_sys.o
                0x0000000000012fc0                tmr5ms_cnt
                0x0000000000012fc4                xcfg_cb
 *(.bss*)
 *fill*         0x0000000000012ff7        0x1 
 .bss.periph.saradc
                0x0000000000012ff8       0x24 server_output/obj/driver/driver_saradc.o
 .bss           0x000000000001301c       0x14 server_output/obj/ble/ble_user_service.o
 .bss.cm        0x0000000000013030      0x14c ../../libs/cpu/libplatform.a(cm.o)
                0x0000000000013030                cm
 .bss.sys       0x000000000001317c       0x18 ../../libs/cpu/libplatform.a(main.o)
                0x000000000001317c                sys
 .bss.irq_tbl   0x0000000000013194       0x88 ../../libs/cpu/libplatform.a(interrupt.o)
 .bss.sys.timer
                0x000000000001321c        0x8 ../../libs/cpu/libplatform.a(interrupt.o)
 .bss.btstack   0x0000000000013224        0x4 ../../libs/cpu/libplatform.a(startup.o)
                0x0000000000013224                pmq_btstack
 .bss           0x0000000000013228       0x30 ../../libs/ble/libbtstack.a(sm.o)
 .bss.hct.env   0x0000000000013258       0x18 ../../libs/ble/libbtstack.a(hct_proc.o)
 .bss           0x0000000000013270       0x68 ../../libs/ble/libbtstack.a(ble_buf.o)
 .bss.stack.l2cap
                0x00000000000132d8       0x3c ../../libs/ble/libbtstack.a(l2cap.o)
 .bss           0x0000000000013314      0x128 ../../libs/ble/libbtstack.a(bb_sche.o)
 .bss           0x000000000001343c        0xc ../../libs/ble/libbtstack.a(aes.o)
                0x000000000001343c                aes_env
 .bss           0x0000000000013448       0x28 ../../libs/ble/libbtstack.a(ll_tbox_freq_cal.o)
 .bss.bb.timer  0x0000000000013470        0x1 ../../libs/ble/libbtstack.a(bb_alarm.o)
 *(.sbss*)
 *fill*         0x0000000000013471        0x3 
 .sbss          0x0000000000013474        0x4 server_output/obj/ble/ble_init.o
                0x0000000000013474                cfg_bt_work_mode
 .sbss          0x0000000000013478        0x2 server_output/obj/ble/ble_user_service.o
 *fill*         0x000000000001347a        0x2 
 .sbss.spi_baud_r
                0x000000000001347c        0x4 ../../libs/cpu/libplatform.a(os_flash.o)
                0x000000000001347c                spi_baud_r
 .sbss.spi_baud_w
                0x0000000000013480        0x4 ../../libs/cpu/libplatform.a(os_flash.o)
                0x0000000000013480                spi_baud_w
 .sbss.pmutex_clk
                0x0000000000013484        0x4 ../../libs/cpu/libplatform.a(startup.o)
                0x0000000000013484                pmutex_clk
 .sbss.pmutex_cm
                0x0000000000013488        0x4 ../../libs/cpu/libplatform.a(startup.o)
                0x0000000000013488                pmutex_cm
 .sbss.psem_btstack
                0x000000000001348c        0x4 ../../libs/cpu/libplatform.a(startup.o)
                0x000000000001348c                psem_btstack
 .sbss.soft_timer_isr_en
                0x0000000000013490        0x4 ../../libs/cpu/libplatform.a(startup.o)
                0x0000000000013490                soft_timer_isr_en
 .sbss.fot_update_success
                0x0000000000013494        0x1 ../../libs/cpu/libplatform.a(fot_pack.o)
 *fill*         0x0000000000013495        0x3 
 .sbss.lock_cb  0x0000000000013498        0x8 ../../libs/cpu/libplatform.a(lock.o)
 .sbss.sys_trim
                0x00000000000134a0        0x8 ../../libs/cpu/libplatform.a(voltage_trim.o)
                0x00000000000134a0                sys_trim
 .sbss          0x00000000000134a8       0x11 ../../libs/ble/libbtstack.a(sm.o)
 *fill*         0x00000000000134b9        0x3 
 .sbss          0x00000000000134bc        0x4 ../../libs/ble/libbtstack.a(att_server.o)
 .sbss          0x00000000000134c0        0xc ../../libs/ble/libbtstack.a(att_dispatch.o)
 .sbss          0x00000000000134cc       0x10 ../../libs/ble/libbtstack.a(att_db.o)
 .sbss          0x00000000000134dc        0x2 ../../libs/ble/libbtstack.a(btstack_api.o)
                0x00000000000134dc                btstack_cb
 .sbss          0x00000000000134de        0x1 ../../libs/ble/libbtstack.a(ble_api.o)
 *fill*         0x00000000000134df        0x1 
 .sbss          0x00000000000134e0        0x2 ../../libs/ble/libbtstack.a(hct_proc.o)
 .sbss          0x00000000000134e2        0x1 ../../libs/ble/libbtstack.a(bb.o)
 *fill*         0x00000000000134e3        0x1 
 .sbss          0x00000000000134e4        0x2 ../../libs/ble/libbtstack.a(l2cap.o)
 *fill*         0x00000000000134e6        0x2 
 .sbss          0x00000000000134e8       0x10 ../../libs/ble/libbtstack.a(btstack_main.o)
 .sbss          0x00000000000134f8        0x8 ../../libs/ble/libbtstack.a(bb_sche.o)
                0x00000000000134f8                ss_params
 .sbss          0x0000000000013500        0x1 ../../libs/ble/libbtstack.a(mgr_proc.o)
 *fill*         0x0000000000013501        0x3 
 .sbss          0x0000000000013504        0x5 ../../libs/ble/libbtstack.a(ll_tbox_prod_test.o)
 *fill*         0x0000000000013509        0x3 
 .sbss          0x000000000001350c        0x2 ../../libs/ble/libbtstack.a(ll_proc.o)
 *(.buf*)
 *fill*         0x000000000001350e        0x2 
 .buf.func_cb   0x0000000000013510        0x2 server_output/obj/app/func.o
                0x0000000000013510                func_cb
 *fill*         0x0000000000013512        0x2 
 .buf.bsp.sys_cb
                0x0000000000013514        0x8 server_output/obj/bsp/bsp_sys.o
                0x0000000000013514                sys_cb
 *(.ble_cache*)
 .ble_cache.att
                0x000000000001351c       0x8c server_output/obj/ble/ble_init.o
                0x000000000001351c                ble_tx_pool
 .ble_cache.att
                0x00000000000135a8       0x10 ../../libs/ble/libbtstack.a(txpkt.o)
                0x00000000000135a8                txpkt_cb
 .ble_cache.sm.addr
                0x00000000000135b8        0x6 ../../libs/ble/libbtstack.a(sm.o)
 *fill*         0x00000000000135be        0x2 
 .ble_cache.sm.aes
                0x00000000000135c0        0x8 ../../libs/ble/libbtstack.a(sm.o)
 .ble_cache.sm.irk
                0x00000000000135c8       0x10 ../../libs/ble/libbtstack.a(sm.o)
 .ble_cache.sm.rand
                0x00000000000135d8        0x4 ../../libs/ble/libbtstack.a(sm.o)
 .ble_cache.sm.sta
                0x00000000000135dc        0x8 ../../libs/ble/libbtstack.a(sm.o)
 *(.ble_buf*)
 .ble_buf.var   0x00000000000135e4        0x2 server_output/obj/ble/ble_init.o
                0x00000000000135e4                ble_cb
 *fill*         0x00000000000135e6        0x2 
 .ble_buf.att   0x00000000000135e8       0x28 ../../libs/ble/libbtstack.a(gatt_client.o)
 .ble_buf.att   0x0000000000013610       0x10 ../../libs/ble/libbtstack.a(att_server.o)
 *(.fot_data.*)
 *(.tbox.*)
 *(.notch_iir*)
 *(.prod_test*)
 *(.fcc.huart_buf)
 *(.hci.h3*)
                0x0000000000013700                . = ALIGN (0x100)
 *fill*         0x0000000000013620       0xe0 
                0x0000000000013700                __bss_end = .
                0x0000000000002b00                __bss_size = (__bss_end - __bss_start)

.comm           0x0000000000013700      0xd00 load address 0x0000000010000200
                0x0000000000013700                __comm_start = .
 *(.vector)
 .vector        0x0000000000013700       0xc8 ../../libs/cpu/libplatform.a(reset.o)
                0x00000000000137a0                _exception_isr
                0x00000000000137a2                nop_isr
 *(.com_text*)
 .com_text.ble.phy
                0x00000000000137c8        0x4 server_output/obj/strong_ble.o
                0x00000000000137c8                ble_phy_2M_enable
 .com_text.spiflash
                0x00000000000137cc       0x34 server_output/obj/strong_symbol.o
                0x00000000000137cc                os_spiflash_addr_check
 .com_text.spiflash
                0x0000000000013800       0x90 ../../libs/cpu/libplatform.a(os_flash.o)
                0x0000000000013804                os_spiflash_addr_check_2
                0x000000000001383a                os_spiflash_program
                0x000000000001386c                os_spiflash_erase
 .com_text.delay
                0x0000000000013890       0x54 ../../libs/cpu/libplatform.a(main.o)
                0x0000000000013890                delay_5ms
                0x00000000000138aa                delay_ms
                0x00000000000138c2                delay_us
                0x00000000000138da                delay
 .com_text.irq  0x00000000000138e4       0x70 ../../libs/cpu/libplatform.a(interrupt.o)
                0x00000000000138e4                tick0_isr
                0x000000000001393a                tick_get
                0x0000000000013942                tick_check_expire
 .com_text.trim.lvd_set
                0x0000000000013954       0x3e ../../libs/cpu/libplatform.a(pmu.o)
                0x0000000000013954                pmu_set_lvd
                0x0000000000013980                pmu_set_vbg
 .com_text.patch
                0x0000000000013992        0xa ../../libs/cpu/libplatform.a(reset.o)
                0x0000000000013992                spiflash_erase_patch
 .com_text.spiflash.erase
                0x000000000001399c       0x34 ../../libs/cpu/libplatform.a(spiflash.o)
                0x000000000001399c                spiflash_erase_patch_do
 .com_text.exception
                0x00000000000139d0        0xa ../../libs/cpu/libplatform.a(debug.o)
                0x00000000000139d0                exception_isr
 .com_text.exception.hook
                0x00000000000139da        0x4 ../../libs/cpu/libplatform.a(debug.o)
                0x00000000000139da                sys_error_hook
 .com_text.sys  0x00000000000139de        0x2 ../../libs/cpu/libplatform.a(s_sys.o)
                0x00000000000139de                dummy_func
 .com_text.timer
                0x00000000000139e0        0x4 ../../libs/cpu/libplatform.a(weak_symbol.o)
                0x00000000000139e2                usr_tmr1ms_isr_callback
 .com_text.stack.run_loop
                0x00000000000139e4        0x4 ../../libs/cpu/libplatform.a(weak_symbol.o)
                0x00000000000139e6                thread_nanos_task_execute
 .com_text.stack.api
                0x00000000000139e8       0x24 ../../libs/cpu/libplatform.a(bt.o)
                0x00000000000139e8                ble_send_msg_do
 .com_text.stack.thread
                0x0000000000013a0c       0x32 ../../libs/cpu/libplatform.a(bt.o)
                0x0000000000013a0c                thread_btstack_pend
                0x0000000000013a2e                thread_btstack_post
 .com_text.stack.run_loop
                0x0000000000013a3e       0x3a ../../libs/cpu/libplatform.a(bt.o)
                0x0000000000013a3e                thread_btstack_entry
 .com_text.stack.hci.conn
                0x0000000000013a78        0x8 ../../libs/ble/libbtstack.a(hci.o)
                0x0000000000013a78                hci_get_connections
 .com_text.stack.linked_list
                0x0000000000013a80       0x10 ../../libs/ble/libbtstack.a(hci.o)
                0x0000000000013a80                hci_connections_get_iterator
 .com_text.stack.hci
                0x0000000000013a90       0x3a ../../libs/ble/libbtstack.a(hci.o)
                0x0000000000013a90                hci_connection_for_handle
                0x0000000000013ab2                hci_att_connection_for_handle
                0x0000000000013ac2                hci_get_outgoing_packet_buffer
 .com_text.att.event_handler
                0x0000000000013aca       0x26 ../../libs/ble/libbtstack.a(att_server.o)
 .com_text.hci  0x0000000000013af0        0x4 ../../libs/ble/libbtstack.a(hci_transport_h3_controller.o)
                0x0000000000013af0                hci_is_sleep
 .com_text.stack.ticks
                0x0000000000013af4        0xa ../../libs/ble/libbtstack.a(btstack_hal.o)
                0x0000000000013af6                sys_tick_handler
 .com_text.isr  0x0000000000013afe       0x24 ../../libs/ble/libbtstack.a(btstack_hal.o)
                0x0000000000013afe                bt_timer_isr
 .com_text.stack.api
                0x0000000000013b22       0x62 ../../libs/ble/libbtstack.a(btstack_api.o)
                0x0000000000013b22                ble_get_status
                0x0000000000013b2e                btstack_message
 .com_text.txpkt.list.push_back
                0x0000000000013b84        0xa ../../libs/ble/libbtstack.a(txpkt.o)
                0x0000000000013b84                txpkt_list_push_back
 .com_text.bb.dbg.ble
                0x0000000000013b8e        0x4 ../../libs/ble/libbtstack.a(platform.o)
                0x0000000000013b8e                bb_ll_tx_cb
                0x0000000000013b90                bb_ll_rx_cb
 .com_text.bb.utils.dummy
                0x0000000000013b92        0x6 ../../libs/ble/libbtstack.a(platform.o)
                0x0000000000013b92                dummy_void
                0x0000000000013b94                dummy_false
 .com_text.bb.isr.rssi
                0x0000000000013b98        0xa ../../libs/ble/libbtstack.a(rf.o)
                0x0000000000013b98                rf_rssi_calc_dbm
 .com_text.bb.rf
                0x0000000000013ba2       0x26 ../../libs/ble/libbtstack.a(rf.o)
                0x0000000000013ba2                rf_hal_init
 .com_text.bb.buf
                0x0000000000013bc8       0x24 ../../libs/ble/libbtstack.a(hct_proc.o)
                0x0000000000013bc8                hct_block_is_reserved
 .com_text.ble.isr.con.end
                0x0000000000013bec       0x9a ../../libs/ble/libbtstack.a(ble_con.o)
                0x0000000000013bec                ble_con_rx_end
 .com_text.ble.isr.con.rx_desc
                0x0000000000013c86        0x2 ../../libs/ble/libbtstack.a(ble_con.o)
                0x0000000000013c86                ble_con_rx_desc
 .com_text.bb.buf
                0x0000000000013c88       0xbc ../../libs/ble/libbtstack.a(ble_buf.o)
                0x0000000000013c88                ble_buf_acl_tx_alloc
                0x0000000000013cd2                ble_buf_acl_tx_free_do
                0x0000000000013ce4                ble_buf_acl_tx_free
 .com_text.bb.patch
                0x0000000000013d44       0x24 ../../libs/ble/libbtstack.a(ble_buf.o)
                0x0000000000013d44                bb_patch1
                0x0000000000013d46                bb_patch3
 .com_text.bb.isr
                0x0000000000013d68       0x7c ../../libs/ble/libbtstack.a(bb_int.o)
                0x0000000000013d9a                bb_isr
                0x0000000000013dd8                bb_hal_isr
 .com_text.bb.run_loop
                0x0000000000013de4       0x30 ../../libs/ble/libbtstack.a(bb.o)
                0x0000000000013de4                bb_run_loop
 .com_text.stack.run_loop
                0x0000000000013e14       0x74 ../../libs/ble/libbtstack.a(btstack_run_loop.o)
                0x0000000000013e14                btstack_cmp_abs_tick
                0x0000000000013e1a                btstack_run_loop_execute_once
 .com_text.ret.stack.thread
                0x0000000000013e88        0xa ../../libs/ble/libbtstack.a(btstack_run_loop.o)
                0x0000000000013e88                btstack_run_loop_embedded_trigger
 .com_text.stack.ticks
                0x0000000000013e92       0x1e ../../libs/ble/libbtstack.a(btstack_run_loop.o)
 .com_text.bb.nanos.trigger
                0x0000000000013eb0        0x2 ../../libs/ble/libbtstack.a(btstack_run_loop.o)
                0x0000000000013eb0                thread_nanos_task_trigger
 .com_text.stack.handler
                0x0000000000013eb2       0x1e ../../libs/ble/libbtstack.a(btstack_main.o)
 .com_text.md.nanos
                0x0000000000013ed0       0x14 ../../libs/ble/libbtstack.a(nanos.o)
                0x0000000000013ed0                nanos_event_set
 .com_text.nanos.malloc
                0x0000000000013ee4        0xc ../../libs/ble/libbtstack.a(nanos.o)
                0x0000000000013ee4                nanos_sys_malloc
 .com_text.nanos.free
                0x0000000000013ef0        0xa ../../libs/ble/libbtstack.a(nanos.o)
                0x0000000000013ef0                nanos_sys_free
 .com_text.bb.frag
                0x0000000000013efa       0x18 ../../libs/ble/libbtstack.a(bb_sche.o)
 .com_text.bb.prog
                0x0000000000013f12       0x30 ../../libs/ble/libbtstack.a(bb_sche.o)
 .com_text.ble.isr.con.end
                0x0000000000013f42       0x18 ../../libs/ble/libbtstack.a(patch.o)
                0x0000000000013f42                bb_patch2_do
 .com_text.bb.isr
                0x0000000000013f5a        0xe ../../libs/ble/libbtstack.a(bb_clk.o)
                0x0000000000013f5a                bb_lpcycles_2_hus_hook
 .com_text.ble.isr
                0x0000000000013f68       0x92 ../../libs/ble/libbtstack.a(ble_hook.o)
                0x0000000000013f68                ble_isr_hook
 .com_text.ble.isr.con
                0x0000000000013ffa      0x136 ../../libs/ble/libbtstack.a(ll_tbox_freq_cal.o)
                0x0000000000013ffa                ll_tbox_freq_cal_time_record
                0x000000000001407e                ll_tbox_freq_cal
 .com_text.bb.isr
                0x0000000000014130       0x34 ../../libs/ble/libbtstack.a(ble.o)
                0x0000000000014130                ble_isr
 .com_text.bb.isr.timer
                0x0000000000014164       0x50 ../../libs/ble/libbtstack.a(bb_alarm.o)
 .com_text.bb.patch
                0x00000000000141b4       0x1a ../../libs/ble/libbtstack.a(patch_asm.o)
                0x00000000000141b4                bb_patch2
 .com_text.bb.patch.trc
                0x00000000000141ce       0x1e ../../libs/ble/libbtstack.a(patch_asm.o)
                0x00000000000141ce                ll_cntl_tx_check_fix_cb
 *(.com_rodata*)
 .com_rodata.bb.tbl
                0x00000000000141ec        0xc ../../libs/ble/libbtstack.a(hct_proc.o)
 .com_rodata.bb.tbl
                0x00000000000141f8       0x18 ../../libs/ble/libbtstack.a(ble_buf.o)
 .com_rodata.bb.tbl
                0x0000000000014210       0x10 ../../libs/ble/libbtstack.a(bb_utils.o)
                0x0000000000014210                bb_sca2ppm
 .com_rodata.bb.tbl.bits
                0x0000000000014220       0x10 ../../libs/ble/libbtstack.a(bb_utils.o)
                0x0000000000014220                one_bits
 .com_rodata.bb.tbl.i2m
                0x0000000000014230        0x4 ../../libs/ble/libbtstack.a(bb_utils.o)
                0x0000000000014230                bb_phy_value_to_mask
 .com_rodata.bb.tbl.phy.i2r
                0x0000000000014234        0x4 ../../libs/ble/libbtstack.a(bb_utils.o)
                0x0000000000014234                bb_phy_to_rate
 .com_rodata.bb.tbl.phy.m2i
                0x0000000000014238        0x5 ../../libs/ble/libbtstack.a(bb_utils.o)
                0x0000000000014238                bb_phy_mask_to_value
 *fill*         0x000000000001423d        0x3 
 .com_rodata.bb.tbl.phy.r2i
                0x0000000000014240        0x5 ../../libs/ble/libbtstack.a(bb_utils.o)
                0x0000000000014240                bb_rate_to_phy
 *fill*         0x0000000000014245        0x3 
 .com_rodata.bb.err
                0x0000000000014248        0xd ../../libs/ble/libbtstack.a(bb_int.o)
                0x0000000000014248                str_bb_err
 *fill*         0x0000000000014255        0x3 
 .com_rodata.bb.tbl
                0x0000000000014258       0x16 ../../libs/ble/libbtstack.a(bb.o)
                0x0000000000014258                bb_priority
 *fill*         0x000000000001426e        0x2 
 .com_rodata.bb.tbl
                0x0000000000014270        0xc ../../libs/ble/libbtstack.a(mgr_proc.o)
                0x0000000000014270                mgr_msg_env
 .com_rodata.bb.tbl
                0x000000000001427c        0xc ../../libs/ble/libbtstack.a(ll_proc.o)
                0x000000000001427c                ll_msg_env
 .com_rodata.bb.err
                0x0000000000014288        0xf ../../libs/ble/libbtstack.a(ble.o)
                0x0000000000014288                str_ble_err
 *fill*         0x0000000000014297        0x1 
 .com_rodata.bb.tbl
                0x0000000000014298        0xc ../../libs/ble/libbtstack.a(vs_proc.o)
                0x0000000000014298                vs_msg_env
 *debug.o(.rodata*)
 *(.com_periph.*)
 *(.data*)
 .data          0x00000000000142a4       0x28 ../../libs/ble/libbtstack.a(rf_mate.o)
                0x00000000000142b0                rf_init_cb
 *(.sdata*)
 .sdata         0x00000000000142cc        0x8 server_output/obj/app/func_bt.o
 .sdata         0x00000000000142d4        0x1 server_output/obj/strong_symbol.o
                0x00000000000142d4                cfg_spiflash_speed_up_en
 *fill*         0x00000000000142d5        0x3 
 .sdata.cpu_gprs
                0x00000000000142d8        0x4 ../../libs/cpu/libplatform.a(debug.o)
                0x00000000000142d8                cpu_gprs
 .sdata         0x00000000000142dc        0xc ../../libs/ble/libbtstack.a(btstack_hal.o)
 .sdata         0x00000000000142e8        0x1 ../../libs/ble/libbtstack.a(rf_mate.o)
 *(.notch_iir_text*)
                0x0000000000014400                . = ALIGN (0x200)
 *fill*         0x00000000000142e9      0x117 
                0x0000000000014400                __comm_end = .
                0x0000000000000d00                __comm_size = (__comm_end - __comm_start)

.pdn_comm       0x0000000000010c00      0x200 load address 0x0000000010000f00
 *(.com_pwroff*)
 .com_pwroff.mode2
                0x0000000000010c00      0x188 server_output/obj/driver/driver_lowpwr.o
                0x0000000000010c00                pwroff_mode2_final
                0x0000000000010c9a                lowpwr_pwroff_mode2_do
                0x0000000000010e00                . = ALIGN (0x200)
 *fill*         0x0000000000010d88       0x78 

.flash          0x0000000010001200    0x10600
                0x0000000010001200                __code_start_app_proc = .
 *(.text.app.proc.*)
 .text.app.proc.func
                0x0000000010001200        0x8 server_output/obj/app/func.o
                0x0000000010001200                func_process
 .text.app.proc.msg
                0x0000000010001208        0x8 server_output/obj/app/func_bt.o
                0x0000000010001208                func_bt_message
 .text.app.proc.bt
                0x0000000010001210        0xe server_output/obj/app/func_bt.o
                0x0000000010001210                func_bt_sub_process
                0x0000000010001212                func_bt_process
 .text.app.proc.ble
                0x000000001000121e        0x2 server_output/obj/ble/ble_proc.o
                0x000000001000121e                ble_app_proc
 .text.app.proc.ble
                0x0000000010001220       0x6a server_output/obj/ble/ble_user_service.o
                0x0000000010001220                ble_user_service_proc
 .text.app.proc.test
                0x000000001000128a        0x2 server_output/obj/prod_test/prod_test.o
                0x000000001000128a                prod_test_process
                0x0000000010001400                . = ALIGN (0x200)
 *fill*         0x000000001000128c      0x174 
                0x0000000010001400                __code_end_app_proc = .
                0x0000000010001400                __code_start_stack_send = .
 *(.text.stack.send.*)
 .text.stack.send.txpkt
                0x0000000010001400      0x1de ../../libs/ble/libbtstack.a(txpkt.o)
                0x0000000010001400                txpkt_send
                0x00000000100014c2                txpkt_event_send
                0x00000000100014f6                txpkt_server_send_tick
                0x0000000010001504                txpkt_client_send_tick
 .text.stack.send.hci
                0x00000000100015de       0xe6 ../../libs/ble/libbtstack.a(hci.o)
                0x0000000010001680                hci_send_acl_packet_buffer
 .text.stack.send.ntf_do
                0x00000000100016c4       0x4e ../../libs/ble/libbtstack.a(gatt_server.o)
 .text.stack.send.ntf
                0x0000000010001712       0x16 ../../libs/ble/libbtstack.a(gatt_server.o)
                0x0000000010001712                ble_send_notify_packet
                0x0000000010001724                ble_notify_for_handle
 .text.stack.send.server
                0x0000000010001728       0x8c ../../libs/ble/libbtstack.a(gatt_server.o)
                0x0000000010001728                att_event_server_txpkt_send
                0x000000001000179c                btstack_ble_server_send_req
 .text.stack.send.server
                0x00000000100017b4       0x1e ../../libs/ble/libbtstack.a(att_server.o)
                0x00000000100017b4                att_server_request_can_send_now_event
 .text.stack.send.ntf
                0x00000000100017d2       0x52 ../../libs/ble/libbtstack.a(att_server.o)
                0x00000000100017d2                att_server_notify
 .text.stack.send.dispatch_server
                0x0000000010001824        0xc ../../libs/ble/libbtstack.a(att_dispatch.o)
                0x0000000010001824                att_dispatch_server_request_can_send_now_event
 .text.stack.send.ntf
                0x0000000010001830       0x3e ../../libs/ble/libbtstack.a(att_db.o)
                0x0000000010001830                att_prepare_handle_value_notification
 .text.stack.send.kick
                0x000000001000186e       0x1a ../../libs/ble/libbtstack.a(ble_api.o)
                0x000000001000186e                ble_send_kick
 .text.stack.send.l2cap
                0x0000000010001888       0x6e ../../libs/ble/libbtstack.a(l2cap.o)
                0x0000000010001888                l2cap_request_can_send_fix_channel_now_event
                0x00000000100018ae                l2cap_send_prepared_connectionless
 .text.stack.send.acl
                0x00000000100018f6       0xe0 ../../libs/ble/libbtstack.a(ll_proc.o)
                0x00000000100018f6                hci_acl_data_func
                0x0000000010001a00                . = ALIGN (0x200)
 *fill*         0x00000000100019d6       0x2a 
                0x0000000010001a00                __code_end_stack_send = .
                0x0000000010001a00                __code_start_sleep_send = .
 *(.com_sleep*)
 .com_sleep.rf.txpwr
                0x0000000010001a00        0x8 server_output/obj/strong_ble.o
                0x0000000010001a00                bt_rf_get_tx_pwr
 .com_sleep.bb.putc
                0x0000000010001a08        0x2 ../../libs/ble/libbtstack.a(bb_dbg.o)
                0x0000000010001a08                bb_dbg_init
 .com_sleep.rfphy
                0x0000000010001a0a        0x4 ../../libs/ble/libbtstack.a(extern.o)
                0x0000000010001a0a                ble_rf_fix_poor_tx_mod_enable
 .com_sleep.rfphy
                0x0000000010001a0e      0x102 ../../libs/ble/libbtstack.a(rf_mate.o)
                0x0000000010001a8a                rfphy_txrx_init
 .com_sleep.rfphy.init
                0x0000000010001b10       0x6a ../../libs/ble/libbtstack.a(rf_mate.o)
                0x0000000010001b10                rfphy_init
 .com_sleep.rf  0x0000000010001b7a       0x36 ../../libs/ble/libbtstack.a(rf_mate.o)
                0x0000000010001b7a                modem_init
                0x0000000010001c00                . = ALIGN (0x200)
 *fill*         0x0000000010001bb0       0x50 
                0x0000000010001c00                __code_end_sleep_send = .
 *(.text*)
 .text.clk_gate0_cmd
                0x0000000010001c00       0x16 server_output/obj/driver/driver_clk.o
                0x0000000010001c00                clk_gate0_cmd
 .text.clk_uart_clk_set
                0x0000000010001c16       0x16 server_output/obj/driver/driver_clk.o
                0x0000000010001c16                clk_uart_clk_set
 .text.clk_uart_clk_get
                0x0000000010001c2c       0x32 server_output/obj/driver/driver_clk.o
                0x0000000010001c2c                clk_uart_clk_get
 .text.gpio_init
                0x0000000010001c5e      0x13a server_output/obj/driver/driver_gpio.o
                0x0000000010001c5e                gpio_init
 .text.gpio_func_mapping_config
                0x0000000010001d98       0xac server_output/obj/driver/driver_gpio.o
                0x0000000010001d98                gpio_func_mapping_config
 .text.wko_io_config
                0x0000000010001e44       0x3e server_output/obj/driver/driver_gpio.o
                0x0000000010001e44                wko_io_config
 .text.wk0_edge_capture_config
                0x0000000010001e82       0x60 server_output/obj/driver/driver_gpio.o
                0x0000000010001e82                wk0_edge_capture_config
 .text.gpio_edge_capture_config
                0x0000000010001ee2       0xd4 server_output/obj/driver/driver_gpio.o
                0x0000000010001ee2                gpio_edge_capture_config
 .text.lowpwr_get_wakeup_source
                0x0000000010001fb6       0x88 server_output/obj/driver/driver_lowpwr.o
                0x0000000010001fb6                lowpwr_get_wakeup_source
 .text.lowpwr_wakeup_disable
                0x000000001000203e       0x38 server_output/obj/driver/driver_lowpwr.o
                0x000000001000203e                lowpwr_wakeup_disable
 .text.lowpwr_wk0_wakeup_config
                0x0000000010002076       0x72 server_output/obj/driver/driver_lowpwr.o
                0x0000000010002076                lowpwr_wk0_wakeup_config
 .text.lowpwr_gpio_wakeup_config
                0x00000000100020e8       0x3c server_output/obj/driver/driver_lowpwr.o
                0x00000000100020e8                lowpwr_gpio_wakeup_config
 .text.lowpwr_wakeup_config
                0x0000000010002124       0xd8 server_output/obj/driver/driver_lowpwr.o
                0x0000000010002124                lowpwr_wakeup_config
 .text.saradc_deinit
                0x00000000100021fc       0xca server_output/obj/driver/driver_saradc.o
                0x00000000100021fc                saradc_deinit
 .text.uart_init
                0x00000000100022c6       0x46 server_output/obj/driver/driver_uart.o
                0x00000000100022c6                uart_init
 .text.uart_cmd
                0x000000001000230c       0x10 server_output/obj/driver/driver_uart.o
                0x000000001000230c                uart_cmd
 .text.uart_baud_config
                0x000000001000231c       0x36 server_output/obj/driver/driver_uart.o
                0x000000001000231c                uart_baud_config
 .text.func.msg
                0x0000000010002352        0x2 server_output/obj/app/func.o
                0x0000000010002352                func_message
 .text.func     0x0000000010002354       0x54 server_output/obj/app/func.o
                0x0000000010002354                func_enter
                0x0000000010002356                func_exit
                0x0000000010002360                func_run
 .text.func.msg
                0x00000000100023a8        0xc server_output/obj/app/func_bt.o
                0x00000000100023a8                func_bt_message_do
 .text.func.bt  0x00000000100023b4       0x64 server_output/obj/app/func_bt.o
                0x00000000100023b4                func_bt_init
                0x00000000100023b6                func_bt_enter
                0x00000000100023c8                func_bt_exit
                0x00000000100023e0                func_bt
 .text.func.idle.msg
                0x0000000010002418        0xc server_output/obj/app/func_idle.o
                0x0000000010002418                func_idle_message
 .text.func.idle
                0x0000000010002424       0x40 server_output/obj/app/func_idle.o
                0x0000000010002424                func_idle_process
                0x0000000010002428                func_idle
 .text.lowpwr_pwroff_wakeup_config
                0x0000000010002464       0x1a server_output/obj/app/func_lowpwr.o
                0x0000000010002464                lowpwr_pwroff_wakeup_config
 .text.lowpwr.pwroff
                0x000000001000247e       0x44 server_output/obj/app/func_lowpwr.o
                0x000000001000247e                func_pwroff
 .text.ble_get_scan_data
                0x00000000100024c2       0x58 server_output/obj/ble/ble_adv.o
                0x00000000100024c2                ble_get_scan_data
 .text.ble_get_adv_data
                0x000000001000251a       0x90 server_output/obj/ble/ble_adv.o
                0x000000001000251a                ble_get_adv_data
 .text.ble_adv_param_init
                0x00000000100025aa       0x52 server_output/obj/ble/ble_adv.o
                0x00000000100025aa                ble_adv_param_init
 .text.ble_set_work_mode
                0x00000000100025fc        0x8 server_output/obj/ble/ble_init.o
                0x00000000100025fc                ble_set_work_mode
 .text.ble_txpkt_init
                0x0000000010002604        0xe server_output/obj/ble/ble_init.o
                0x0000000010002604                ble_txpkt_init
 .text.ble_periph_init
                0x0000000010002612       0x1a server_output/obj/ble/ble_init.o
                0x0000000010002612                ble_periph_init
 .text.bsp_ble_init
                0x000000001000262c       0x22 server_output/obj/ble/ble_init.o
                0x000000001000262c                bsp_ble_init
 .text.ble_get_profile_data
                0x000000001000264e        0xa server_output/obj/ble/ble_profile.o
                0x000000001000264e                ble_get_profile_data
 .text.ble_service_init
                0x0000000010002658       0x16 server_output/obj/ble/ble_service.o
                0x0000000010002658                ble_service_init
 .text.ble_event_callback
                0x000000001000266e       0xd2 server_output/obj/ble/ble_user_service.o
 .text.service_read_callback
                0x0000000010002740       0x62 server_output/obj/ble/ble_user_service.o
 .text.service_write_callback
                0x00000000100027a2       0x50 server_output/obj/ble/ble_user_service.o
 .text.ble_user_service_init
                0x00000000100027f2       0x52 server_output/obj/ble/ble_user_service.o
                0x00000000100027f2                ble_user_service_init
 .text.bsp.param
                0x0000000010002844       0x18 server_output/obj/bsp/bsp_param.o
                0x0000000010002844                bsp_param_init
                0x0000000010002850                bsp_param_write
                0x0000000010002854                bsp_param_read
                0x0000000010002858                bsp_param_sync
 .text.sys_ram_info_dump
                0x000000001000285c       0x52 server_output/obj/bsp/bsp_sys.o
                0x000000001000285c                sys_ram_info_dump
 .text.bsp.sys.init
                0x00000000100028ae       0xaa server_output/obj/bsp/bsp_sys.o
                0x00000000100028ae                bsp_sys_init
 .text.bsp_uart_debug_init
                0x0000000010002958       0x86 server_output/obj/bsp/bsp_uart_debug.o
                0x0000000010002958                bsp_uart_debug_init
 .text.prod_test_init
                0x00000000100029de        0x2 server_output/obj/prod_test/prod_test.o
                0x00000000100029de                prod_test_init
 .text.startup.main
                0x00000000100029e0       0x54 server_output/obj/main.o
                0x00000000100029e0                main
 .text.hci_fcc_init
                0x0000000010002a34        0x2 server_output/obj/strong_ble.o
                0x0000000010002a34                hci_fcc_init
 .text.bt_uart_isr
                0x0000000010002a36        0x4 server_output/obj/strong_ble.o
                0x0000000010002a36                bt_uart_isr
 .text.ble_sm_server_event_do
                0x0000000010002a3a        0x2 server_output/obj/strong_ble.o
                0x0000000010002a3a                ble_sm_server_event_do
 .text.sm_send_security_request
                0x0000000010002a3c        0x2 server_output/obj/strong_ble.o
                0x0000000010002a3c                sm_send_security_request
 .text.sm_request_pairing
                0x0000000010002a3e        0x2 server_output/obj/strong_ble.o
                0x0000000010002a3e                sm_request_pairing
 .text.sm_passkey_input
                0x0000000010002a40        0x2 server_output/obj/strong_ble.o
                0x0000000010002a40                sm_passkey_input
 .text.sm_passkey_input_get
                0x0000000010002a42        0x4 server_output/obj/strong_ble.o
                0x0000000010002a42                sm_passkey_input_get
 .text.ble_get_local_bd_addr
                0x0000000010002a46       0x14 server_output/obj/strong_ble.o
                0x0000000010002a46                ble_get_local_bd_addr
 .text.bt_rf_get_param
                0x0000000010002a5a       0x16 server_output/obj/strong_ble.o
                0x0000000010002a5a                bt_rf_get_param
 .text.ble_get_link_info
                0x0000000010002a70        0x6 server_output/obj/strong_ble.o
                0x0000000010002a70                ble_get_link_info
 .text.ble_put_link_info
                0x0000000010002a76       0x10 server_output/obj/strong_ble.o
                0x0000000010002a76                ble_put_link_info
 .text.ble_mtu_exchange_enabled
                0x0000000010002a86        0x4 server_output/obj/strong_ble.o
                0x0000000010002a86                ble_mtu_exchange_enabled
 .text.ble_disconnected_restart_adv
                0x0000000010002a8a        0x4 server_output/obj/strong_ble.o
                0x0000000010002a8a                ble_disconnected_restart_adv
 .text.ble_rx_exit_sleep
                0x0000000010002a8e        0x4 server_output/obj/strong_ble.o
                0x0000000010002a8e                ble_rx_exit_sleep
 .text.ble_feature_exchange_enabled
                0x0000000010002a92        0x4 server_output/obj/strong_ble.o
                0x0000000010002a92                ble_feature_exchange_enabled
 .text.ble_length_request_enabled
                0x0000000010002a96        0x4 server_output/obj/strong_ble.o
                0x0000000010002a96                ble_length_request_enabled
 .text.ble_phy_update_enable
                0x0000000010002a9a        0x4 server_output/obj/strong_ble.o
                0x0000000010002a9a                ble_phy_update_enable
 .text.mem_heap_size_get
                0x0000000010002a9e        0x8 server_output/obj/strong_symbol.o
                0x0000000010002a9e                mem_heap_size_get
 .text.thread_cfg_get
                0x0000000010002aa6        0xa server_output/obj/strong_symbol.o
                0x0000000010002aa6                thread_cfg_get
 .text.thread_create_callback
                0x0000000010002ab0        0x4 server_output/obj/strong_symbol.o
                0x0000000010002ab0                thread_create_callback
 .text.xosc_get_xcfg
                0x0000000010002ab4       0x20 server_output/obj/strong_symbol.o
                0x0000000010002ab4                xosc_get_xcfg
 .text.param_xosc_read
                0x0000000010002ad4        0x6 server_output/obj/strong_symbol.o
                0x0000000010002ad4                param_xosc_read
 .text.param_xosc_write
                0x0000000010002ada       0x12 server_output/obj/strong_symbol.o
                0x0000000010002ada                param_xosc_write
 .text.sys_clk_change_callback
                0x0000000010002aec       0x10 server_output/obj/strong_symbol.o
                0x0000000010002aec                sys_clk_change_callback
 .text.uart_debug_init_callback
                0x0000000010002afc        0x2 server_output/obj/strong_symbol.o
                0x0000000010002afc                uart_debug_init_callback
 .text.cm_loadpage
                0x0000000010002afe       0xb0 ../../libs/cpu/libplatform.a(cm.o)
 .text.cm_next_freepage
                0x0000000010002bae       0x54 ../../libs/cpu/libplatform.a(cm.o)
 .text.cm_loadparam
                0x0000000010002c02        0x4 ../../libs/cpu/libplatform.a(cm.o)
                0x0000000010002c02                cm_loadparam
 .text.cm_factory
                0x0000000010002c06        0xa ../../libs/cpu/libplatform.a(cm.o)
                0x0000000010002c06                cm_factory
 .text.cm_addr_check
                0x0000000010002c10        0x4 ../../libs/cpu/libplatform.a(cm.o)
                0x0000000010002c10                cm_addr_check
 .text.cm_writepage
                0x0000000010002c14       0x28 ../../libs/cpu/libplatform.a(cm.o)
 .text.cm_movepage
                0x0000000010002c3c       0x50 ../../libs/cpu/libplatform.a(cm.o)
 .text.cm_erase
                0x0000000010002c8c       0x1c ../../libs/cpu/libplatform.a(cm.o)
 .text.cm_release
                0x0000000010002ca8       0xfa ../../libs/cpu/libplatform.a(cm.o)
 .text.cm_savepage
                0x0000000010002da2       0xd8 ../../libs/cpu/libplatform.a(cm.o)
 .text.cm_check_loadpage
                0x0000000010002e7a       0xae ../../libs/cpu/libplatform.a(cm.o)
 .text.cm_sync  0x0000000010002f28       0x3e ../../libs/cpu/libplatform.a(cm.o)
                0x0000000010002f28                cm_sync
 .text.cm_read  0x0000000010002f66       0x42 ../../libs/cpu/libplatform.a(cm.o)
                0x0000000010002f66                cm_read
 .text.cm_write
                0x0000000010002fa8       0x5c ../../libs/cpu/libplatform.a(cm.o)
                0x0000000010002fa8                cm_write
 .text.cm_init  0x0000000010003004      0x1e4 ../../libs/cpu/libplatform.a(cm.o)
                0x0000000010003004                cm_init
 .text.xcfg_init
                0x00000000100031e8       0x4c ../../libs/cpu/libplatform.a(xcfg.o)
                0x00000000100031e8                xcfg_init
 .text.platform_main
                0x0000000010003234      0x154 ../../libs/cpu/libplatform.a(main.o)
                0x0000000010003234                platform_main
 .text.main_startup
                0x0000000010003388        0xe ../../libs/cpu/libplatform.a(main.o)
                0x0000000010003388                main_startup
 .text.register_isr
                0x0000000010003396       0x38 ../../libs/cpu/libplatform.a(interrupt.o)
                0x0000000010003396                register_isr
 .text.soft_irq_init
                0x00000000100033ce       0x42 ../../libs/cpu/libplatform.a(interrupt.o)
                0x00000000100033ce                soft_irq_init
 .text.bthw_irq_init
                0x0000000010003410        0xc ../../libs/cpu/libplatform.a(interrupt.o)
                0x0000000010003410                bthw_irq_init
 .text.sys_timer_init
                0x000000001000341c       0x5e ../../libs/cpu/libplatform.a(interrupt.o)
                0x000000001000341c                sys_timer_init
 .text.thread_btstack_create
                0x000000001000347a       0x82 ../../libs/cpu/libplatform.a(startup.o)
                0x000000001000347a                thread_btstack_create
 .text.thread_main_entry
                0x00000000100034fc       0x2e ../../libs/cpu/libplatform.a(startup.o)
 .text.startup.init
                0x000000001000352a      0x100 ../../libs/cpu/libplatform.a(startup.o)
                0x000000001000352a                platform_init
                0x0000000010003532                sys_startup
 .text.bt_set_timer_enable
                0x000000001000362a       0x18 ../../libs/cpu/libplatform.a(startup.o)
                0x000000001000362a                bt_set_timer_enable
 .text.sys_set_tmr_enable
                0x0000000010003642       0x22 ../../libs/cpu/libplatform.a(startup.o)
                0x0000000010003642                sys_set_tmr_enable
 .text.sys_hook_init
                0x0000000010003664        0x2 ../../libs/cpu/libplatform.a(sys_hook.o)
                0x0000000010003664                sys_hook_init
 .text.pll0_vco_band_trimming
                0x0000000010003666      0x176 ../../libs/cpu/libplatform.a(pll.o)
                0x0000000010003666                pll0_vco_band_trimming
 .text.pll0_init
                0x00000000100037dc       0x62 ../../libs/cpu/libplatform.a(pll.o)
                0x00000000100037dc                pll0_init
 .text.pll0_disable
                0x000000001000383e       0x16 ../../libs/cpu/libplatform.a(pll.o)
                0x000000001000383e                pll0_disable
 .text.pmu_set_buck_mode
                0x0000000010003854       0x48 ../../libs/cpu/libplatform.a(pmu.o)
                0x0000000010003854                pmu_set_buck_mode
 .text.pmu_voltage_configure
                0x000000001000389c       0x48 ../../libs/cpu/libplatform.a(pmu.o)
                0x000000001000389c                pmu_voltage_configure
 .text.pmu_init
                0x00000000100038e4      0x2e4 ../../libs/cpu/libplatform.a(pmu.o)
                0x00000000100038e4                pmu_init
 .text.debug_set
                0x0000000010003bc8       0x20 ../../libs/cpu/libplatform.a(debug.o)
                0x0000000010003bc8                debug_set
 .text.ota_pack_is_update_success
                0x0000000010003be8       0x10 ../../libs/cpu/libplatform.a(fot_pack.o)
                0x0000000010003be8                ota_pack_is_update_success
 .text.lock_init
                0x0000000010003bf8       0x10 ../../libs/cpu/libplatform.a(lock.o)
                0x0000000010003bf8                lock_init
 .text.patch_init
                0x0000000010003c08       0x5a ../../libs/cpu/libplatform.a(patch.o)
                0x0000000010003c08                patch_init
 .text.udivmoddi4
                0x0000000010003c62       0x96 ../../libs/cpu/libplatform.a(sys.o)
 .text.sys_rst_init
                0x0000000010003cf8       0x94 ../../libs/cpu/libplatform.a(sys.o)
                0x0000000010003cf8                sys_rst_init
 .text.sys_rst_dump
                0x0000000010003d8c       0x74 ../../libs/cpu/libplatform.a(sys.o)
                0x0000000010003d8c                sys_rst_dump
 .text.rc2m_clk_nhz_cal
                0x0000000010003e00       0xda ../../libs/cpu/libplatform.a(sys.o)
                0x0000000010003e00                rc2m_clk_nhz_cal
 .text.sys_get_rand_key_init
                0x0000000010003eda        0xa ../../libs/cpu/libplatform.a(sys.o)
                0x0000000010003eda                sys_get_rand_key_init
 .text.xosc_init
                0x0000000010003ee4       0x92 ../../libs/cpu/libplatform.a(sys.o)
                0x0000000010003ee4                xosc_init
 .text.bsp.param
                0x0000000010003f76       0x26 ../../libs/cpu/libplatform.a(sys.o)
                0x0000000010003f76                bt_save_xosc_cap
 .text.bt_get_xosc_cap
                0x0000000010003f9c        0xc ../../libs/cpu/libplatform.a(sys.o)
                0x0000000010003f9c                bt_get_xosc_cap
 .text.bt_set_xosc_cap
                0x0000000010003fa8       0x18 ../../libs/cpu/libplatform.a(sys.o)
                0x0000000010003fa8                bt_set_xosc_cap
 .text.bt_adj_xosc_cap
                0x0000000010003fc0       0x72 ../../libs/cpu/libplatform.a(sys.o)
                0x0000000010003fc0                bt_adj_xosc_cap
 .text.__udivdi3
                0x0000000010004032        0x6 ../../libs/cpu/libplatform.a(sys.o)
                0x0000000010004032                __udivdi3
 .text.sys_clk_cacl_curr
                0x0000000010004038       0x18 ../../libs/cpu/libplatform.a(sys_clk.o)
 *fill*         0x0000000010004050      0x1b0 
 .text.set_sys_clk_do
                0x0000000010004200      0x1f2 ../../libs/cpu/libplatform.a(sys_clk.o)
                0x0000000010004200                set_sys_clk_do
 .text.sys_clk  0x00000000100043f2      0x1ca ../../libs/cpu/libplatform.a(sys_clk.o)
                0x00000000100043f2                sys_clk_get_cur
                0x00000000100043fa                sys_clk_set_do
 .text.sys_clk_set
                0x00000000100045bc       0x60 ../../libs/cpu/libplatform.a(sys_clk.o)
                0x00000000100045bc                sys_clk_set
 *fill*         0x000000001000461c        0x0 
 .text.sys_clk.table
                0x000000001000461c       0x16 ../../libs/cpu/libplatform.a(sys_clk.o)
                0x000000001000461c                sysclk_info_tbl
 .text.voltage.trim
                0x0000000010004632       0xaa ../../libs/cpu/libplatform.a(voltage_trim.o)
                0x0000000010004632                voltage_trim_value_init
 .text.xosc_24m_div_get
                0x00000000100046dc        0x4 ../../libs/cpu/libplatform.a(weak_symbol.o)
                0x00000000100046dc                xosc_24m_div_get
 .text.freq_det_init
                0x00000000100046e0       0x3a ../../libs/cpu/libplatform.a(freq_det.o)
                0x00000000100046e0                freq_det_init
 .text          0x000000001000471a       0x4e ../../libs/ble/libbtstack.a(txpkt.o)
                0x000000001000471a                txpkt_list_is_empty
                0x0000000010004726                txpkt_init
                0x0000000010004756                txpkt_get_available_len
 .text.txpkt.flush
                0x0000000010004768       0x4a ../../libs/ble/libbtstack.a(txpkt.o)
                0x0000000010004768                txpkt_free_for_handle
 .text          0x00000000100047b2      0x2b4 ../../libs/ble/libbtstack.a(hci.o)
                0x00000000100047b2                hci_get_state
                0x00000000100047ba                hci_adv_param_get
                0x00000000100047c2                ble_get_scan_sta
                0x00000000100047c6                hci_shutdown_connection
                0x00000000100047ec                gap_le_get_own_address
                0x0000000010004822                hci_le_set_own_address_type
                0x0000000010004856                hci_le_random_address_set
                0x000000001000487a                gap_ctrl_connection_parameter_latency
                0x00000000100048a2                gap_set_connection_parameters
                0x00000000100048ba                gap_get_connection_parameters
                0x00000000100048e2                gap_get_connection_parameters_for_handle
                0x0000000010004918                gap_update_connection_parameters_do
                0x0000000010004950                gap_update_connection_parameters
                0x0000000010004984                gap_advertisements_set_data
                0x0000000010004998                gap_scan_response_set_data
                0x00000000100049ac                gap_advertisements_enable
                0x00000000100049cc                gap_ext_advertisements_set_data
                0x00000000100049ce                gap_ext_scan_response_set_data
                0x00000000100049d0                gap_ext_advertisements_enable
                0x00000000100049d2                gap_ext_advertisements_set_params
                0x00000000100049d4                ble_per_advertisements_set_data
                0x00000000100049d6                ble_per_advertisements_enable
                0x00000000100049d8                ble_per_advertisements_add_device_list
                0x00000000100049da                ble_per_advertisements_creat_sync
                0x00000000100049dc                ble_per_advertisements_creat_sync_cancel
                0x00000000100049de                ble_per_advertisements_terminate_sync
                0x00000000100049e0                ble_vs_tbox_prod_test_start
                0x00000000100049f6                gap_disconnect
                0x0000000010004a48                hci_rx_flush
                0x0000000010004a4a                hci_packet_send_finish
 .text.stack.hci_init
                0x0000000010004a66       0x88 ../../libs/ble/libbtstack.a(hci.o)
                0x0000000010004a86                hci_power_control
 .text.stack.handler.acl
                0x0000000010004aee       0x14 ../../libs/ble/libbtstack.a(hci.o)
 .text.stack.setup
                0x0000000010004b02       0xac ../../libs/ble/libbtstack.a(hci.o)
                0x0000000010004b32                hci_add_event_handler
                0x0000000010004b44                hci_register_acl_packet_handler
                0x0000000010004b4c                hci_init
 .text.stack.hci
                0x0000000010004bae      0x232 ../../libs/ble/libbtstack.a(hci.o)
                0x0000000010004bfe                hci_number_free_acl_slots_for_handle
                0x0000000010004c16                hci_can_send_command_packet_now
                0x0000000010004c54                hci_can_send_acl_le_packet_now
                0x0000000010004c92                hci_can_send_prepared_acl_packet_now
                0x0000000010004ca0                hci_can_send_acl_packet_now
                0x0000000010004cae                hci_is_packet_buffer_reserved
                0x0000000010004cb6                hci_reserve_packet_buffer
                0x0000000010004cee                hci_release_packet_buffer
 .text.stack.hci.conn
                0x0000000010004de0       0xcc ../../libs/ble/libbtstack.a(hci.o)
                0x0000000010004de0                get_free_hci_connection
                0x0000000010004dfc                create_connection_for_bd_addr_and_type
                0x0000000010004e74                hci_connection_for_bd_addr_and_type
 .text.ble.hci  0x0000000010004eac      0x18c ../../libs/ble/libbtstack.a(hci.o)
                0x0000000010004eac                ble_event_cmd_complete
                0x0000000010004f30                ble_event_meta
 .text.stack.hci_send
                0x0000000010005038       0x96 ../../libs/ble/libbtstack.a(hci.o)
                0x0000000010005038                hci_send_cmd_packet
                0x000000001000508c                hci_send_cmd
 .text.stack.hci.run
                0x00000000100050ce      0x1b0 ../../libs/ble/libbtstack.a(hci.o)
 .text.stack.hci_rx
                0x000000001000527e       0xdc ../../libs/ble/libbtstack.a(hci.o)
 .text.stack.hci_emit
                0x000000001000535a       0x2c ../../libs/ble/libbtstack.a(hci.o)
                0x000000001000535a                hci_emit_state
 .text.stack.hci.le.adv
                0x0000000010005386       0x46 ../../libs/ble/libbtstack.a(hci.o)
                0x0000000010005386                hci_le_advertisements_set_params
 .text          0x00000000100053cc       0x42 ../../libs/ble/libbtstack.a(btstack_util.o)
                0x00000000100053cc                log_info_hexdump
                0x00000000100053ce                log_info_key
                0x00000000100053d0                uuid_add_bluetooth_prefix
                0x00000000100053f2                uuid_has_bluetooth_prefix
 .text.stack.util
                0x000000001000540e      0x126 ../../libs/ble/libbtstack.a(btstack_util.o)
                0x000000001000540e                bd_addr_cmp
                0x0000000010005414                bd_addr_copy
                0x000000001000541a                big_endian_read_16
                0x000000001000542a                big_endian_read_32
                0x000000001000544a                big_endian_store_16
                0x000000001000545e                big_endian_store_32
                0x0000000010005492                reverse_bytes
                0x00000000100054ae                reverse_24
                0x00000000100054b2                reverse_48
                0x00000000100054b6                reverse_56
                0x00000000100054ba                reverse_64
                0x00000000100054be                reverse_128
                0x00000000100054c2                reverse_256
                0x00000000100054c8                reverse_bd_addr
                0x00000000100054ca                btstack_min
                0x00000000100054d0                btstack_max
                0x00000000100054d6                char_for_nibble
                0x00000000100054fc                nibble_for_char
 .text.stack.hci_dump
                0x0000000010005534       0x50 ../../libs/ble/libbtstack.a(btstack_util.o)
                0x0000000010005534                bd_addr_to_str
 .text.sm.aes   0x0000000010005584       0x3a ../../libs/ble/libbtstack.a(sm.o)
 .text.sm.get_handle
                0x00000000100055be       0x16 ../../libs/ble/libbtstack.a(sm.o)
 .text.sm.rau_run
                0x00000000100055d4       0x90 ../../libs/ble/libbtstack.a(sm.o)
 .text.gap.rau.update
                0x0000000010005664       0x38 ../../libs/ble/libbtstack.a(sm.o)
 .text.sm.is_null
                0x000000001000569c       0x1c ../../libs/ble/libbtstack.a(sm.o)
                0x000000001000569c                sm_is_null
 .text.sm.hdl   0x00000000100056b8       0x12 ../../libs/ble/libbtstack.a(sm.o)
                0x00000000100056b8                sm_add_event_handler
 .text.sm.deinit
                0x00000000100056ca        0x8 ../../libs/ble/libbtstack.a(sm.o)
                0x00000000100056ca                sm_deinit
 .text.sm.auth.sta
                0x00000000100056d2       0x24 ../../libs/ble/libbtstack.a(sm.o)
                0x00000000100056d2                sm_authorization_state
 .text.sm.index
                0x00000000100056f6       0x14 ../../libs/ble/libbtstack.a(sm.o)
                0x00000000100056f6                sm_le_device_index
 .text.gap.rau.mode
                0x000000001000570a       0x66 ../../libs/ble/libbtstack.a(sm.o)
                0x000000001000570a                gap_random_address_set_mode
 .text.gap.rau_set
                0x0000000010005770       0x28 ../../libs/ble/libbtstack.a(sm.o)
                0x0000000010005770                gap_random_address_set
 .text.sm.addr  0x0000000010005798        0xc ../../libs/ble/libbtstack.a(sm.o)
                0x0000000010005798                gap_random_address_get
 .text.gap.adv  0x00000000100057a4        0x4 ../../libs/ble/libbtstack.a(sm.o)
                0x00000000100057a4                gap_advertisements_set_params
 .text          0x00000000100057a8       0x36 ../../libs/ble/libbtstack.a(le_device_db_memory.o)
                0x00000000100057a8                le_device_db_count
 .text.le.db.max
                0x00000000100057de        0x4 ../../libs/ble/libbtstack.a(le_device_db_memory.o)
                0x00000000100057de                ble_bonding_info_max_count
 .text.le.db.set
                0x00000000100057e2      0x114 ../../libs/ble/libbtstack.a(le_device_db_memory.o)
                0x00000000100057e2                le_device_db_info_save_for_index
                0x000000001000580a                le_device_db_info_set
 .text.le.db.read
                0x00000000100058f6       0x2c ../../libs/ble/libbtstack.a(le_device_db_memory.o)
                0x00000000100058f6                le_device_db_info_load_for_index
 .text.le.db.init
                0x0000000010005922       0x52 ../../libs/ble/libbtstack.a(le_device_db_memory.o)
                0x0000000010005922                le_device_db_init
 .text.le.db    0x0000000010005974      0x144 ../../libs/ble/libbtstack.a(le_device_db_memory.o)
                0x0000000010005974                le_device_db_info
                0x00000000100059c4                le_device_db_encryption_set
                0x0000000010005a2c                le_device_db_encryption_get
 .text          0x0000000010005ab8       0x24 ../../libs/ble/libbtstack.a(gatt_server.o)
                0x0000000010005ab8                att_server_send_func_get
 .text.ble.indicate
                0x0000000010005adc       0x68 ../../libs/ble/libbtstack.a(gatt_server.o)
                0x0000000010005adc                ble_send_indicate_packet
                0x0000000010005aee                ble_indicate_for_handle
 .text.client.get_context
                0x0000000010005b44       0x18 ../../libs/ble/libbtstack.a(gatt_client.o)
                0x0000000010005b44                gatt_client_get_context_for_handle
 .text.client.request_can_send
                0x0000000010005b5c       0x28 ../../libs/ble/libbtstack.a(gatt_client.o)
                0x0000000010005b5c                att_client_request_can_send_now_event
 .text.client.send_req
                0x0000000010005b84       0x16 ../../libs/ble/libbtstack.a(gatt_client.o)
                0x0000000010005b84                btstack_ble_client_send_req
 .text          0x0000000010005b9a      0x1b0 ../../libs/ble/libbtstack.a(att_server.o)
                0x0000000010005cb6                att_server_handler_list_init
                0x0000000010005cbe                att_server_can_send_packet_now
 .text.server.register_service
                0x0000000010005d4a       0x30 ../../libs/ble/libbtstack.a(att_server.o)
                0x0000000010005d4a                att_server_register_service_handler
 .text.server.init
                0x0000000010005d7a       0x5e ../../libs/ble/libbtstack.a(att_server.o)
                0x0000000010005d7a                att_server_init
 .text.server.packet_handler
                0x0000000010005dd8      0x18e ../../libs/ble/libbtstack.a(att_server.o)
 .text.att.event_handler
                0x0000000010005f66      0x160 ../../libs/ble/libbtstack.a(att_server.o)
 .text.server.indicate
                0x00000000100060c6       0x98 ../../libs/ble/libbtstack.a(att_server.o)
                0x00000000100060c6                att_server_indicate
 .text.server.mtu_get
                0x000000001000615e       0x24 ../../libs/ble/libbtstack.a(att_server.o)
                0x000000001000615e                ble_att_get_mtu
 .text          0x0000000010006182      0x1da ../../libs/ble/libbtstack.a(att_dispatch.o)
                0x0000000010006278                att_dispatch_connected_event
                0x00000000100062ce                att_dispatch_disconnected_event
                0x00000000100062f6                att_dispatch_connect_param_update_event
                0x0000000010006324                att_dispatch_encryption_change_event
                0x0000000010006354                att_dispatch_sm_event
 .text.att.is_register_client
                0x000000001000635c        0xc ../../libs/ble/libbtstack.a(att_dispatch.o)
                0x000000001000635c                att_dispatch_client_is_register
 .text.att.register_server
                0x0000000010006368       0x14 ../../libs/ble/libbtstack.a(att_dispatch.o)
                0x0000000010006368                att_dispatch_register_server
 .text.att.dispatch_server
                0x000000001000637c        0x6 ../../libs/ble/libbtstack.a(att_dispatch.o)
                0x000000001000637c                att_dispatch_can_send_now
 .text.att.dispatch_client
                0x0000000010006382        0xe ../../libs/ble/libbtstack.a(att_dispatch.o)
                0x0000000010006382                att_dispatch_client_request_can_send_now_event
 .text.att.server_mtu
                0x0000000010006390        0xe ../../libs/ble/libbtstack.a(att_dispatch.o)
                0x0000000010006390                att_dispatch_server_mtu_exchanged
 *fill*         0x000000001000639e        0x2 
 .text          0x00000000100063a0      0xddc ../../libs/ble/libbtstack.a(att_db.o)
                0x000000001000659a                att_uuid_for_handle
                0x00000000100065c4                att_set_db
                0x00000000100065cc                att_set_read_callback
                0x00000000100065d4                att_set_write_callback
                0x00000000100065dc                handle_exchange_mtu_request
                0x0000000010006604                att_clear_transaction_queue
                0x0000000010006620                att_prepare_handle_value_indication
                0x000000001000665e                att_handle_request
                0x0000000010007028                gatt_server_get_get_handle_range_for_service_with_uuid16
                0x00000000100070ae                gatt_server_get_value_handle_for_characteristic_with_uuid16
                0x00000000100070f0                gatt_server_get_client_configuration_handle_for_characteristic_with_uuid16
 .text.att.mtu_request
                0x000000001000717c       0x3a ../../libs/ble/libbtstack.a(att_db.o)
                0x000000001000717c                att_exchange_mtu_request
 .text.att_server.mtu_rsp
                0x00000000100071b6       0x2a ../../libs/ble/libbtstack.a(att_db.o)
                0x00000000100071b6                handle_exchange_mtu_response
 .text          0x00000000100071e0        0x2 ../../libs/ble/libbtstack.a(hci_transport_h3_controller.o)
                0x00000000100071e0                hci_init_var
 .text          0x00000000100071e2       0x12 ../../libs/ble/libbtstack.a(hci_transport_dummy.o)
                0x00000000100071e2                hci_iodm_init
                0x00000000100071e4                hci_transport_setup
 .text          0x00000000100071f4       0x18 ../../libs/ble/libbtstack.a(btstack_hal.o)
                0x00000000100071f4                hal_tick_init
                0x00000000100071fa                hal_tick_set_handler
 .text          0x000000001000720c      0x114 ../../libs/ble/libbtstack.a(btstack_api.o)
                0x000000001000720c                btstack_ble_enable_scan
                0x000000001000725e                btstack_ble_enable_adv
                0x0000000010007264                btstack_ble_disable_adv
                0x000000001000726a                btstack_ble_set_adv_param
                0x00000000100072ac                btstack_ble_sm_passkey_input
                0x00000000100072c2                btstack_ble_sm_send_security_request
                0x00000000100072c6                btstack_ble_ctrl_connection_latency
                0x00000000100072d2                btstack_ble_single_tone_mode_enter
                0x00000000100072ee                btstack_ble_set_random_static_addr
                0x00000000100072fe                btstack_ble_add_dev_to_white_list
                0x0000000010007300                btstack_ble_rmv_dev_from_white_list
                0x0000000010007302                btstack_ble_set_ext_adv_param
                0x0000000010007304                btstack_ble_disable_scan
                0x0000000010007306                btstack_ble_set_scan_param
                0x0000000010007308                btstack_ble_conn_by_addr
                0x000000001000730a                btstack_ble_rslv_enable
                0x000000001000730c                btstack_ble_rslv_renew_to_set
                0x000000001000730e                btstack_ble_add_dev_to_ral_list
                0x0000000010007310                btstack_ble_rmv_dev_from_ral_list
                0x0000000010007312                btstack_var_init
                0x000000001000731c                btstack_ble_get_conn_rssi
 .text.stack.sleep
                0x0000000010007320       0x24 ../../libs/ble/libbtstack.a(btstack_api.o)
                0x0000000010007320                btstack_exit_sleep
                0x000000001000732c                btstack_enter_sleep
 .text.ble.hci  0x0000000010007344      0x100 ../../libs/ble/libbtstack.a(btstack_api.o)
                0x0000000010007344                btstack_ble_set_adv_data
                0x0000000010007354                btstack_ble_set_scan_rsp_data
                0x0000000010007364                btstack_ble_disconnect
                0x000000001000737e                btstack_ble_set_adv_interval
                0x00000000100073b0                btstack_ble_ll_update_conn_param
 .text.stack.setup
                0x0000000010007444       0x4c ../../libs/ble/libbtstack.a(btstack_api.o)
 .text.stack.api
                0x0000000010007490       0x34 ../../libs/ble/libbtstack.a(btstack_api.o)
                0x00000000100074b0                btstack_init
 .text          0x00000000100074c4       0x40 ../../libs/ble/libbtstack.a(ble_api.o)
                0x00000000100074f0                ble_msg_free_prepare
 .text.stack.api
                0x0000000010007504       0x56 ../../libs/ble/libbtstack.a(ble_api.o)
                0x0000000010007504                btstack_deinit
                0x000000001000752c                ble_setup
 .text.ble.api.adv_param.set
                0x000000001000755a       0xf8 ../../libs/ble/libbtstack.a(ble_api.o)
                0x000000001000755a                ble_set_adv_param
 .text.ble.api.regist
                0x0000000010007652        0x8 ../../libs/ble/libbtstack.a(ble_api.o)
                0x0000000010007652                ble_init_callback_register
                0x0000000010007656                ble_vs_tbox_init_callback_register
 .text          0x000000001000765a       0x44 ../../libs/ble/libbtstack.a(txpkt.o)
                0x000000001000765a                txpkt_mem_init
                0x0000000010007674                txpkt_malloc
                0x0000000010007680                txpkt_free
                0x000000001000768a                txpkt_list_pop_front
                0x0000000010007694                txpkt_list_extract
 .text          0x000000001000769e       0x8e ../../libs/ble/libbtstack.a(rf.o)
                0x000000001000769e                rf_off
                0x00000000100076ca                rf_reset
                0x00000000100076cc                rf_init
 .text.rf.tx_tone
                0x000000001000772c       0x54 ../../libs/ble/libbtstack.a(rf.o)
                0x000000001000772c                rf_single_tone_enter
 .text          0x0000000010007780      0x402 ../../libs/ble/libbtstack.a(hct_proc.o)
                0x0000000010007ae2                hct_register_handler_evt
                0x0000000010007aea                hct_register_handler_acl
                0x0000000010007af2                hct_acl_block_request
                0x0000000010007b42                hct_init_do
 *fill*         0x0000000010007b82       0x7e 
 .text          0x0000000010007c00      0x2dc ../../libs/ble/libbtstack.a(hct.o)
                0x0000000010007c00                hct_init
                0x0000000010007c10                hci_send_2_host
                0x0000000010007c44                hci_cmd_send_2_controller
                0x0000000010007cf4                hci_acl_send_2_controller
                0x0000000010007e00                hci_malloc_for_cmd_tmpl
                0x0000000010007e52                hci_malloc_for_acl_tx
                0x0000000010007e70                hci_ble_conhdl_register
                0x0000000010007e7e                hci_ble_conhdl_unregister
 .text          0x0000000010007edc      0x17a ../../libs/ble/libbtstack.a(mgr_hci.o)
                0x0000000010008042                hci_le_rd_buff_size
 .text.le.mgr   0x0000000010008056       0x38 ../../libs/ble/libbtstack.a(mgr_hci.o)
                0x0000000010008056                hci_command_mgr_func
 .text          0x000000001000808e      0x440 ../../libs/ble/libbtstack.a(mgr.o)
                0x000000001000808e                mgr_cmd_cmp_send
                0x00000000100080b6                mgr_cmd_stat_send
                0x00000000100080de                mgr_is_dev_connected
                0x0000000010008148                mgr_ral_is_empty
                0x000000001000814c                mgr_ch_map_update
                0x0000000010008258                mgr_init
                0x0000000010008358                mgr_clk_acc_set
                0x0000000010008396                mgr_link_disc
                0x00000000100083ca                mgr_le_evt_mask_check
                0x00000000100083e4                mgr_le_get_features
                0x0000000010008440                mgr_le_get_tbox_feat
                0x000000001000844e                mgr_plan_elt_get
                0x000000001000845c                mgr_act_get_free
                0x00000000100084ac                mgr_act_set_free
 .text          0x00000000100084ce      0x686 ../../libs/ble/libbtstack.a(ll_adv.o)
                0x000000001000856e                ll_adv_hdl_to_idx
                0x00000000100085be                hci_le_set_adv_param_cmd_func
                0x0000000010008782                hci_le_set_adv_data_cmd_func
                0x000000001000884e                hci_le_set_scan_rsp_data_cmd_func
                0x000000001000891a                hci_le_set_adv_en_cmd_func
 .text.le.ll_adv.con
                0x0000000010008b54      0x27c ../../libs/ble/libbtstack.a(ll_adv.o)
                0x0000000010008b54                ble_adv_end_con_ind
 .text.le.ll_adv
                0x0000000010008dd0      0x2ea ../../libs/ble/libbtstack.a(ll_adv.o)
                0x0000000010008dd0                ble_adv_end_ind_func
 *fill*         0x00000000100090ba        0x2 
 .text          0x00000000100090bc      0xd3e ../../libs/ble/libbtstack.a(ll_con_upd.o)
                0x0000000010009a08                hci_le_con_upd_cmd_func
                0x0000000010009b92                ll_op_con_upd_ind_func
                0x0000000010009c34                ble_con_param_upd_cfm_func
                0x0000000010009cac                ble_con_offset_upd_ind_func
                0x0000000010009cfe                ll_con_move_cb
 .text.le.ll_cntl.pdu
                0x0000000010009dfa      0x332 ../../libs/ble/libbtstack.a(ll_con_upd.o)
                0x0000000010009dfa                ll_con_update_ind_func
                0x0000000010009f6a                ll_con_param_req_func
                0x000000001000a08e                ll_con_param_rsp_func
 .text          0x000000001000a12c      0x198 ../../libs/ble/libbtstack.a(ll_cntl.o)
                0x000000001000a12c                ble_cntl_rx_ind_func
 .text.le.ll_cntl.pdu
                0x000000001000a2c4       0x1a ../../libs/ble/libbtstack.a(ll_cntl.o)
 .text.le.ll_cntl.send
                0x000000001000a2de       0xa2 ../../libs/ble/libbtstack.a(ll_cntl.o)
                0x000000001000a2de                ll_cntl_send
 .text.le.ll_cntl.pdu
                0x000000001000a380      0x112 ../../libs/ble/libbtstack.a(ll_clk_acc.o)
                0x000000001000a380                ll_clk_acc_req_func
                0x000000001000a3da                ll_clk_acc_rsp_func
 .text          0x000000001000a492      0x1b8 ../../libs/ble/libbtstack.a(ll_chmap_upd.o)
                0x000000001000a5ba                ll_op_ch_map_upd_ind_func
                0x000000001000a622                ble_ch_map_upd_cfm_func
 .text.le.ll_cntl.pdu
                0x000000001000a64a      0x1da ../../libs/ble/libbtstack.a(ll_chmap_upd.o)
                0x000000001000a64a                ll_channel_map_ind_func
                0x000000001000a77a                ll_min_used_channels_ind_func
 .text.le.ll_cntl
                0x000000001000a824       0x68 ../../libs/ble/libbtstack.a(ll.o)
                0x000000001000a824                ll_init
 .text.le.ll_cntl.start
                0x000000001000a88c      0x236 ../../libs/ble/libbtstack.a(ll.o)
                0x000000001000a88c                ll_start
 .text          0x000000001000aac2      0x1d0 ../../libs/ble/libbtstack.a(ble_hal.o)
                0x000000001000aac2                ble_get_rslv_var
                0x000000001000aac6                ble_hal_init
                0x000000001000ac8a                ble_ch_assess_data_get
 *fill*         0x000000001000ac92       0x6e 
 .text          0x000000001000ad00      0x52a ../../libs/ble/libbtstack.a(ble_con.o)
                0x000000001000ad00                ble_con_start_do
                0x000000001000ad28                ble_con_start
                0x000000001000b100                ble_con_stop
                0x000000001000b180                ble_con_offset_get
                0x000000001000b1c0                ble_con_pref_slave_latency_set
                0x000000001000b1fc                ble_con_peer_sca_set
 .text.le.con   0x000000001000b22a       0x84 ../../libs/ble/libbtstack.a(ble_con.o)
                0x000000001000b22a                ble_get_con_var
                0x000000001000b232                ble_get_con_rssi
                0x000000001000b248                ble_con_init
 .text          0x000000001000b2ae       0x62 ../../libs/ble/libbtstack.a(ble_adv.o)
                0x000000001000b2ae                ble_get_adv_var
                0x000000001000b2b6                ble_adv_init
 .text          0x000000001000b310      0x13e ../../libs/ble/libbtstack.a(ble_buf.o)
                0x000000001000b310                ble_buf_init_do
                0x000000001000b406                ble_buf_init
 *fill*         0x000000001000b44e       0x32 
 .text.bb.buf   0x000000001000b480       0x98 ../../libs/ble/libbtstack.a(ble_buf.o)
                0x000000001000b480                ble_buf_acl_tx_elt_get
                0x000000001000b4c0                ble_buf_acl_tx_elt_set
 .text.le.stack
                0x000000001000b518       0x28 ../../libs/ble/libbtstack.a(ble_buf.o)
                0x000000001000b518                ble_msg_malloc
                0x000000001000b520                ble_msg_free
                0x000000001000b528                ble_msg_wrap
                0x000000001000b536                ble_msg_unwrap
 .text          0x000000001000b540      0x110 ../../libs/ble/libbtstack.a(bb_int.o)
                0x000000001000b540                bb_sleep_init
                0x000000001000b542                bb_driver_init
 *fill*         0x000000001000b650       0xb0 
 .text.bb.aes   0x000000001000b700       0xf4 ../../libs/ble/libbtstack.a(bb_int.o)
                0x000000001000b700                bb_aes_encrypt
 .text          0x000000001000b7f4      0x292 ../../libs/ble/libbtstack.a(bb.o)
                0x000000001000b816                bb_rand_init
                0x000000001000b81e                bb_get_heap_info
                0x000000001000b830                bb_var_init
                0x000000001000b838                bb_nanos_mem_init
                0x000000001000b87e                bb_reset
                0x000000001000b90a                bb_init
                0x000000001000ba2a                bb_off
 .text          0x000000001000ba86       0x32 ../../libs/ble/libbtstack.a(extern_ble.o)
                0x000000001000baae                ble_sync_link_info
                0x000000001000bab4                hci_event_debug_en
 .text          0x000000001000bab8       0x60 ../../libs/ble/libbtstack.a(l2cap.o)
                0x000000001000bb02                l2cap_register_packet_handler
                0x000000001000bb0a                l2cap_max_le_mtu
 .text.stk.l2cap.txreq
                0x000000001000bb18       0x96 ../../libs/ble/libbtstack.a(l2cap.o)
 .text.stack.l2cap
                0x000000001000bbae       0xf6 ../../libs/ble/libbtstack.a(l2cap.o)
                0x000000001000bc88                l2cap_get_outgoing_buffer
                0x000000001000bc9a                l2cap_reserve_packet_buffer
                0x000000001000bca0                l2cap_release_packet_buffer
 .text.stack.handler.l2cap
                0x000000001000bca4      0x11a ../../libs/ble/libbtstack.a(l2cap.o)
                0x000000001000bdba                l2cap_can_send_fixed_channel_packet_now
 .text.stack.l2cap.gap
                0x000000001000bdbe       0x20 ../../libs/ble/libbtstack.a(l2cap.o)
                0x000000001000bdbe                gap_request_connection_parameter_update
 .text.stack.setup
                0x000000001000bdde       0x70 ../../libs/ble/libbtstack.a(l2cap.o)
                0x000000001000bdde                l2cap_init
                0x000000001000be2c                l2cap_register_fixed_channel
 .text.stack.setup
                0x000000001000be4e        0x2 ../../libs/ble/libbtstack.a(hci_dump.o)
                0x000000001000be4e                hci_dump_open
 *fill*         0x000000001000be50        0x0 
 .text.stack.hci_send
                0x000000001000be50      0x322 ../../libs/ble/libbtstack.a(hci_cmd.o)
                0x000000001000be50                hci_cmd_create_from_template
 .text          0x000000001000c172        0x2 ../../libs/ble/libbtstack.a(btstack_run_loop.o)
                0x000000001000c172                thread_nanos_task_create
 *fill*         0x000000001000c174        0xc 
 .text.stack.run_loop
                0x000000001000c180      0x16a ../../libs/ble/libbtstack.a(btstack_run_loop.o)
                0x000000001000c180                btstack_run_loop_set_timer_handler
                0x000000001000c184                btstack_run_loop_set_data_source_handler
                0x000000001000c188                btstack_run_loop_set_data_source_fd
                0x000000001000c18c                btstack_run_loop_get_data_source_fd
                0x000000001000c190                btstack_run_loop_enable_data_source_callbacks
                0x000000001000c19c                btstack_run_loop_disable_data_source_callbacks
                0x000000001000c1ac                btstack_run_loop_add_data_source
                0x000000001000c1be                btstack_run_loop_remove_data_source
                0x000000001000c1d0                btstack_run_loop_set_timer
                0x000000001000c1ea                btstack_run_loop_set_timer_context
                0x000000001000c1ee                btstack_run_loop_get_timer_context
                0x000000001000c200                btstack_run_loop_set_trig_ticks
                0x000000001000c23c                btstack_run_loop_add_timer
                0x000000001000c26c                btstack_run_loop_remove_timer
                0x000000001000c2a4                btstack_run_loop_get_ticks
                0x000000001000c2ae                btstack_run_loop_ticks_for_ms
                0x000000001000c2b4                btstack_run_loop_get_time_ms
                0x000000001000c2c0                btstack_run_loop_timer_dump
 .text.stack.setup
                0x000000001000c2ea       0x32 ../../libs/ble/libbtstack.a(btstack_run_loop.o)
                0x000000001000c2ea                btstack_run_loop_init
 .text          0x000000001000c31c       0x10 ../../libs/ble/libbtstack.a(btstack_main.o)
                0x000000001000c31c                btstack_ble_set_init_callback
                0x000000001000c324                btstack_ble_vs_tbox_set_init_callback
 .text.stack.handler
                0x000000001000c32c       0x60 ../../libs/ble/libbtstack.a(btstack_main.o)
 .text.stack.ble.setup
                0x000000001000c38c        0x4 ../../libs/ble/libbtstack.a(btstack_main.o)
                0x000000001000c38c                btstack_ble_init
 .text.stack.setup
                0x000000001000c390       0x34 ../../libs/ble/libbtstack.a(btstack_main.o)
                0x000000001000c390                btstack_main
 .text          0x000000001000c3c4       0x76 ../../libs/ble/libbtstack.a(nanos.o)
                0x000000001000c3c4                nanos_init
                0x000000001000c3fa                nanos_var_init
 .text          0x000000001000c43a       0x34 ../../libs/ble/libbtstack.a(bb_sche.o)
                0x000000001000c43a                bb_sche_frag_ble_dur_set
                0x000000001000c44c                bb_sche_init
 .text          0x000000001000c46e       0xae ../../libs/ble/libbtstack.a(patch.o)
                0x000000001000c46e                bb_patch_dummy
                0x000000001000c470                bb_patch_init
 .text.bb.aes   0x000000001000c51c      0x19a ../../libs/ble/libbtstack.a(aes.o)
                0x000000001000c51c                aes_init
                0x000000001000c566                aes_alloc
                0x000000001000c588                aes_start
                0x000000001000c5c6                aes_encrypt
                0x000000001000c612                aes_rand
                0x000000001000c64e                aes_result_handler
 .text          0x000000001000c6b6       0x38 ../../libs/ble/libbtstack.a(extern.o)
                0x000000001000c6cc                bt_rf_get_fcc_param
                0x000000001000c6d4                private_freq_bands_hook
                0x000000001000c6d8                private_access_code_hook
                0x000000001000c6e2                ble_tbox_feature_req_enabled
                0x000000001000c6e6                ble_chmap_instant_pass_discon
                0x000000001000c6ea                ble_adv_duration_get
 .text          0x000000001000c6ee       0x9c ../../libs/ble/libbtstack.a(vs.o)
                0x000000001000c6ee                vs_init
                0x000000001000c72a                vs_reset_complete_evt
 .text          0x000000001000c78a      0x2ca ../../libs/ble/libbtstack.a(rf_mate.o)
                0x000000001000c870                rfphy_tx
                0x000000001000ca22                rfphy_test
                0x000000001000ca24                ble_rf_external_pa_init
 .text.rfphy.other
                0x000000001000ca54       0x8a ../../libs/ble/libbtstack.a(rf_mate.o)
 .text.rf.param.init
                0x000000001000cade       0xf4 ../../libs/ble/libbtstack.a(rf_mate.o)
 .text.bb.rf    0x000000001000cbd2       0x7a ../../libs/ble/libbtstack.a(rf_mate.o)
                0x000000001000cbd2                rfphy_sw_ctrl
                0x000000001000cc02                rfphy_tx_pwr
 .text.bb.phy.tx
                0x000000001000cc4c       0x8c ../../libs/ble/libbtstack.a(rf_mate.o)
                0x000000001000cc4c                rfphy_tx_tone
 .text          0x000000001000ccd8        0x2 ../../libs/ble/libbtstack.a(ble_hook.o)
                0x000000001000ccd8                ble_hal_init_hook
 .text          0x000000001000ccda        0x4 ../../libs/ble/libbtstack.a(adv_hook.o)
                0x000000001000ccda                ble_adv_end_ind_hook
 .text          0x000000001000ccde      0x128 ../../libs/ble/libbtstack.a(hct_msg.o)
                0x000000001000ccde                hci_look_for_cmd_desc
                0x000000001000cd68                hci_look_for_evt_desc
                0x000000001000cdaa                hci_look_for_dbg_evt_desc
                0x000000001000cdc4                hci_look_for_le_evt_desc
 .text          0x000000001000ce06      0x220 ../../libs/ble/libbtstack.a(mgr_test.o)
                0x000000001000ce28                ble_test_end_ind_func
                0x000000001000ce6a                hci_le_rx_test_v1_cmd_func
                0x000000001000ceb0                hci_le_tx_test_v1_cmd_func
                0x000000001000cf14                hci_le_rx_test_v2_cmd_func
                0x000000001000cf74                hci_le_tx_test_v2_cmd_func
                0x000000001000cfea                hci_le_test_end_cmd_func
 .text          0x000000001000d026       0x3c ../../libs/ble/libbtstack.a(mgr_proc.o)
 .text          0x000000001000d062       0x60 ../../libs/ble/libbtstack.a(ll_version.o)
                0x000000001000d08e                ble_ll_version_get
 .text.le.ll_cntl.pdu
                0x000000001000d0c2      0x14e ../../libs/ble/libbtstack.a(ll_version.o)
                0x000000001000d0c2                ll_version_ind_func
 .text          0x000000001000d210      0x174 ../../libs/ble/libbtstack.a(ll_tbox_prod_test.o)
                0x000000001000d2dc                ll_op_tbox_prod_test_ind_func
                0x000000001000d310                ll_tbox_prod_test_proc_start
 .text.le.ll_cntl.pdu
                0x000000001000d384       0xae ../../libs/ble/libbtstack.a(ll_tbox_prod_test.o)
                0x000000001000d384                ll_tbox_prod_test_req_func
                0x000000001000d3fe                ll_tbox_prod_test_rsp_func
 .text          0x000000001000d432      0x28a ../../libs/ble/libbtstack.a(ll_tbox_freq_cal.o)
                0x000000001000d516                ll_op_tbox_freq_cal_ind_func
                0x000000001000d54a                ll_op_tbox_freq_cal_end_ind_func
                0x000000001000d644                ll_tbox_freq_cal_proc_start
 .text.le.ll_cntl.pdu
                0x000000001000d6bc      0x138 ../../libs/ble/libbtstack.a(ll_tbox_freq_cal.o)
                0x000000001000d6bc                ll_tbox_freq_cal_req_func
                0x000000001000d76c                ll_tbox_freq_cal_rsp_func
 .text          0x000000001000d7f4      0x156 ../../libs/ble/libbtstack.a(ll_tbox_feature.o)
                0x000000001000d896                ll_op_tbox_feat_exch_ind_func
                0x000000001000d8ca                ll_tbox_feat_proc_start
 .text.le.ll_cntl.pdu
                0x000000001000d94a      0x190 ../../libs/ble/libbtstack.a(ll_tbox_feature.o)
                0x000000001000d94a                ll_tbox_feat_req_func
                0x000000001000da68                ll_tbox_feat_rsp_func
 .text          0x000000001000dada      0x2b6 ../../libs/ble/libbtstack.a(ll_proc.o)
                0x000000001000dafa                hci_command_ll_func
                0x000000001000db32                ble_acl_rx_ind_func
                0x000000001000dca6                ble_acl_tx_cfm_func
                0x000000001000dcb6                ll_cmd_cmp_send
                0x000000001000dce8                hci_vs_set_pref_slave_latency_cmd_func
                0x000000001000dd3e                hci_vs_tbox_prod_test_req_cmd_func
                0x000000001000dd68                ll_cmd_stat_send
 *fill*         0x000000001000dd90        0x0 
 .text          0x000000001000dd90      0xa26 ../../libs/ble/libbtstack.a(ll_phy_upd.o)
                0x000000001000e656                ll_op_phy_upd_ind_func
                0x000000001000e6f2                ble_phy_upd_cfm_func
                0x000000001000e732                ll_phy_upd_proc_start
 .text.le.ll_cntl.pdu
                0x000000001000e7b6      0x264 ../../libs/ble/libbtstack.a(ll_phy_upd.o)
                0x000000001000e7b6                ll_phy_req_func
                0x000000001000e88c                ll_phy_rsp_func
                0x000000001000e926                ll_phy_update_ind_func
 .text          0x000000001000ea1a      0x3ae ../../libs/ble/libbtstack.a(ll_length.o)
                0x000000001000ecbe                ll_op_length_upd_ind_func
                0x000000001000ed2c                ll_length_proc_start_for_param
                0x000000001000ed94                ll_length_proc_start
 .text.le.ll_cntl.pdu
                0x000000001000edc8      0x214 ../../libs/ble/libbtstack.a(ll_length.o)
                0x000000001000edc8                ll_length_req_func
                0x000000001000ef3a                ll_length_rsp_func
 .text          0x000000001000efdc      0x2c6 ../../libs/ble/libbtstack.a(ll_feature.o)
                0x000000001000f1a2                ll_op_feats_exch_ind_func
                0x000000001000f21e                ll_feature_exchange_proc_start
                0x000000001000f26e                ble_ll_feature_exchange_get
 .text.le.ll_cntl.pdu
                0x000000001000f2a2      0x168 ../../libs/ble/libbtstack.a(ll_feature.o)
                0x000000001000f2a2                ll_feature_req_func
                0x000000001000f316                ll_slave_feature_req_func
                0x000000001000f38a                ll_feature_rsp_func
 *fill*         0x000000001000f40a        0x2 
 .text          0x000000001000f40c      0x850 ../../libs/ble/libbtstack.a(ll_encrypt.o)
                0x000000001000f9ee                hci_le_ltk_req_reply_cmd_func
                0x000000001000fa6c                hci_le_ltk_req_neg_reply_cmd_func
                0x000000001000fb06                ll_encrypt_ind_func
                0x000000001000fbf2                ll_op_encrypt_ind_func
 .text.le.ll_cntl.pdu
                0x000000001000fc5c      0x348 ../../libs/ble/libbtstack.a(ll_encrypt.o)
                0x000000001000fc5c                ll_pause_enc_req_func
                0x000000001000fce2                ll_pause_enc_rsp_func
                0x000000001000fd4e                ll_enc_req_func
                0x000000001000fe68                ll_enc_rsp_func
                0x000000001000feee                ll_start_enc_req_func
                0x000000001000ff4a                ll_start_enc_rsp_func
 .text          0x000000001000ffa4      0x128 ../../libs/ble/libbtstack.a(ll_disconnect.o)
                0x000000001000ffa4                ll_stopped_ind_func
                0x000000001001001c                hci_disconnect_cmd_func
 .text          0x00000000100100cc       0x28 ../../libs/ble/libbtstack.a(ble_test.o)
                0x00000000100100cc                ble_test_init
                0x00000000100100ec                ble_get_test_var
 .text.bb.ble.test.start
                0x00000000100100f4       0x2e ../../libs/ble/libbtstack.a(ble_test.o)
                0x00000000100100f4                ble_test_start
 .text          0x0000000010010122       0x42 ../../libs/ble/libbtstack.a(ble.o)
                0x0000000010010122                ble_init
 .text.ble.var.init
                0x0000000010010164       0x52 ../../libs/ble/libbtstack.a(ble.o)
                0x0000000010010164                ble_var_init
 .text.bb.timer.ind
                0x00000000100101b6       0x24 ../../libs/ble/libbtstack.a(bb_alarm.o)
                0x00000000100101b6                bb_timer_end_ind
 .text.bb.timer.init
                0x00000000100101da       0xcc ../../libs/ble/libbtstack.a(bb_alarm.o)
                0x00000000100101da                bb_timer_init
 .text.stack.l2cap_sig
                0x00000000100102a6      0x126 ../../libs/ble/libbtstack.a(l2cap_signaling.o)
                0x00000000100102a6                l2cap_create_signaling_le
 .text          0x00000000100103cc       0xb6 ../../libs/ble/libbtstack.a(vs_proc.o)
 .text.bb.vs.fcc_ble.do
                0x0000000010010482       0x8a ../../libs/ble/libbtstack.a(vs_fcc.o)
                0x0000000010010482                vs_ble_test_do
 .text.bb.vs.fcc
                0x000000001001050c       0xc2 ../../libs/ble/libbtstack.a(vs_fcc.o)
                0x000000001001050c                vs_ble_test
                0x0000000010010510                vs_fcc_test_cmd
 .text          0x00000000100105ce        0x4 ../../libs/ble/libbtstack.a(ble_sync.o)
                0x00000000100105ce                ble_get_sync_var
 .text          0x00000000100105d2        0x8 ../../libs/ble/libbtstack.a(ble_scan.o)
                0x00000000100105d2                ble_get_scan_var
                0x00000000100105d6                ble_get_ssync_var
 .text          0x00000000100105da        0x4 ../../libs/ble/libbtstack.a(ble_init.o)
                0x00000000100105da                ble_get_init_var
 *(.rodata*)
 *fill*         0x00000000100105de        0x2 
 .rodata.str1.4
                0x00000000100105e0       0x3b server_output/obj/driver/driver_lowpwr.o
 *fill*         0x000000001001061b        0x1 
 .rodata        0x000000001001061c        0x9 server_output/obj/app/func.o
 .rodata.str1.4
                0x0000000010010625       0x3b server_output/obj/app/func.o
                                          0x4 (size before relaxing)
 .rodata.str1.4
                0x0000000010010625        0x4 server_output/obj/app/func_bt.o
 *fill*         0x0000000010010625        0x3 
 .rodata        0x0000000010010628        0xa server_output/obj/app/func_idle.o
 .rodata.str1.4
                0x0000000010010632        0x4 server_output/obj/app/func_idle.o
 *fill*         0x0000000010010632        0x2 
 .rodata        0x0000000010010634        0xc server_output/obj/app/func_lowpwr.o
 .rodata.str1.4
                0x0000000010010640        0x4 server_output/obj/app/func_lowpwr.o
 .rodata.adv    0x0000000010010640        0x7 server_output/obj/ble/ble_adv.o
                0x0000000010010640                adv_data_const
 *fill*         0x0000000010010647        0x1 
 .rodata.str1.4
                0x0000000010010648       0x2c server_output/obj/ble/ble_adv.o
 .rodata        0x0000000010010674       0x40 server_output/obj/ble/ble_profile.o
                0x0000000010010674                profile_data
 .rodata.str1.4
                0x00000000100106b4       0x12 server_output/obj/ble/ble_service.o
 *fill*         0x00000000100106c6        0x2 
 .rodata.str1.4
                0x00000000100106c8       0xeb server_output/obj/ble/ble_user_service.o
 *fill*         0x00000000100107b3        0x1 
 .rodata        0x00000000100107b4        0xd server_output/obj/bsp/bsp_sys.o
 *fill*         0x00000000100107c1        0x3 
 .rodata.str1.4
                0x00000000100107c4       0x5d server_output/obj/bsp/bsp_sys.o
                                         0x64 (size before relaxing)
 *fill*         0x0000000010010821        0x3 
 .rodata.str1.4
                0x0000000010010824       0x2c server_output/obj/main.o
 .rodata        0x0000000010010850       0x10 server_output/obj/strong_symbol.o
 .rodata.str1.4
                0x0000000010010860       0x1e server_output/obj/strong_symbol.o
 *fill*         0x000000001001087e        0x2 
 .rodata.cm_next_freepage.str1.4
                0x0000000010010880        0xc ../../libs/cpu/libplatform.a(cm.o)
 .rodata.cm_movepage.str1.4
                0x000000001001088c       0x10 ../../libs/cpu/libplatform.a(cm.o)
 .rodata.cm_release.str1.4
                0x000000001001089c       0x22 ../../libs/cpu/libplatform.a(cm.o)
 *fill*         0x00000000100108be        0x2 
 .rodata.cm_savepage.str1.4
                0x00000000100108c0       0x13 ../../libs/cpu/libplatform.a(cm.o)
 *fill*         0x00000000100108d3        0x1 
 .rodata.cm_check_loadpage.str1.4
                0x00000000100108d4       0x3b ../../libs/cpu/libplatform.a(cm.o)
 *fill*         0x000000001001090f        0x1 
 .rodata.cm_init.str1.4
                0x0000000010010910       0x30 ../../libs/cpu/libplatform.a(cm.o)
 .rodata.platform_main.str1.4
                0x0000000010010940       0x10 ../../libs/cpu/libplatform.a(main.o)
 .rodata.thread_btstack_create.str1.4
                0x0000000010010950        0xc ../../libs/cpu/libplatform.a(startup.o)
 .rodata.startup.init.str1.4
                0x000000001001095c       0x2b ../../libs/cpu/libplatform.a(startup.o)
 *fill*         0x0000000010010987        0x1 
 .rodata.pll0_vco_band_trimming.str1.4
                0x0000000010010988       0x20 ../../libs/cpu/libplatform.a(pll.o)
 .rodata.patch_init.str1.4
                0x00000000100109a8       0x1b ../../libs/cpu/libplatform.a(patch.o)
 *fill*         0x00000000100109c3        0x1 
 .rodata.sys_rst_dump.str1.4
                0x00000000100109c4       0x45 ../../libs/cpu/libplatform.a(sys.o)
 *fill*         0x0000000010010a09        0x3 
 .rodata.str1.4
                0x0000000010010a0c       0x57 ../../libs/ble/libbtstack.a(hci.o)
 *fill*         0x0000000010010a63        0x1 
 .rodata        0x0000000010010a64       0x20 ../../libs/ble/libbtstack.a(btstack_util.o)
                0x0000000010010a74                bluetooth_base_uuid
 .rodata        0x0000000010010a84       0x10 ../../libs/ble/libbtstack.a(att_db.o)
 .rodata        0x0000000010010a94       0x20 ../../libs/ble/libbtstack.a(hci_transport_dummy.o)
 .rodata.str1.4
                0x0000000010010ab4       0x19 ../../libs/ble/libbtstack.a(btstack_api.o)
 *fill*         0x0000000010010acd        0x3 
 .rodata        0x0000000010010ad0       0x21 ../../libs/ble/libbtstack.a(btstack_api.o)
 *fill*         0x0000000010010af1        0x3 
 .rodata.stack.api
                0x0000000010010af4       0x94 ../../libs/ble/libbtstack.a(btstack_api.o)
                0x0000000010010af4                btstack_basic_tbl
                0x0000000010010b04                btstack_ctl_tbl
                0x0000000010010b78                btstack_api_tbl
 .rodata.str1.4
                0x0000000010010b88        0x9 ../../libs/ble/libbtstack.a(hct_proc.o)
 *fill*         0x0000000010010b91        0x3 
 .rodata        0x0000000010010b94       0x4c ../../libs/ble/libbtstack.a(hct_proc.o)
 .rodata.le.mgr_cntl.tbl
                0x0000000010010be0       0x68 ../../libs/ble/libbtstack.a(mgr_hci.o)
                0x0000000010010be0                mgr_hci_cmd_tbl
 .rodata.str1.4
                0x0000000010010c48       0x5c ../../libs/ble/libbtstack.a(ll_cntl.o)
                                         0x60 (size before relaxing)
 .rodata.le.ll_cntl.tbl
                0x0000000010010ca4      0x408 ../../libs/ble/libbtstack.a(ll_cntl.o)
                0x0000000010010ca4                ll_cntl_pdu_tbl
 .rodata.bb.tbl
                0x00000000100110ac        0x8 ../../libs/ble/libbtstack.a(ble_con.o)
                0x00000000100110ac                connect_req_dur_tab
 .rodata.bb.tbl
                0x00000000100110b4       0x10 ../../libs/ble/libbtstack.a(bb_utils.o)
                0x00000000100110b4                null_array
 .rodata.str1.4
                0x00000000100110c4       0x21 ../../libs/ble/libbtstack.a(bb.o)
 *fill*         0x00000000100110e5        0x3 
 .rodata        0x00000000100110e8       0x24 ../../libs/ble/libbtstack.a(bb.o)
                0x00000000100110e8                bb_hook
 .rodata.stack.l2cap
                0x000000001001110c        0x2 ../../libs/ble/libbtstack.a(l2cap.o)
 *fill*         0x000000001001110e        0x2 
 .rodata.str1.4
                0x0000000010011110       0x9d ../../libs/ble/libbtstack.a(hci_cmd.o)
                                         0xb5 (size before relaxing)
 *fill*         0x00000000100111ad        0x3 
 .rodata.btstakc.hci
                0x00000000100111b0        0x8 ../../libs/ble/libbtstack.a(hci_cmd.o)
                0x00000000100111b0                hci_num_of_packet_complete
 .rodata.stack.hci_send
                0x00000000100111b8      0x108 ../../libs/ble/libbtstack.a(hci_cmd.o)
                0x00000000100111b8                hci_le_tbox_prod_test_request
                0x00000000100111c0                hci_le_set_pref_slave_latency
                0x00000000100111c8                hci_le_write_rf_path_compensation
                0x00000000100111d0                hci_le_read_rf_path_compensation
                0x00000000100111d8                hci_le_transmit_power
                0x00000000100111e0                hci_le_read_periodic_adv_list_size
                0x00000000100111e8                hci_le_set_default_phy
                0x00000000100111f0                hci_le_long_term_key_negative_reply
                0x00000000100111f8                hci_le_long_term_key_request_reply
                0x0000000010011200                hci_le_rand
                0x0000000010011208                hci_le_encrypt
                0x0000000010011210                hci_le_connection_update
                0x0000000010011218                hci_le_add_device_to_per_adv_list
                0x0000000010011220                hci_le_per_advertising_terminate_sync
                0x0000000010011228                hci_le_per_advertising_creat_sync_cancel
                0x0000000010011230                hci_le_per_advertising_creat_sync
                0x0000000010011238                hci_ext_creat_connection
                0x0000000010011240                hci_le_set_ext_scan_enable
                0x0000000010011248                hci_le_set_ext_scan_parameters
                0x0000000010011250                hci_le_set_per_advertise_enable
                0x0000000010011258                hci_le_set_per_advertising_data
                0x0000000010011260                hci_le_set_per_advertising_parameters
                0x0000000010011268                hci_le_set_ext_advertise_enable
                0x0000000010011270                hci_le_set_ext_scan_response_data
                0x0000000010011278                hci_le_set_ext_advertising_data
                0x0000000010011280                hci_le_set_ext_advertising_parameters
                0x0000000010011288                hci_le_set_advertise_enable
                0x0000000010011290                hci_le_set_scan_response_data
                0x0000000010011298                hci_le_set_advertising_data
                0x00000000100112a0                hci_le_set_advertising_parameters
                0x00000000100112a8                hci_le_set_random_address
                0x00000000100112b0                hci_le_read_buffer_size
                0x00000000100112b8                hci_disconnect
 .rodata        0x00000000100112c0       0x24 ../../libs/ble/libbtstack.a(bb_sche.o)
 .rodata.bb.tbl
                0x00000000100112e4       0x81 ../../libs/ble/libbtstack.a(rf_mate.o)
 *fill*         0x0000000010011365        0x3 
 .rodata        0x0000000010011368       0xdc ../../libs/ble/libbtstack.a(hct_msg.o)
                0x0000000010011368                hci_cmd_desc_root_tab
                0x00000000100113a8                hci_evt_desc_tab
                0x00000000100113b8                hci_evt_le_desc_tab
                0x00000000100113c8                hci_cmd_desc_tab_vs
                0x00000000100113d8                hci_cmd_desc_tab_le
                0x0000000010011424                hci_cmd_desc_tab_stat_par
                0x0000000010011424                hci_cmd_desc_tab_info_par
                0x0000000010011430                hci_cmd_desc_tab_ctrl_bb
 .rodata        0x0000000010011444       0x20 ../../libs/ble/libbtstack.a(mgr_proc.o)
 .rodata.le.ll_cntl.tbl
                0x0000000010011464      0x118 ../../libs/ble/libbtstack.a(ll_proc.o)
                0x0000000010011464                ll_msg_tbl
                0x000000001001154c                ll_hci_cmd_tbl
 .rodata.bb.tbl
                0x000000001001157c       0x1c ../../libs/ble/libbtstack.a(ble.o)
                0x000000001001157c                ble_ctl
 .rodata.str1.4
                0x0000000010011598       0x1c ../../libs/ble/libbtstack.a(l2cap_signaling.o)
                                         0x2a (size before relaxing)
 .rodata        0x00000000100115b4       0x58 ../../libs/ble/libbtstack.a(l2cap_signaling.o)
 .rodata        0x000000001001160c       0x20 ../../libs/ble/libbtstack.a(vs_proc.o)
 *(.srodata*)
 .srodata       0x000000001001162c       0x18 ../../libs/ble/libbtstack.a(mgr.o)
 .srodata       0x0000000010011644        0x5 ../../libs/ble/libbtstack.a(ll_adv.o)
 *fill*         0x0000000010011649        0x3 
 .srodata       0x000000001001164c        0x8 ../../libs/ble/libbtstack.a(hct_msg.o)
                0x000000001001164c                hci_evt_dbg_desc_tab
                0x0000000010011650                hci_cmd_desc_tab_lk_ctrl
 *(.rela*)
 .rela.text.clk_clk32k_rtc_get
                0x0000000010011654        0x0 server_output/obj/driver/driver_clk.o
 .rela.text.clk_saradc_clk_get
                0x0000000010011654        0x0 server_output/obj/driver/driver_clk.o
 .rela.text.clk_clk2m_ks_get
                0x0000000010011654        0x0 server_output/obj/driver/driver_clk.o
 .rela.text.wk0_edge_capture_config
                0x0000000010011654        0x0 server_output/obj/driver/driver_clk.o
 .rela.text.gpio_edge_capture_config
                0x0000000010011654        0x0 server_output/obj/driver/driver_clk.o
 .rela.text.gpio_edge_capture_config_custom
                0x0000000010011654        0x0 server_output/obj/driver/driver_clk.o
 .rela.text.gpio_set_reset_pin
                0x0000000010011654        0x0 server_output/obj/driver/driver_clk.o
 .rela.text.gpio_edge_pic_config
                0x0000000010011654        0x0 server_output/obj/driver/driver_clk.o
 .rela.text.hsuart_init
                0x0000000010011654        0x0 server_output/obj/driver/driver_clk.o
 .rela.text.hsuart_baud_config
                0x0000000010011654        0x0 server_output/obj/driver/driver_clk.o
 .rela.text.hsuart_pic_config
                0x0000000010011654        0x0 server_output/obj/driver/driver_clk.o
 .rela.text.keyscan_pic_config
                0x0000000010011654        0x0 server_output/obj/driver/driver_clk.o
 .rela.text.ledc_pic_config
                0x0000000010011654        0x0 server_output/obj/driver/driver_clk.o
 .rela.com_pwroff.mode2
                0x0000000010011654        0x0 server_output/obj/driver/driver_clk.o
 .rela.com_sleep.lp_wakeup
                0x0000000010011654        0x0 server_output/obj/driver/driver_clk.o
 .rela.text.lowpwr_get_wakeup_source
                0x0000000010011654        0x0 server_output/obj/driver/driver_clk.o
 .rela.text.lowpwr_wk0_wakeup_config
                0x0000000010011654        0x0 server_output/obj/driver/driver_clk.o
 .rela.text.lowpwr_gpio_wakeup_config
                0x0000000010011654        0x0 server_output/obj/driver/driver_clk.o
 .rela.text.lowpwr_gpio_wakeup_config_custom
                0x0000000010011654        0x0 server_output/obj/driver/driver_clk.o
 .rela.text.lowpwr_wakeup_config
                0x0000000010011654        0x0 server_output/obj/driver/driver_clk.o
 .rela.com_pwroff.mode1
                0x0000000010011654        0x0 server_output/obj/driver/driver_clk.o
 .rela.com_sleep.proc_do
                0x0000000010011654        0x0 server_output/obj/driver/driver_clk.o
 .rela.com_sleep.sleep
                0x0000000010011654        0x0 server_output/obj/driver/driver_clk.o
 .rela.text.tmrp_pic_config
                0x0000000010011654        0x0 server_output/obj/driver/driver_clk.o
 .rela.text.rtc_pic_config
                0x0000000010011654        0x0 server_output/obj/driver/driver_clk.o
 .rela.text.saradc_mic_init
                0x0000000010011654        0x0 server_output/obj/driver/driver_clk.o
 .rela.text.saradc_init
                0x0000000010011654        0x0 server_output/obj/driver/driver_clk.o
 .rela.text.saradc_deinit
                0x0000000010011654        0x0 server_output/obj/driver/driver_clk.o
 .rela.text.saradc_set_baud
                0x0000000010011654        0x0 server_output/obj/driver/driver_clk.o
 .rela.text.saradc_pic_config
                0x0000000010011654        0x0 server_output/obj/driver/driver_clk.o
 .rela.com_periph.saradc.get_data
                0x0000000010011654        0x0 server_output/obj/driver/driver_clk.o
 .rela.text.spi_init
                0x0000000010011654        0x0 server_output/obj/driver/driver_clk.o
 .rela.text.tmr_pic_config
                0x0000000010011654        0x0 server_output/obj/driver/driver_clk.o
 .rela.text.uart_init
                0x0000000010011654        0x0 server_output/obj/driver/driver_clk.o
 .rela.text.uart_pic_config
                0x0000000010011654        0x0 server_output/obj/driver/driver_clk.o
 .rela.text.uart_baud_config
                0x0000000010011654        0x0 server_output/obj/driver/driver_clk.o
 .rela.text.app.proc.func
                0x0000000010011654        0x0 server_output/obj/driver/driver_clk.o
 .rela.text.func
                0x0000000010011654        0x0 server_output/obj/driver/driver_clk.o
 .rela.text.app.proc.bt
                0x0000000010011654        0x0 server_output/obj/driver/driver_clk.o
 .rela.text.func.bt
                0x0000000010011654        0x0 server_output/obj/driver/driver_clk.o
 .rela.text.func.idle
                0x0000000010011654        0x0 server_output/obj/driver/driver_clk.o
 .rela.text.lowpwr_pwroff_wakeup_config
                0x0000000010011654        0x0 server_output/obj/driver/driver_clk.o
 .rela.text.lowpwr.pwroff
                0x0000000010011654        0x0 server_output/obj/driver/driver_clk.o
 .rela.text.ble_get_scan_data
                0x0000000010011654        0x0 server_output/obj/driver/driver_clk.o
 .rela.text.ble_get_adv_data
                0x0000000010011654        0x0 server_output/obj/driver/driver_clk.o
 .rela.text.ble_adv_param_init
                0x0000000010011654        0x0 server_output/obj/driver/driver_clk.o
 .rela.text.ble_client_notify_callback
                0x0000000010011654        0x0 server_output/obj/driver/driver_clk.o
 .rela.text.ble_client_event_callback
                0x0000000010011654        0x0 server_output/obj/driver/driver_clk.o
 .rela.text.ble_att_read_callback
                0x0000000010011654        0x0 server_output/obj/driver/driver_clk.o
 .rela.text.ble_client_init
                0x0000000010011654        0x0 server_output/obj/driver/driver_clk.o
 .rela.text.ble_scan_en_test
                0x0000000010011654        0x0 server_output/obj/driver/driver_clk.o
 .rela.text.ble_write_test
                0x0000000010011654        0x0 server_output/obj/driver/driver_clk.o
 .rela.text.ble_write_to_server
                0x0000000010011654        0x0 server_output/obj/driver/driver_clk.o
 .rela.text.ble_read_test
                0x0000000010011654        0x0 server_output/obj/driver/driver_clk.o
 .rela.text.ble_txpkt_init
                0x0000000010011654        0x0 server_output/obj/driver/driver_clk.o
 .rela.text.ble_periph_init
                0x0000000010011654        0x0 server_output/obj/driver/driver_clk.o
 .rela.text.ble_sm_param_init
                0x0000000010011654        0x0 server_output/obj/driver/driver_clk.o
 .rela.text.ble_scan_param_init
                0x0000000010011654        0x0 server_output/obj/driver/driver_clk.o
 .rela.text.ble_central_init
                0x0000000010011654        0x0 server_output/obj/driver/driver_clk.o
 .rela.text.bsp_ble_init
                0x0000000010011654        0x0 server_output/obj/driver/driver_clk.o
 .rela.text.ble_enter_sleep_proc
                0x0000000010011654        0x0 server_output/obj/driver/driver_clk.o
 .rela.text.ble_exit_sleep_proc
                0x0000000010011654        0x0 server_output/obj/driver/driver_clk.o
 .rela.text.app.proc.ble
                0x0000000010011654        0x0 server_output/obj/driver/driver_clk.o
 .rela.com_sleep.ble.sleep
                0x0000000010011654        0x0 server_output/obj/driver/driver_clk.o
 .rela.text.ble_service_init
                0x0000000010011654        0x0 server_output/obj/driver/driver_clk.o
 .rela.text.ble_event_callback
                0x0000000010011654        0x0 server_output/obj/driver/driver_clk.o
 .rela.text.service_read_callback
                0x0000000010011654        0x0 server_output/obj/driver/driver_clk.o
 .rela.text.service_write_callback
                0x0000000010011654        0x0 server_output/obj/driver/driver_clk.o
 .rela.text.service_notify_event
                0x0000000010011654        0x0 server_output/obj/driver/driver_clk.o
 .rela.text.ble_user_service_init
                0x0000000010011654        0x0 server_output/obj/driver/driver_clk.o
 .rela.text.bsp.param
                0x0000000010011654        0x0 server_output/obj/driver/driver_clk.o
 .rela.text.bsp.param.fota
                0x0000000010011654        0x0 server_output/obj/driver/driver_clk.o
 .rela.text.sys_ram_info_dump
                0x0000000010011654        0x0 server_output/obj/driver/driver_clk.o
 .rela.com_text.timer
                0x0000000010011654        0x0 server_output/obj/driver/driver_clk.o
 .rela.text.bsp.sys.init
                0x0000000010011654        0x0 server_output/obj/driver/driver_clk.o
 .rela.text.bsp_periph_init
                0x0000000010011654        0x0 server_output/obj/driver/driver_clk.o
 .rela.text.bsp_uart_debug_init
                0x0000000010011654        0x0 server_output/obj/driver/driver_clk.o
 .rela.text.startup.main
                0x0000000010011654        0x0 server_output/obj/driver/driver_clk.o
 .rela.text.ble_get_local_bd_addr
                0x0000000010011654        0x0 server_output/obj/driver/driver_clk.o
 .rela.text.bt_rf_get_param
                0x0000000010011654        0x0 server_output/obj/driver/driver_clk.o
 .rela.com_sleep.rf.txpwr
                0x0000000010011654        0x0 server_output/obj/driver/driver_clk.o
 .rela.text.ble_get_link_info
                0x0000000010011654        0x0 server_output/obj/driver/driver_clk.o
 .rela.text.ble_put_link_info
                0x0000000010011654        0x0 server_output/obj/driver/driver_clk.o
 .rela.text.thread_create_callback
                0x0000000010011654        0x0 server_output/obj/driver/driver_clk.o
 .rela.text.xosc_get_xcfg
                0x0000000010011654        0x0 server_output/obj/driver/driver_clk.o
 .rela.text.param_xosc_write
                0x0000000010011654        0x0 server_output/obj/driver/driver_clk.o
 .rela.com_text.spiflash
                0x0000000010011654        0x0 server_output/obj/driver/driver_clk.o
 .rela.text.audio_mic_power
                0x0000000010011654        0x0 server_output/obj/driver/driver_clk.o
 .rela.text.audio_mic_analog_init
                0x0000000010011654        0x0 server_output/obj/driver/driver_clk.o
 .rela.text.audio_micdc_trim_step0_init
                0x0000000010011654        0x0 server_output/obj/driver/driver_clk.o
 .rela.text.audio_micdc_trim_step0_waiting
                0x0000000010011654        0x0 server_output/obj/driver/driver_clk.o
 .rela.text.audio_micdc_trim_step0_run
                0x0000000010011654        0x0 server_output/obj/driver/driver_clk.o
 .rela.text.audio_micdc_trim_step1_init
                0x0000000010011654        0x0 server_output/obj/driver/driver_clk.o
 .rela.text.audio_micdc_trim_step1_waiting
                0x0000000010011654        0x0 server_output/obj/driver/driver_clk.o
 .rela.text.audio_micdc_trim_step1_run
                0x0000000010011654        0x0 server_output/obj/driver/driver_clk.o
 .rela.text.micin_config
                0x0000000010011654        0x0 server_output/obj/driver/driver_clk.o
 .rela.text.audio_micin_trim_step0_init
                0x0000000010011654        0x0 server_output/obj/driver/driver_clk.o
 .rela.text.audio_micin_trim_step0_waiting
                0x0000000010011654        0x0 server_output/obj/driver/driver_clk.o
 .rela.text.audio_micin_trim_step1_init
                0x0000000010011654        0x0 server_output/obj/driver/driver_clk.o
 .rela.text.audio_micin_trim_step2_run
                0x0000000010011654        0x0 server_output/obj/driver/driver_clk.o
 .rela.text.audio_mic_trim_proc
                0x0000000010011654        0x0 server_output/obj/driver/driver_clk.o
 .rela.text.cm_loadpage
                0x0000000010011654        0x0 server_output/obj/driver/driver_clk.o
 .rela.text.cm_next_freepage
                0x0000000010011654        0x0 server_output/obj/driver/driver_clk.o
 .rela.text.cm_factory
                0x0000000010011654        0x0 server_output/obj/driver/driver_clk.o
 .rela.text.cm_writepage
                0x0000000010011654        0x0 server_output/obj/driver/driver_clk.o
 .rela.text.cm_movepage
                0x0000000010011654        0x0 server_output/obj/driver/driver_clk.o
 .rela.text.cm_erase
                0x0000000010011654        0x0 server_output/obj/driver/driver_clk.o
 .rela.text.cm_release
                0x0000000010011654        0x0 server_output/obj/driver/driver_clk.o
 .rela.text.cm_savepage
                0x0000000010011654        0x0 server_output/obj/driver/driver_clk.o
 .rela.text.cm_check_loadpage
                0x0000000010011654        0x0 server_output/obj/driver/driver_clk.o
 .rela.text.cm_move_allpages
                0x0000000010011654        0x0 server_output/obj/driver/driver_clk.o
 .rela.text.cm_sync
                0x0000000010011654        0x0 server_output/obj/driver/driver_clk.o
 .rela.text.cm_release_all
                0x0000000010011654        0x0 server_output/obj/driver/driver_clk.o
 .rela.text.cm_read
                0x0000000010011654        0x0 server_output/obj/driver/driver_clk.o
 .rela.text.cm_read8
                0x0000000010011654        0x0 server_output/obj/driver/driver_clk.o
 .rela.text.cm_read16
                0x0000000010011654        0x0 server_output/obj/driver/driver_clk.o
 .rela.text.cm_read32
                0x0000000010011654        0x0 server_output/obj/driver/driver_clk.o
 .rela.text.cm_write
                0x0000000010011654        0x0 server_output/obj/driver/driver_clk.o
 .rela.text.cm_write8
                0x0000000010011654        0x0 server_output/obj/driver/driver_clk.o
 .rela.text.cm_write16
                0x0000000010011654        0x0 server_output/obj/driver/driver_clk.o
 .rela.text.cm_write32
                0x0000000010011654        0x0 server_output/obj/driver/driver_clk.o
 .rela.text.cm_clear
                0x0000000010011654        0x0 server_output/obj/driver/driver_clk.o
 .rela.text.cm_init
                0x0000000010011654        0x0 server_output/obj/driver/driver_clk.o
 .rela.com_text.spiflash.id
                0x0000000010011654        0x0 server_output/obj/driver/driver_clk.o
 .rela.text.xcfg_init
                0x0000000010011654        0x0 server_output/obj/driver/driver_clk.o
 .rela.com_text.delay
                0x0000000010011654        0x0 server_output/obj/driver/driver_clk.o
 .rela.text.platform_main
                0x0000000010011654        0x0 server_output/obj/driver/driver_clk.o
 .rela.text.main_startup
                0x0000000010011654        0x0 server_output/obj/driver/driver_clk.o
 .rela.com_text.irq
                0x0000000010011654        0x0 server_output/obj/driver/driver_clk.o
 .rela.com_text.irq.wpt
                0x0000000010011654        0x0 server_output/obj/driver/driver_clk.o
 .rela.text.sys_irq_init
                0x0000000010011654        0x0 server_output/obj/driver/driver_clk.o
 .rela.text.soft_irq_init
                0x0000000010011654        0x0 server_output/obj/driver/driver_clk.o
 .rela.text.bthw_irq_init
                0x0000000010011654        0x0 server_output/obj/driver/driver_clk.o
 .rela.text.watch_point_set
                0x0000000010011654        0x0 server_output/obj/driver/driver_clk.o
 .rela.text.usb_irq_init
                0x0000000010011654        0x0 server_output/obj/driver/driver_clk.o
 .rela.text.sys_timer_init
                0x0000000010011654        0x0 server_output/obj/driver/driver_clk.o
 .rela.text.thread_timer_create
                0x0000000010011654        0x0 server_output/obj/driver/driver_clk.o
 .rela.text.thread_btstack_create
                0x0000000010011654        0x0 server_output/obj/driver/driver_clk.o
 .rela.text.thread_driver_create
                0x0000000010011654        0x0 server_output/obj/driver/driver_clk.o
 .rela.text.thread_main_entry
                0x0000000010011654        0x0 server_output/obj/driver/driver_clk.o
 .rela.text.startup.init
                0x0000000010011654        0x0 server_output/obj/driver/driver_clk.o
 .rela.com_text.thread.driver.usb
                0x0000000010011654        0x0 server_output/obj/driver/driver_clk.o
 .rela.com_text.thread.driver.vs
                0x0000000010011654        0x0 server_output/obj/driver/driver_clk.o
 .rela.com_text.thread.driver.enter
                0x0000000010011654        0x0 server_output/obj/driver/driver_clk.o
 .rela.text.pll0_vco_band_trimming
                0x0000000010011654        0x0 server_output/obj/driver/driver_clk.o
 .rela.text.pll0_init
                0x0000000010011654        0x0 server_output/obj/driver/driver_clk.o
 .rela.text.pll_ext_init
                0x0000000010011654        0x0 server_output/obj/driver/driver_clk.o
 .rela.com_text.trim.vddio_get
                0x0000000010011654        0x0 server_output/obj/driver/driver_clk.o
 .rela.com_text.trim.vddio_set
                0x0000000010011654        0x0 server_output/obj/driver/driver_clk.o
 .rela.com_text.trim.core_get
                0x0000000010011654        0x0 server_output/obj/driver/driver_clk.o
 .rela.com_text.trim.core_set
                0x0000000010011654        0x0 server_output/obj/driver/driver_clk.o
 .rela.com_text.trim.lvd_get
                0x0000000010011654        0x0 server_output/obj/driver/driver_clk.o
 .rela.com_text.trim.lvd_set
                0x0000000010011654        0x0 server_output/obj/driver/driver_clk.o
 .rela.text.pmu_voltage_configure
                0x0000000010011654        0x0 server_output/obj/driver/driver_clk.o
 .rela.text.pmu_init
                0x0000000010011654        0x0 server_output/obj/driver/driver_clk.o
 .rela.reset    0x0000000010011654        0x0 server_output/obj/driver/driver_clk.o
 .rela.vector   0x0000000010011654        0x0 server_output/obj/driver/driver_clk.o
 .rela.text.lock_code_usbdev
                0x0000000010011654        0x0 server_output/obj/driver/driver_clk.o
 .rela.text.patch_init
                0x0000000010011654        0x0 server_output/obj/driver/driver_clk.o
 .rela.com_sleep.lp.sleep
                0x0000000010011654        0x0 server_output/obj/driver/driver_clk.o
 .rela.text.rc2m_clk_nhz_cal
                0x0000000010011654        0x0 server_output/obj/driver/driver_clk.o
 .rela.text.sys_clk
                0x0000000010011654        0x0 server_output/obj/driver/driver_clk.o
 .rela.com_text.stack.api
                0x0000000010011654        0x0 server_output/obj/driver/driver_clk.o
 .rela.com_text.stack.run_loop
                0x0000000010011654        0x0 server_output/obj/driver/driver_clk.o
 .rela.text     0x0000000010011654        0x0 server_output/obj/driver/driver_clk.o
 .rela.text.stack.send.txpkt
                0x0000000010011654        0x0 server_output/obj/driver/driver_clk.o
 .rela.text.txpkt.flush
                0x0000000010011654        0x0 server_output/obj/driver/driver_clk.o
 .rela.text.stack.hci_init
                0x0000000010011654        0x0 server_output/obj/driver/driver_clk.o
 .rela.text.stack.setup
                0x0000000010011654        0x0 server_output/obj/driver/driver_clk.o
 .rela.text.stack.hci
                0x0000000010011654        0x0 server_output/obj/driver/driver_clk.o
 .rela.text.stack.hci.conn
                0x0000000010011654        0x0 server_output/obj/driver/driver_clk.o
 .rela.text.ble.hci
                0x0000000010011654        0x0 server_output/obj/driver/driver_clk.o
 .rela.text.stack.hci_send
                0x0000000010011654        0x0 server_output/obj/driver/driver_clk.o
 .rela.text.stack.hci.run
                0x0000000010011654        0x0 server_output/obj/driver/driver_clk.o
 .rela.text.stack.send.hci
                0x0000000010011654        0x0 server_output/obj/driver/driver_clk.o
 .rela.com_text.stack.hci_recv
                0x0000000010011654        0x0 server_output/obj/driver/driver_clk.o
 .rela.text.sm.aes
                0x0000000010011654        0x0 server_output/obj/driver/driver_clk.o
 .rela.text.sm.rau_run
                0x0000000010011654        0x0 server_output/obj/driver/driver_clk.o
 .rela.text.gap.rau.update
                0x0000000010011654        0x0 server_output/obj/driver/driver_clk.o
 .rela.text.sm.request
                0x0000000010011654        0x0 server_output/obj/driver/driver_clk.o
 .rela.text.stack.ble.sm
                0x0000000010011654        0x0 server_output/obj/driver/driver_clk.o
 .rela.text.gap.rau.mode
                0x0000000010011654        0x0 server_output/obj/driver/driver_clk.o
 .rela.text.sm.run
                0x0000000010011654        0x0 server_output/obj/driver/driver_clk.o
 .rela.text.sm.pdu
                0x0000000010011654        0x0 server_output/obj/driver/driver_clk.o
 .rela.text.sm.event
                0x0000000010011654        0x0 server_output/obj/driver/driver_clk.o
 .rela.text.gap.rau_set
                0x0000000010011654        0x0 server_output/obj/driver/driver_clk.o
 .rela.text.sm.delete_bonding
                0x0000000010011654        0x0 server_output/obj/driver/driver_clk.o
 .rela.text.le.db.get
                0x0000000010011654        0x0 server_output/obj/driver/driver_clk.o
 .rela.text.le.db.set
                0x0000000010011654        0x0 server_output/obj/driver/driver_clk.o
 .rela.text.le.db.read
                0x0000000010011654        0x0 server_output/obj/driver/driver_clk.o
 .rela.text.le.db.init
                0x0000000010011654        0x0 server_output/obj/driver/driver_clk.o
 .rela.text.le.db.remove
                0x0000000010011654        0x0 server_output/obj/driver/driver_clk.o
 .rela.text.le.db.remove_all
                0x0000000010011654        0x0 server_output/obj/driver/driver_clk.o
 .rela.text.le.db.add
                0x0000000010011654        0x0 server_output/obj/driver/driver_clk.o
 .rela.text.le.db
                0x0000000010011654        0x0 server_output/obj/driver/driver_clk.o
 .rela.text.le.db.dump
                0x0000000010011654        0x0 server_output/obj/driver/driver_clk.o
 .rela.text.stack.send.ntf_do
                0x0000000010011654        0x0 server_output/obj/driver/driver_clk.o
 .rela.text.stack.send.ntf
                0x0000000010011654        0x0 server_output/obj/driver/driver_clk.o
 .rela.text.ble.indicate
                0x0000000010011654        0x0 server_output/obj/driver/driver_clk.o
 .rela.text.stack.send.server
                0x0000000010011654        0x0 server_output/obj/driver/driver_clk.o
 .rela.text.client.request_can_send
                0x0000000010011654        0x0 server_output/obj/driver/driver_clk.o
 .rela.text.client.write_req
                0x0000000010011654        0x0 server_output/obj/driver/driver_clk.o
 .rela.text.sm.client
                0x0000000010011654        0x0 server_output/obj/driver/driver_clk.o
 .rela.text.stack.send.client
                0x0000000010011654        0x0 server_output/obj/driver/driver_clk.o
 .rela.text.sm.server
                0x0000000010011654        0x0 server_output/obj/driver/driver_clk.o
 .rela.text.server.init
                0x0000000010011654        0x0 server_output/obj/driver/driver_clk.o
 .rela.text.server.packet_handler
                0x0000000010011654        0x0 server_output/obj/driver/driver_clk.o
 .rela.text.att.event_handler
                0x0000000010011654        0x0 server_output/obj/driver/driver_clk.o
 .rela.text.server.indicate
                0x0000000010011654        0x0 server_output/obj/driver/driver_clk.o
 .rela.text.att.register_client
                0x0000000010011654        0x0 server_output/obj/driver/driver_clk.o
 .rela.text.att.register_server
                0x0000000010011654        0x0 server_output/obj/driver/driver_clk.o
 .rela.text.att.dispatch_server
                0x0000000010011654        0x0 server_output/obj/driver/driver_clk.o
 .rela.text.att.dispatch_client
                0x0000000010011654        0x0 server_output/obj/driver/driver_clk.o
 .rela.text.stack.send.dispatch_server
                0x0000000010011654        0x0 server_output/obj/driver/driver_clk.o
 .rela.text.att.mtu_request
                0x0000000010011654        0x0 server_output/obj/driver/driver_clk.o
 .rela.text.stack.h3c
                0x0000000010011654        0x0 server_output/obj/driver/driver_clk.o
 .rela.com_text.stack.h3c
                0x0000000010011654        0x0 server_output/obj/driver/driver_clk.o
 .rela.com_text.stack.util
                0x0000000010011654        0x0 server_output/obj/driver/driver_clk.o
 .rela.text.btstack.hci.h3c.init
                0x0000000010011654        0x0 server_output/obj/driver/driver_clk.o
 .rela.rodata   0x0000000010011654        0x0 server_output/obj/driver/driver_clk.o
 .rela.com_text.stack.uart_isr
                0x0000000010011654        0x0 server_output/obj/driver/driver_clk.o
 .rela.text.stack.hal
                0x0000000010011654        0x0 server_output/obj/driver/driver_clk.o
 .rela.text.stack.sleep
                0x0000000010011654        0x0 server_output/obj/driver/driver_clk.o
 .rela.text.stack.api
                0x0000000010011654        0x0 server_output/obj/driver/driver_clk.o
 .rela.com_text.ret.bb.sleep
                0x0000000010011654        0x0 server_output/obj/driver/driver_clk.o
 .rela.rodata.stack.api
                0x0000000010011654        0x0 server_output/obj/driver/driver_clk.o
 .rela.text.ble.api.conn.update
                0x0000000010011654        0x0 server_output/obj/driver/driver_clk.o
 .rela.text.ble.api.max_mtu
                0x0000000010011654        0x0 server_output/obj/driver/driver_clk.o
 .rela.text.ble.api.adv_data.set
                0x0000000010011654        0x0 server_output/obj/driver/driver_clk.o
 .rela.text.ble.api.scan
                0x0000000010011654        0x0 server_output/obj/driver/driver_clk.o
 .rela.text.ble.api.adv_interval.set
                0x0000000010011654        0x0 server_output/obj/driver/driver_clk.o
 .rela.text.ble.api.adv_param.set
                0x0000000010011654        0x0 server_output/obj/driver/driver_clk.o
 .rela.text.ble.api.regist
                0x0000000010011654        0x0 server_output/obj/driver/driver_clk.o
 .rela.text.ble.set_static_addr
                0x0000000010011654        0x0 server_output/obj/driver/driver_clk.o
 .rela.text.ble.single_mode
                0x0000000010011654        0x0 server_output/obj/driver/driver_clk.o
 .rela.text.rf.tx_tone
                0x0000000010011654        0x0 server_output/obj/driver/driver_clk.o
 .rela.text.le.mgr
                0x0000000010011654        0x0 server_output/obj/driver/driver_clk.o
 .rela.rodata.le.mgr_cntl.tbl
                0x0000000010011654        0x0 server_output/obj/driver/driver_clk.o
 .rela.text.le.ll_adv.con
                0x0000000010011654        0x0 server_output/obj/driver/driver_clk.o
 .rela.text.le.ll_adv
                0x0000000010011654        0x0 server_output/obj/driver/driver_clk.o
 .rela.text.le.ll_cntl.pdu
                0x0000000010011654        0x0 server_output/obj/driver/driver_clk.o
 .rela.text.le.ll_cntl.send
                0x0000000010011654        0x0 server_output/obj/driver/driver_clk.o
 .rela.rodata.le.ll_cntl.tbl
                0x0000000010011654        0x0 server_output/obj/driver/driver_clk.o
 .rela.text.le.ll_cntl
                0x0000000010011654        0x0 server_output/obj/driver/driver_clk.o
 .rela.text.le.ll_cntl.start
                0x0000000010011654        0x0 server_output/obj/driver/driver_clk.o
 .rela.com_text.ble.isr.con.end
                0x0000000010011654        0x0 server_output/obj/driver/driver_clk.o
 .rela.com_text.ble.isr.con.rx_desc
                0x0000000010011654        0x0 server_output/obj/driver/driver_clk.o
 .rela.com_text.bb.buf
                0x0000000010011654        0x0 server_output/obj/driver/driver_clk.o
 .rela.text.le.stack
                0x0000000010011654        0x0 server_output/obj/driver/driver_clk.o
 .rela.com_text.bb.isr
                0x0000000010011654        0x0 server_output/obj/driver/driver_clk.o
 .rela.com_sleep.bb
                0x0000000010011654        0x0 server_output/obj/driver/driver_clk.o
 .rela.text.bb.aes
                0x0000000010011654        0x0 server_output/obj/driver/driver_clk.o
 .rela.text.stack.ble.setup
                0x0000000010011654        0x0 server_output/obj/driver/driver_clk.o
 .rela.com_sleep.rfphy
                0x0000000010011654        0x0 server_output/obj/driver/driver_clk.o
 .rela.text.rfphy.other
                0x0000000010011654        0x0 server_output/obj/driver/driver_clk.o
 .rela.com_sleep.rfphy.init
                0x0000000010011654        0x0 server_output/obj/driver/driver_clk.o
 .rela.com_text.ble.isr
                0x0000000010011654        0x0 server_output/obj/driver/driver_clk.o
 .rela.com_rodata.bb.tbl
                0x0000000010011654        0x0 server_output/obj/driver/driver_clk.o
 .rela.text.ble.var.init
                0x0000000010011654        0x0 server_output/obj/driver/driver_clk.o
 .rela.text.bb.vs.fcc
                0x0000000010011654        0x0 server_output/obj/driver/driver_clk.o
                0x0000000010011654        0x4 LONG 0x0
                0x0000000010011800                . = ALIGN (0x200)
 *fill*         0x0000000010011658      0x1a8 

.stack          0x0000000000010800      0x400
                0x0000000000010800                __irq_stack_start = .
                0x0000000000000400                . = 0x400
 *fill*         0x0000000000010800      0x400 
                0x0000000000010c00                __irq_stack = .
                0x0000000000000400                __irq_stack_size = (__irq_stack - __irq_stack_start)
                0x0000000000010600                __bank_size = SIZEOF (.flash)
                0x0000000010000200                __comm_lma = LOADADDR (.comm)
                0x0000000000000d00                __comm_size = SIZEOF (.comm)
                0x0000000010000f00                __pdn_comm_lma = LOADADDR (.pdn_comm)
                0x0000000000000200                __pdn_comm_size = SIZEOF (.pdn_comm)
LOAD ../../libs/cpu/libplatform.a
LOAD ../../libs/cpu/libm.a
LOAD ../../libs/cpu/libc.a
LOAD ../../libs/cpu/libgcc.a
LOAD ../../libs/ble/libbtstack.a
OUTPUT(server_output/bin/app.rv32 elf32-littleriscv)

.comment        0x0000000000000000       0x23
 .comment       0x0000000000000000       0x11 server_output/obj/driver/driver_clk.o
                                         0x12 (size before relaxing)
 .comment       0x0000000000000011       0x12 server_output/obj/driver/driver_gpio.o
 .comment       0x0000000000000011       0x12 server_output/obj/driver/driver_lowpwr.o
 .comment       0x0000000000000011       0x12 server_output/obj/driver/driver_saradc.o
 .comment       0x0000000000000011       0x12 server_output/obj/driver/driver_uart.o
 .comment       0x0000000000000011       0x12 server_output/obj/app/func.o
 .comment       0x0000000000000011       0x12 server_output/obj/app/func_bt.o
 .comment       0x0000000000000011       0x12 server_output/obj/app/func_idle.o
 .comment       0x0000000000000011       0x12 server_output/obj/app/func_lowpwr.o
 .comment       0x0000000000000011       0x12 server_output/obj/ble/ble_adv.o
 .comment       0x0000000000000011       0x12 server_output/obj/ble/ble_init.o
 .comment       0x0000000000000011       0x12 server_output/obj/ble/ble_proc.o
 .comment       0x0000000000000011       0x12 server_output/obj/ble/ble_profile.o
 .comment       0x0000000000000011       0x12 server_output/obj/ble/ble_service.o
 .comment       0x0000000000000011       0x12 server_output/obj/ble/ble_user_service.o
 .comment       0x0000000000000011       0x12 server_output/obj/bsp/bsp_param.o
 .comment       0x0000000000000011       0x12 server_output/obj/bsp/bsp_sys.o
 .comment       0x0000000000000011       0x12 server_output/obj/bsp/bsp_uart_debug.o
 .comment       0x0000000000000011       0x12 server_output/obj/prod_test/prod_test.o
 .comment       0x0000000000000011       0x12 server_output/obj/main.o
 .comment       0x0000000000000011       0x12 server_output/obj/strong_ble.o
 .comment       0x0000000000000011       0x12 server_output/obj/strong_symbol.o
 .comment       0x0000000000000011       0x12 ../../libs/cpu/libplatform.a(cm.o)
                                         0x13 (size before relaxing)
 .comment       0x0000000000000023       0x13 ../../libs/cpu/libplatform.a(os_flash.o)
 .comment       0x0000000000000023       0x13 ../../libs/cpu/libplatform.a(xcfg.o)
 .comment       0x0000000000000023       0x13 ../../libs/cpu/libplatform.a(main.o)
 .comment       0x0000000000000023       0x13 ../../libs/cpu/libplatform.a(interrupt.o)
 .comment       0x0000000000000023       0x13 ../../libs/cpu/libplatform.a(startup.o)
 .comment       0x0000000000000023       0x13 ../../libs/cpu/libplatform.a(sys_hook.o)
 .comment       0x0000000000000023       0x13 ../../libs/cpu/libplatform.a(pll.o)
 .comment       0x0000000000000023       0x13 ../../libs/cpu/libplatform.a(pmu.o)
 .comment       0x0000000000000023       0x13 ../../libs/cpu/libplatform.a(spiflash.o)
 .comment       0x0000000000000023       0x13 ../../libs/cpu/libplatform.a(debug.o)
 .comment       0x0000000000000023       0x13 ../../libs/cpu/libplatform.a(fot_pack.o)
 .comment       0x0000000000000023       0x13 ../../libs/cpu/libplatform.a(lock.o)
 .comment       0x0000000000000023       0x13 ../../libs/cpu/libplatform.a(patch.o)
 .comment       0x0000000000000023       0x13 ../../libs/cpu/libplatform.a(sys.o)
 .comment       0x0000000000000023       0x13 ../../libs/cpu/libplatform.a(sys_clk.o)
 .comment       0x0000000000000023       0x13 ../../libs/cpu/libplatform.a(voltage_trim.o)
 .comment       0x0000000000000023       0x13 ../../libs/cpu/libplatform.a(weak_symbol.o)
 .comment       0x0000000000000023       0x13 ../../libs/cpu/libplatform.a(bt.o)
 .comment       0x0000000000000023       0x13 ../../libs/cpu/libplatform.a(freq_det.o)
 .comment       0x0000000000000023       0x13 ../../libs/ble/libbtstack.a(txpkt.o)
 .comment       0x0000000000000023       0x13 ../../libs/ble/libbtstack.a(hci.o)
 .comment       0x0000000000000023       0x13 ../../libs/ble/libbtstack.a(btstack_util.o)
 .comment       0x0000000000000023       0x13 ../../libs/ble/libbtstack.a(sm.o)
 .comment       0x0000000000000023       0x13 ../../libs/ble/libbtstack.a(le_device_db_memory.o)
 .comment       0x0000000000000023       0x13 ../../libs/ble/libbtstack.a(gatt_server.o)
 .comment       0x0000000000000023       0x13 ../../libs/ble/libbtstack.a(gatt_client.o)
 .comment       0x0000000000000023       0x13 ../../libs/ble/libbtstack.a(att_server.o)
 .comment       0x0000000000000023       0x13 ../../libs/ble/libbtstack.a(att_dispatch.o)
 .comment       0x0000000000000023       0x13 ../../libs/ble/libbtstack.a(att_db.o)
 .comment       0x0000000000000023       0x13 ../../libs/ble/libbtstack.a(hci_transport_h3_controller.o)
 .comment       0x0000000000000023       0x13 ../../libs/ble/libbtstack.a(hci_transport_dummy.o)
 .comment       0x0000000000000023       0x13 ../../libs/ble/libbtstack.a(btstack_hal.o)
 .comment       0x0000000000000023       0x13 ../../libs/ble/libbtstack.a(btstack_api.o)
 .comment       0x0000000000000023       0x13 ../../libs/ble/libbtstack.a(ble_api.o)
 .comment       0x0000000000000023       0x13 ../../libs/ble/libbtstack.a(txpkt.o)
 .comment       0x0000000000000023       0x13 ../../libs/ble/libbtstack.a(platform.o)
 .comment       0x0000000000000023       0x13 ../../libs/ble/libbtstack.a(rf.o)
 .comment       0x0000000000000023       0x13 ../../libs/ble/libbtstack.a(hct_proc.o)
 .comment       0x0000000000000023       0x13 ../../libs/ble/libbtstack.a(hct.o)
 .comment       0x0000000000000023       0x13 ../../libs/ble/libbtstack.a(mgr_hci.o)
 .comment       0x0000000000000023       0x13 ../../libs/ble/libbtstack.a(mgr.o)
 .comment       0x0000000000000023       0x13 ../../libs/ble/libbtstack.a(ll_adv.o)
 .comment       0x0000000000000023       0x13 ../../libs/ble/libbtstack.a(ll_con_upd.o)
 .comment       0x0000000000000023       0x13 ../../libs/ble/libbtstack.a(ll_cntl.o)
 .comment       0x0000000000000023       0x13 ../../libs/ble/libbtstack.a(ll_clk_acc.o)
 .comment       0x0000000000000023       0x13 ../../libs/ble/libbtstack.a(ll_chmap_upd.o)
 .comment       0x0000000000000023       0x13 ../../libs/ble/libbtstack.a(ll.o)
 .comment       0x0000000000000023       0x13 ../../libs/ble/libbtstack.a(ble_hal.o)
 .comment       0x0000000000000023       0x13 ../../libs/ble/libbtstack.a(ble_con.o)
 .comment       0x0000000000000023       0x13 ../../libs/ble/libbtstack.a(ble_adv.o)
 .comment       0x0000000000000023       0x13 ../../libs/ble/libbtstack.a(ble_buf.o)
 .comment       0x0000000000000023       0x13 ../../libs/ble/libbtstack.a(bb_utils.o)
 .comment       0x0000000000000023       0x13 ../../libs/ble/libbtstack.a(bb_int.o)
 .comment       0x0000000000000023       0x13 ../../libs/ble/libbtstack.a(bb.o)
 .comment       0x0000000000000023       0x13 ../../libs/ble/libbtstack.a(extern_ble.o)
 .comment       0x0000000000000023       0x13 ../../libs/ble/libbtstack.a(l2cap.o)
 .comment       0x0000000000000023       0x13 ../../libs/ble/libbtstack.a(hci_dump.o)
 .comment       0x0000000000000023       0x13 ../../libs/ble/libbtstack.a(hci_cmd.o)
 .comment       0x0000000000000023       0x13 ../../libs/ble/libbtstack.a(btstack_run_loop.o)
 .comment       0x0000000000000023       0x13 ../../libs/ble/libbtstack.a(btstack_main.o)
 .comment       0x0000000000000023       0x13 ../../libs/ble/libbtstack.a(nanos.o)
 .comment       0x0000000000000023       0x13 ../../libs/ble/libbtstack.a(bb_sche.o)
 .comment       0x0000000000000023       0x13 ../../libs/ble/libbtstack.a(patch.o)
 .comment       0x0000000000000023       0x13 ../../libs/ble/libbtstack.a(bb_dbg.o)
 .comment       0x0000000000000023       0x13 ../../libs/ble/libbtstack.a(bb_clk.o)
 .comment       0x0000000000000023       0x13 ../../libs/ble/libbtstack.a(aes.o)
 .comment       0x0000000000000023       0x13 ../../libs/ble/libbtstack.a(extern.o)
 .comment       0x0000000000000023       0x13 ../../libs/ble/libbtstack.a(vs.o)
 .comment       0x0000000000000023       0x13 ../../libs/ble/libbtstack.a(rf_mate.o)
 .comment       0x0000000000000023       0x13 ../../libs/ble/libbtstack.a(ble_hook.o)
 .comment       0x0000000000000023       0x13 ../../libs/ble/libbtstack.a(adv_hook.o)
 .comment       0x0000000000000023       0x13 ../../libs/ble/libbtstack.a(hct_msg.o)
 .comment       0x0000000000000023       0x13 ../../libs/ble/libbtstack.a(mgr_test.o)
 .comment       0x0000000000000023       0x13 ../../libs/ble/libbtstack.a(mgr_proc.o)
 .comment       0x0000000000000023       0x13 ../../libs/ble/libbtstack.a(ll_version.o)
 .comment       0x0000000000000023       0x13 ../../libs/ble/libbtstack.a(ll_tbox_prod_test.o)
 .comment       0x0000000000000023       0x13 ../../libs/ble/libbtstack.a(ll_tbox_freq_cal.o)
 .comment       0x0000000000000023       0x13 ../../libs/ble/libbtstack.a(ll_tbox_feature.o)
 .comment       0x0000000000000023       0x13 ../../libs/ble/libbtstack.a(ll_proc.o)
 .comment       0x0000000000000023       0x13 ../../libs/ble/libbtstack.a(ll_phy_upd.o)
 .comment       0x0000000000000023       0x13 ../../libs/ble/libbtstack.a(ll_length.o)
 .comment       0x0000000000000023       0x13 ../../libs/ble/libbtstack.a(ll_feature.o)
 .comment       0x0000000000000023       0x13 ../../libs/ble/libbtstack.a(ll_encrypt.o)
 .comment       0x0000000000000023       0x13 ../../libs/ble/libbtstack.a(ll_disconnect.o)
 .comment       0x0000000000000023       0x13 ../../libs/ble/libbtstack.a(ble_test.o)
 .comment       0x0000000000000023       0x13 ../../libs/ble/libbtstack.a(ble.o)
 .comment       0x0000000000000023       0x13 ../../libs/ble/libbtstack.a(bb_alarm.o)
 .comment       0x0000000000000023       0x13 ../../libs/ble/libbtstack.a(l2cap_signaling.o)
 .comment       0x0000000000000023       0x13 ../../libs/ble/libbtstack.a(vs_proc.o)
 .comment       0x0000000000000023       0x13 ../../libs/ble/libbtstack.a(vs_fcc.o)
 .comment       0x0000000000000023       0x13 ../../libs/ble/libbtstack.a(ble_sync.o)
 .comment       0x0000000000000023       0x13 ../../libs/ble/libbtstack.a(ble_scan.o)
 .comment       0x0000000000000023       0x13 ../../libs/ble/libbtstack.a(ble_init.o)

.riscv.attributes
                0x0000000000000000     0x12f0
 .riscv.attributes
                0x0000000000000000       0x32 ../../libs/cpu/libplatform.a(cm.o)
 .riscv.attributes
                0x0000000000000032       0x32 ../../libs/cpu/libplatform.a(os_flash.o)
 .riscv.attributes
                0x0000000000000064       0x32 ../../libs/cpu/libplatform.a(xcfg.o)
 .riscv.attributes
                0x0000000000000096       0x32 ../../libs/cpu/libplatform.a(main.o)
 .riscv.attributes
                0x00000000000000c8       0x32 ../../libs/cpu/libplatform.a(interrupt.o)
 .riscv.attributes
                0x00000000000000fa       0x32 ../../libs/cpu/libplatform.a(startup.o)
 .riscv.attributes
                0x000000000000012c       0x32 ../../libs/cpu/libplatform.a(sys_hook.o)
 .riscv.attributes
                0x000000000000015e       0x32 ../../libs/cpu/libplatform.a(pll.o)
 .riscv.attributes
                0x0000000000000190       0x32 ../../libs/cpu/libplatform.a(pmu.o)
 .riscv.attributes
                0x00000000000001c2       0x34 ../../libs/cpu/libplatform.a(reset.o)
 .riscv.attributes
                0x00000000000001f6       0x32 ../../libs/cpu/libplatform.a(spiflash.o)
 .riscv.attributes
                0x0000000000000228       0x32 ../../libs/cpu/libplatform.a(debug.o)
 .riscv.attributes
                0x000000000000025a       0x32 ../../libs/cpu/libplatform.a(fot_pack.o)
 .riscv.attributes
                0x000000000000028c       0x32 ../../libs/cpu/libplatform.a(lock.o)
 .riscv.attributes
                0x00000000000002be       0x32 ../../libs/cpu/libplatform.a(patch.o)
 .riscv.attributes
                0x00000000000002f0       0x30 ../../libs/cpu/libplatform.a(s_sys.o)
 .riscv.attributes
                0x0000000000000320       0x32 ../../libs/cpu/libplatform.a(sys.o)
 .riscv.attributes
                0x0000000000000352       0x32 ../../libs/cpu/libplatform.a(sys_clk.o)
 .riscv.attributes
                0x0000000000000384       0x32 ../../libs/cpu/libplatform.a(voltage_trim.o)
 .riscv.attributes
                0x00000000000003b6       0x32 ../../libs/cpu/libplatform.a(weak_symbol.o)
 .riscv.attributes
                0x00000000000003e8       0x32 ../../libs/cpu/libplatform.a(bt.o)
 .riscv.attributes
                0x000000000000041a       0x32 ../../libs/cpu/libplatform.a(freq_det.o)
 .riscv.attributes
                0x000000000000044c       0x32 ../../libs/ble/libbtstack.a(txpkt.o)
 .riscv.attributes
                0x000000000000047e       0x32 ../../libs/ble/libbtstack.a(hci.o)
 .riscv.attributes
                0x00000000000004b0       0x32 ../../libs/ble/libbtstack.a(btstack_util.o)
 .riscv.attributes
                0x00000000000004e2       0x32 ../../libs/ble/libbtstack.a(sm.o)
 .riscv.attributes
                0x0000000000000514       0x32 ../../libs/ble/libbtstack.a(le_device_db_memory.o)
 .riscv.attributes
                0x0000000000000546       0x32 ../../libs/ble/libbtstack.a(gatt_server.o)
 .riscv.attributes
                0x0000000000000578       0x32 ../../libs/ble/libbtstack.a(gatt_client.o)
 .riscv.attributes
                0x00000000000005aa       0x32 ../../libs/ble/libbtstack.a(att_server.o)
 .riscv.attributes
                0x00000000000005dc       0x32 ../../libs/ble/libbtstack.a(att_dispatch.o)
 .riscv.attributes
                0x000000000000060e       0x32 ../../libs/ble/libbtstack.a(att_db.o)
 .riscv.attributes
                0x0000000000000640       0x32 ../../libs/ble/libbtstack.a(hci_transport_h3_controller.o)
 .riscv.attributes
                0x0000000000000672       0x32 ../../libs/ble/libbtstack.a(hci_transport_dummy.o)
 .riscv.attributes
                0x00000000000006a4       0x32 ../../libs/ble/libbtstack.a(btstack_hal.o)
 .riscv.attributes
                0x00000000000006d6       0x32 ../../libs/ble/libbtstack.a(btstack_api.o)
 .riscv.attributes
                0x0000000000000708       0x32 ../../libs/ble/libbtstack.a(ble_api.o)
 .riscv.attributes
                0x000000000000073a       0x32 ../../libs/ble/libbtstack.a(txpkt.o)
 .riscv.attributes
                0x000000000000076c       0x32 ../../libs/ble/libbtstack.a(platform.o)
 .riscv.attributes
                0x000000000000079e       0x32 ../../libs/ble/libbtstack.a(rf.o)
 .riscv.attributes
                0x00000000000007d0       0x32 ../../libs/ble/libbtstack.a(hct_proc.o)
 .riscv.attributes
                0x0000000000000802       0x32 ../../libs/ble/libbtstack.a(hct.o)
 .riscv.attributes
                0x0000000000000834       0x32 ../../libs/ble/libbtstack.a(mgr_hci.o)
 .riscv.attributes
                0x0000000000000866       0x32 ../../libs/ble/libbtstack.a(mgr.o)
 .riscv.attributes
                0x0000000000000898       0x32 ../../libs/ble/libbtstack.a(ll_adv.o)
 .riscv.attributes
                0x00000000000008ca       0x32 ../../libs/ble/libbtstack.a(ll_con_upd.o)
 .riscv.attributes
                0x00000000000008fc       0x32 ../../libs/ble/libbtstack.a(ll_cntl.o)
 .riscv.attributes
                0x000000000000092e       0x32 ../../libs/ble/libbtstack.a(ll_clk_acc.o)
 .riscv.attributes
                0x0000000000000960       0x32 ../../libs/ble/libbtstack.a(ll_chmap_upd.o)
 .riscv.attributes
                0x0000000000000992       0x32 ../../libs/ble/libbtstack.a(ll.o)
 .riscv.attributes
                0x00000000000009c4       0x32 ../../libs/ble/libbtstack.a(ble_hal.o)
 .riscv.attributes
                0x00000000000009f6       0x32 ../../libs/ble/libbtstack.a(ble_con.o)
 .riscv.attributes
                0x0000000000000a28       0x32 ../../libs/ble/libbtstack.a(ble_adv.o)
 .riscv.attributes
                0x0000000000000a5a       0x32 ../../libs/ble/libbtstack.a(ble_buf.o)
 .riscv.attributes
                0x0000000000000a8c       0x32 ../../libs/ble/libbtstack.a(bb_utils.o)
 .riscv.attributes
                0x0000000000000abe       0x32 ../../libs/ble/libbtstack.a(bb_int.o)
 .riscv.attributes
                0x0000000000000af0       0x32 ../../libs/ble/libbtstack.a(bb.o)
 .riscv.attributes
                0x0000000000000b22       0x32 ../../libs/ble/libbtstack.a(extern_ble.o)
 .riscv.attributes
                0x0000000000000b54       0x32 ../../libs/ble/libbtstack.a(l2cap.o)
 .riscv.attributes
                0x0000000000000b86       0x32 ../../libs/ble/libbtstack.a(hci_dump.o)
 .riscv.attributes
                0x0000000000000bb8       0x32 ../../libs/ble/libbtstack.a(hci_cmd.o)
 .riscv.attributes
                0x0000000000000bea       0x32 ../../libs/ble/libbtstack.a(btstack_run_loop.o)
 .riscv.attributes
                0x0000000000000c1c       0x32 ../../libs/ble/libbtstack.a(btstack_main.o)
 .riscv.attributes
                0x0000000000000c4e       0x32 ../../libs/ble/libbtstack.a(nanos.o)
 .riscv.attributes
                0x0000000000000c80       0x32 ../../libs/ble/libbtstack.a(bb_sche.o)
 .riscv.attributes
                0x0000000000000cb2       0x32 ../../libs/ble/libbtstack.a(patch.o)
 .riscv.attributes
                0x0000000000000ce4       0x32 ../../libs/ble/libbtstack.a(bb_dbg.o)
 .riscv.attributes
                0x0000000000000d16       0x32 ../../libs/ble/libbtstack.a(bb_clk.o)
 .riscv.attributes
                0x0000000000000d48       0x32 ../../libs/ble/libbtstack.a(aes.o)
 .riscv.attributes
                0x0000000000000d7a       0x32 ../../libs/ble/libbtstack.a(extern.o)
 .riscv.attributes
                0x0000000000000dac       0x32 ../../libs/ble/libbtstack.a(vs.o)
 .riscv.attributes
                0x0000000000000dde       0x32 ../../libs/ble/libbtstack.a(rf_mate.o)
 .riscv.attributes
                0x0000000000000e10       0x32 ../../libs/ble/libbtstack.a(ble_hook.o)
 .riscv.attributes
                0x0000000000000e42       0x32 ../../libs/ble/libbtstack.a(adv_hook.o)
 .riscv.attributes
                0x0000000000000e74       0x32 ../../libs/ble/libbtstack.a(hct_msg.o)
 .riscv.attributes
                0x0000000000000ea6       0x32 ../../libs/ble/libbtstack.a(mgr_test.o)
 .riscv.attributes
                0x0000000000000ed8       0x32 ../../libs/ble/libbtstack.a(mgr_proc.o)
 .riscv.attributes
                0x0000000000000f0a       0x32 ../../libs/ble/libbtstack.a(ll_version.o)
 .riscv.attributes
                0x0000000000000f3c       0x32 ../../libs/ble/libbtstack.a(ll_tbox_prod_test.o)
 .riscv.attributes
                0x0000000000000f6e       0x32 ../../libs/ble/libbtstack.a(ll_tbox_freq_cal.o)
 .riscv.attributes
                0x0000000000000fa0       0x32 ../../libs/ble/libbtstack.a(ll_tbox_feature.o)
 .riscv.attributes
                0x0000000000000fd2       0x32 ../../libs/ble/libbtstack.a(ll_proc.o)
 .riscv.attributes
                0x0000000000001004       0x32 ../../libs/ble/libbtstack.a(ll_phy_upd.o)
 .riscv.attributes
                0x0000000000001036       0x32 ../../libs/ble/libbtstack.a(ll_length.o)
 .riscv.attributes
                0x0000000000001068       0x32 ../../libs/ble/libbtstack.a(ll_feature.o)
 .riscv.attributes
                0x000000000000109a       0x32 ../../libs/ble/libbtstack.a(ll_encrypt.o)
 .riscv.attributes
                0x00000000000010cc       0x32 ../../libs/ble/libbtstack.a(ll_disconnect.o)
 .riscv.attributes
                0x00000000000010fe       0x32 ../../libs/ble/libbtstack.a(ble_test.o)
 .riscv.attributes
                0x0000000000001130       0x32 ../../libs/ble/libbtstack.a(ble.o)
 .riscv.attributes
                0x0000000000001162       0x32 ../../libs/ble/libbtstack.a(bb_alarm.o)
 .riscv.attributes
                0x0000000000001194       0x32 ../../libs/ble/libbtstack.a(l2cap_signaling.o)
 .riscv.attributes
                0x00000000000011c6       0x30 ../../libs/ble/libbtstack.a(patch_asm.o)
 .riscv.attributes
                0x00000000000011f6       0x32 ../../libs/ble/libbtstack.a(vs_proc.o)
 .riscv.attributes
                0x0000000000001228       0x32 ../../libs/ble/libbtstack.a(vs_fcc.o)
 .riscv.attributes
                0x000000000000125a       0x32 ../../libs/ble/libbtstack.a(ble_sync.o)
 .riscv.attributes
                0x000000000000128c       0x32 ../../libs/ble/libbtstack.a(ble_scan.o)
 .riscv.attributes
                0x00000000000012be       0x32 ../../libs/ble/libbtstack.a(ble_init.o)
